ARM GAS  /var/folders/lp/0dm50ddn51vc39svyzv_6fp00000gn/T//ccmLs69f.s 			page 1


   1              		.syntax unified
   2              		.cpu cortex-m3
   3              		.fpu softvfp
   4              		.eabi_attribute 20, 1	@ Tag_ABI_FP_denormal
   5              		.eabi_attribute 21, 1	@ Tag_ABI_FP_exceptions
   6              		.eabi_attribute 23, 3	@ Tag_ABI_FP_number_model
   7              		.eabi_attribute 24, 1	@ Tag_ABI_align8_needed
   8              		.eabi_attribute 25, 1	@ Tag_ABI_align8_preserved
   9              		.eabi_attribute 26, 1	@ Tag_ABI_enum_size
  10              		.eabi_attribute 30, 4	@ Tag_ABI_optimization_goals
  11              		.eabi_attribute 34, 1	@ Tag_CPU_unaligned_access
  12              		.eabi_attribute 18, 4	@ Tag_ABI_PCS_wchar_t
  13              		.file	"misc.c"
  14              	@ GNU C11 (GNU Tools for ARM Embedded Processors) version 5.4.1 20160919 (release) [ARM/embedded-5-
  15              	@	compiled by GNU C version 4.2.1 (Based on Apple Inc. build 5658) (LLVM build 2336.9.00), GMP vers
  16              	@ GGC heuristics: --param ggc-min-expand=100 --param ggc-min-heapsize=131072
  17              	@ options passed:  -I . -I ./user -I ./Libraries/CMSIS/CM3/CoreSupport
  18              	@ -I ./Libraries/CMSIS/CM3/DeviceSupport/ST/STM32F10x
  19              	@ -I ./Libraries/STM32F10x_StdPeriph_Driver/inc
  20              	@ -I ./Libraries/STM32F10x_StdPeriph_Driver -imultilib armv7-m
  21              	@ -iprefix /usr/local/share/gcc-arm-none-eabi-5_4-2016q3/bin/../lib/gcc/arm-none-eabi/5.4.1/
  22              	@ -isysroot /usr/local/share/gcc-arm-none-eabi-5_4-2016q3/bin/../arm-none-eabi
  23              	@ -D__USES_INITFINI__ -D STM32F10X_MD_VL -D USE_STDPERIPH_DRIVER
  24              	@ -D HSE_VALUE=8000000 -D RUN_FROM_FLASH=1
  25              	@ Libraries/STM32F10x_StdPeriph_Driver/src/misc.c -mcpu=cortex-m3 -mthumb
  26              	@ -auxbase-strip Libraries/STM32F10x_StdPeriph_Driver/src/misc.o -g
  27              	@ -gdwarf-2 -Os -Wall -fomit-frame-pointer -fverbose-asm
  28              	@ options enabled:  -faggressive-loop-optimizations -falign-functions
  29              	@ -falign-jumps -falign-labels -falign-loops -fauto-inc-dec
  30              	@ -fbranch-count-reg -fcaller-saves -fchkp-check-incomplete-type
  31              	@ -fchkp-check-read -fchkp-check-write -fchkp-instrument-calls
  32              	@ -fchkp-narrow-bounds -fchkp-optimize -fchkp-store-bounds
  33              	@ -fchkp-use-static-bounds -fchkp-use-static-const-bounds
  34              	@ -fchkp-use-wrappers -fcombine-stack-adjustments -fcommon -fcompare-elim
  35              	@ -fcprop-registers -fcrossjumping -fcse-follow-jumps -fdefer-pop
  36              	@ -fdelete-null-pointer-checks -fdevirtualize -fdevirtualize-speculatively
  37              	@ -fdwarf2-cfi-asm -fearly-inlining -feliminate-unused-debug-types
  38              	@ -fexpensive-optimizations -fforward-propagate -ffunction-cse -fgcse
  39              	@ -fgcse-lm -fgnu-runtime -fgnu-unique -fguess-branch-probability
  40              	@ -fhoist-adjacent-loads -fident -fif-conversion -fif-conversion2
  41              	@ -findirect-inlining -finline -finline-atomics -finline-functions
  42              	@ -finline-functions-called-once -finline-small-functions -fipa-cp
  43              	@ -fipa-cp-alignment -fipa-icf -fipa-icf-functions -fipa-icf-variables
  44              	@ -fipa-profile -fipa-pure-const -fipa-ra -fipa-reference -fipa-sra
  45              	@ -fira-hoist-pressure -fira-share-save-slots -fira-share-spill-slots
  46              	@ -fisolate-erroneous-paths-dereference -fivopts -fkeep-static-consts
  47              	@ -fleading-underscore -flifetime-dse -flra-remat -flto-odr-type-merging
  48              	@ -fmath-errno -fmerge-constants -fmerge-debug-strings
  49              	@ -fmove-loop-invariants -fomit-frame-pointer -foptimize-sibling-calls
  50              	@ -fpartial-inlining -fpeephole -fpeephole2 -fprefetch-loop-arrays
  51              	@ -freg-struct-return -freorder-blocks -freorder-functions
  52              	@ -frerun-cse-after-loop -fsched-critical-path-heuristic
  53              	@ -fsched-dep-count-heuristic -fsched-group-heuristic -fsched-interblock
  54              	@ -fsched-last-insn-heuristic -fsched-pressure -fsched-rank-heuristic
  55              	@ -fsched-spec -fsched-spec-insn-heuristic -fsched-stalled-insns-dep
  56              	@ -fschedule-insns2 -fsection-anchors -fsemantic-interposition
  57              	@ -fshow-column -fsigned-zeros -fsplit-ivs-in-unroller -fsplit-wide-types
ARM GAS  /var/folders/lp/0dm50ddn51vc39svyzv_6fp00000gn/T//ccmLs69f.s 			page 2


  58              	@ -fssa-phiopt -fstdarg-opt -fstrict-aliasing -fstrict-overflow
  59              	@ -fstrict-volatile-bitfields -fsync-libcalls -fthread-jumps
  60              	@ -ftoplevel-reorder -ftrapping-math -ftree-bit-ccp -ftree-builtin-call-dce
  61              	@ -ftree-ccp -ftree-ch -ftree-coalesce-vars -ftree-copy-prop
  62              	@ -ftree-copyrename -ftree-cselim -ftree-dce -ftree-dominator-opts
  63              	@ -ftree-dse -ftree-forwprop -ftree-fre -ftree-loop-if-convert
  64              	@ -ftree-loop-im -ftree-loop-ivcanon -ftree-loop-optimize
  65              	@ -ftree-parallelize-loops= -ftree-phiprop -ftree-pre -ftree-pta
  66              	@ -ftree-reassoc -ftree-scev-cprop -ftree-sink -ftree-slsr -ftree-sra
  67              	@ -ftree-switch-conversion -ftree-tail-merge -ftree-ter -ftree-vrp
  68              	@ -funit-at-a-time -fvar-tracking -fvar-tracking-assignments -fverbose-asm
  69              	@ -fzero-initialized-in-bss -masm-syntax-unified -mfix-cortex-m3-ldrd
  70              	@ -mlittle-endian -mpic-data-is-text-relative -msched-prolog -mthumb
  71              	@ -munaligned-access -mvectorize-with-neon-quad
  72              	
  73              		.text
  74              	.Ltext0:
  75              		.cfi_sections	.debug_frame
  76              		.align	1
  77              		.global	NVIC_PriorityGroupConfig
  78              		.thumb
  79              		.thumb_func
  80              		.type	NVIC_PriorityGroupConfig, %function
  81              	NVIC_PriorityGroupConfig:
  82              	.LFB29:
  83              		.file 1 "Libraries/STM32F10x_StdPeriph_Driver/src/misc.c"
   1:Libraries/STM32F10x_StdPeriph_Driver/src/misc.c **** /**
   2:Libraries/STM32F10x_StdPeriph_Driver/src/misc.c ****   ******************************************************************************
   3:Libraries/STM32F10x_StdPeriph_Driver/src/misc.c ****   * @file    misc.c
   4:Libraries/STM32F10x_StdPeriph_Driver/src/misc.c ****   * @author  MCD Application Team
   5:Libraries/STM32F10x_StdPeriph_Driver/src/misc.c ****   * @version V3.5.0
   6:Libraries/STM32F10x_StdPeriph_Driver/src/misc.c ****   * @date    11-March-2011
   7:Libraries/STM32F10x_StdPeriph_Driver/src/misc.c ****   * @brief   This file provides all the miscellaneous firmware functions (add-on
   8:Libraries/STM32F10x_StdPeriph_Driver/src/misc.c ****   *          to CMSIS functions).
   9:Libraries/STM32F10x_StdPeriph_Driver/src/misc.c ****   ******************************************************************************
  10:Libraries/STM32F10x_StdPeriph_Driver/src/misc.c ****   * @attention
  11:Libraries/STM32F10x_StdPeriph_Driver/src/misc.c ****   *
  12:Libraries/STM32F10x_StdPeriph_Driver/src/misc.c ****   * THE PRESENT FIRMWARE WHICH IS FOR GUIDANCE ONLY AIMS AT PROVIDING CUSTOMERS
  13:Libraries/STM32F10x_StdPeriph_Driver/src/misc.c ****   * WITH CODING INFORMATION REGARDING THEIR PRODUCTS IN ORDER FOR THEM TO SAVE
  14:Libraries/STM32F10x_StdPeriph_Driver/src/misc.c ****   * TIME. AS A RESULT, STMICROELECTRONICS SHALL NOT BE HELD LIABLE FOR ANY
  15:Libraries/STM32F10x_StdPeriph_Driver/src/misc.c ****   * DIRECT, INDIRECT OR CONSEQUENTIAL DAMAGES WITH RESPECT TO ANY CLAIMS ARISING
  16:Libraries/STM32F10x_StdPeriph_Driver/src/misc.c ****   * FROM THE CONTENT OF SUCH FIRMWARE AND/OR THE USE MADE BY CUSTOMERS OF THE
  17:Libraries/STM32F10x_StdPeriph_Driver/src/misc.c ****   * CODING INFORMATION CONTAINED HEREIN IN CONNECTION WITH THEIR PRODUCTS.
  18:Libraries/STM32F10x_StdPeriph_Driver/src/misc.c ****   *
  19:Libraries/STM32F10x_StdPeriph_Driver/src/misc.c ****   * <h2><center>&copy; COPYRIGHT 2011 STMicroelectronics</center></h2>
  20:Libraries/STM32F10x_StdPeriph_Driver/src/misc.c ****   ******************************************************************************
  21:Libraries/STM32F10x_StdPeriph_Driver/src/misc.c ****   */
  22:Libraries/STM32F10x_StdPeriph_Driver/src/misc.c **** 
  23:Libraries/STM32F10x_StdPeriph_Driver/src/misc.c **** /* Includes ------------------------------------------------------------------*/
  24:Libraries/STM32F10x_StdPeriph_Driver/src/misc.c **** #include "misc.h"
  25:Libraries/STM32F10x_StdPeriph_Driver/src/misc.c **** 
  26:Libraries/STM32F10x_StdPeriph_Driver/src/misc.c **** /** @addtogroup STM32F10x_StdPeriph_Driver
  27:Libraries/STM32F10x_StdPeriph_Driver/src/misc.c ****   * @{
  28:Libraries/STM32F10x_StdPeriph_Driver/src/misc.c ****   */
  29:Libraries/STM32F10x_StdPeriph_Driver/src/misc.c **** 
  30:Libraries/STM32F10x_StdPeriph_Driver/src/misc.c **** /** @defgroup MISC 
  31:Libraries/STM32F10x_StdPeriph_Driver/src/misc.c ****   * @brief MISC driver modules
ARM GAS  /var/folders/lp/0dm50ddn51vc39svyzv_6fp00000gn/T//ccmLs69f.s 			page 3


  32:Libraries/STM32F10x_StdPeriph_Driver/src/misc.c ****   * @{
  33:Libraries/STM32F10x_StdPeriph_Driver/src/misc.c ****   */
  34:Libraries/STM32F10x_StdPeriph_Driver/src/misc.c **** 
  35:Libraries/STM32F10x_StdPeriph_Driver/src/misc.c **** /** @defgroup MISC_Private_TypesDefinitions
  36:Libraries/STM32F10x_StdPeriph_Driver/src/misc.c ****   * @{
  37:Libraries/STM32F10x_StdPeriph_Driver/src/misc.c ****   */
  38:Libraries/STM32F10x_StdPeriph_Driver/src/misc.c **** 
  39:Libraries/STM32F10x_StdPeriph_Driver/src/misc.c **** /**
  40:Libraries/STM32F10x_StdPeriph_Driver/src/misc.c ****   * @}
  41:Libraries/STM32F10x_StdPeriph_Driver/src/misc.c ****   */ 
  42:Libraries/STM32F10x_StdPeriph_Driver/src/misc.c **** 
  43:Libraries/STM32F10x_StdPeriph_Driver/src/misc.c **** /** @defgroup MISC_Private_Defines
  44:Libraries/STM32F10x_StdPeriph_Driver/src/misc.c ****   * @{
  45:Libraries/STM32F10x_StdPeriph_Driver/src/misc.c ****   */
  46:Libraries/STM32F10x_StdPeriph_Driver/src/misc.c **** 
  47:Libraries/STM32F10x_StdPeriph_Driver/src/misc.c **** #define AIRCR_VECTKEY_MASK    ((uint32_t)0x05FA0000)
  48:Libraries/STM32F10x_StdPeriph_Driver/src/misc.c **** /**
  49:Libraries/STM32F10x_StdPeriph_Driver/src/misc.c ****   * @}
  50:Libraries/STM32F10x_StdPeriph_Driver/src/misc.c ****   */
  51:Libraries/STM32F10x_StdPeriph_Driver/src/misc.c **** 
  52:Libraries/STM32F10x_StdPeriph_Driver/src/misc.c **** /** @defgroup MISC_Private_Macros
  53:Libraries/STM32F10x_StdPeriph_Driver/src/misc.c ****   * @{
  54:Libraries/STM32F10x_StdPeriph_Driver/src/misc.c ****   */
  55:Libraries/STM32F10x_StdPeriph_Driver/src/misc.c **** 
  56:Libraries/STM32F10x_StdPeriph_Driver/src/misc.c **** /**
  57:Libraries/STM32F10x_StdPeriph_Driver/src/misc.c ****   * @}
  58:Libraries/STM32F10x_StdPeriph_Driver/src/misc.c ****   */
  59:Libraries/STM32F10x_StdPeriph_Driver/src/misc.c **** 
  60:Libraries/STM32F10x_StdPeriph_Driver/src/misc.c **** /** @defgroup MISC_Private_Variables
  61:Libraries/STM32F10x_StdPeriph_Driver/src/misc.c ****   * @{
  62:Libraries/STM32F10x_StdPeriph_Driver/src/misc.c ****   */
  63:Libraries/STM32F10x_StdPeriph_Driver/src/misc.c **** 
  64:Libraries/STM32F10x_StdPeriph_Driver/src/misc.c **** /**
  65:Libraries/STM32F10x_StdPeriph_Driver/src/misc.c ****   * @}
  66:Libraries/STM32F10x_StdPeriph_Driver/src/misc.c ****   */
  67:Libraries/STM32F10x_StdPeriph_Driver/src/misc.c **** 
  68:Libraries/STM32F10x_StdPeriph_Driver/src/misc.c **** /** @defgroup MISC_Private_FunctionPrototypes
  69:Libraries/STM32F10x_StdPeriph_Driver/src/misc.c ****   * @{
  70:Libraries/STM32F10x_StdPeriph_Driver/src/misc.c ****   */
  71:Libraries/STM32F10x_StdPeriph_Driver/src/misc.c **** 
  72:Libraries/STM32F10x_StdPeriph_Driver/src/misc.c **** /**
  73:Libraries/STM32F10x_StdPeriph_Driver/src/misc.c ****   * @}
  74:Libraries/STM32F10x_StdPeriph_Driver/src/misc.c ****   */
  75:Libraries/STM32F10x_StdPeriph_Driver/src/misc.c **** 
  76:Libraries/STM32F10x_StdPeriph_Driver/src/misc.c **** /** @defgroup MISC_Private_Functions
  77:Libraries/STM32F10x_StdPeriph_Driver/src/misc.c ****   * @{
  78:Libraries/STM32F10x_StdPeriph_Driver/src/misc.c ****   */
  79:Libraries/STM32F10x_StdPeriph_Driver/src/misc.c **** 
  80:Libraries/STM32F10x_StdPeriph_Driver/src/misc.c **** /**
  81:Libraries/STM32F10x_StdPeriph_Driver/src/misc.c ****   * @brief  Configures the priority grouping: pre-emption priority and subpriority.
  82:Libraries/STM32F10x_StdPeriph_Driver/src/misc.c ****   * @param  NVIC_PriorityGroup: specifies the priority grouping bits length. 
  83:Libraries/STM32F10x_StdPeriph_Driver/src/misc.c ****   *   This parameter can be one of the following values:
  84:Libraries/STM32F10x_StdPeriph_Driver/src/misc.c ****   *     @arg NVIC_PriorityGroup_0: 0 bits for pre-emption priority
  85:Libraries/STM32F10x_StdPeriph_Driver/src/misc.c ****   *                                4 bits for subpriority
  86:Libraries/STM32F10x_StdPeriph_Driver/src/misc.c ****   *     @arg NVIC_PriorityGroup_1: 1 bits for pre-emption priority
  87:Libraries/STM32F10x_StdPeriph_Driver/src/misc.c ****   *                                3 bits for subpriority
  88:Libraries/STM32F10x_StdPeriph_Driver/src/misc.c ****   *     @arg NVIC_PriorityGroup_2: 2 bits for pre-emption priority
ARM GAS  /var/folders/lp/0dm50ddn51vc39svyzv_6fp00000gn/T//ccmLs69f.s 			page 4


  89:Libraries/STM32F10x_StdPeriph_Driver/src/misc.c ****   *                                2 bits for subpriority
  90:Libraries/STM32F10x_StdPeriph_Driver/src/misc.c ****   *     @arg NVIC_PriorityGroup_3: 3 bits for pre-emption priority
  91:Libraries/STM32F10x_StdPeriph_Driver/src/misc.c ****   *                                1 bits for subpriority
  92:Libraries/STM32F10x_StdPeriph_Driver/src/misc.c ****   *     @arg NVIC_PriorityGroup_4: 4 bits for pre-emption priority
  93:Libraries/STM32F10x_StdPeriph_Driver/src/misc.c ****   *                                0 bits for subpriority
  94:Libraries/STM32F10x_StdPeriph_Driver/src/misc.c ****   * @retval None
  95:Libraries/STM32F10x_StdPeriph_Driver/src/misc.c ****   */
  96:Libraries/STM32F10x_StdPeriph_Driver/src/misc.c **** void NVIC_PriorityGroupConfig(uint32_t NVIC_PriorityGroup)
  97:Libraries/STM32F10x_StdPeriph_Driver/src/misc.c **** {
  84              		.loc 1 97 0
  85              		.cfi_startproc
  86              		@ args = 0, pretend = 0, frame = 0
  87              		@ frame_needed = 0, uses_anonymous_args = 0
  88              		@ link register save eliminated.
  89              	.LVL0:
  98:Libraries/STM32F10x_StdPeriph_Driver/src/misc.c ****   /* Check the parameters */
  99:Libraries/STM32F10x_StdPeriph_Driver/src/misc.c ****   assert_param(IS_NVIC_PRIORITY_GROUP(NVIC_PriorityGroup));
 100:Libraries/STM32F10x_StdPeriph_Driver/src/misc.c ****   
 101:Libraries/STM32F10x_StdPeriph_Driver/src/misc.c ****   /* Set the PRIGROUP[10:8] bits according to NVIC_PriorityGroup value */
 102:Libraries/STM32F10x_StdPeriph_Driver/src/misc.c ****   SCB->AIRCR = AIRCR_VECTKEY_MASK | NVIC_PriorityGroup;
  90              		.loc 1 102 0
  91 0000 40F0BF60 		orr	r0, r0, #100139008	@ D.6625, NVIC_PriorityGroup,
  92              	.LVL1:
  93 0004 024B     		ldr	r3, .L2	@ tmp113,
  94 0006 40F40030 		orr	r0, r0, #131072	@ D.6625, D.6625,
  95 000a D860     		str	r0, [r3, #12]	@ D.6625, MEM[(struct SCB_Type *)3758157056B].AIRCR
  96 000c 7047     		bx	lr	@
  97              	.L3:
  98 000e 00BF     		.align	2
  99              	.L2:
 100 0010 00ED00E0 		.word	-536810240
 101              		.cfi_endproc
 102              	.LFE29:
 103              		.size	NVIC_PriorityGroupConfig, .-NVIC_PriorityGroupConfig
 104              		.align	1
 105              		.global	NVIC_Init
 106              		.thumb
 107              		.thumb_func
 108              		.type	NVIC_Init, %function
 109              	NVIC_Init:
 110              	.LFB30:
 103:Libraries/STM32F10x_StdPeriph_Driver/src/misc.c **** }
 104:Libraries/STM32F10x_StdPeriph_Driver/src/misc.c **** 
 105:Libraries/STM32F10x_StdPeriph_Driver/src/misc.c **** /**
 106:Libraries/STM32F10x_StdPeriph_Driver/src/misc.c ****   * @brief  Initializes the NVIC peripheral according to the specified
 107:Libraries/STM32F10x_StdPeriph_Driver/src/misc.c ****   *         parameters in the NVIC_InitStruct.
 108:Libraries/STM32F10x_StdPeriph_Driver/src/misc.c ****   * @param  NVIC_InitStruct: pointer to a NVIC_InitTypeDef structure that contains
 109:Libraries/STM32F10x_StdPeriph_Driver/src/misc.c ****   *         the configuration information for the specified NVIC peripheral.
 110:Libraries/STM32F10x_StdPeriph_Driver/src/misc.c ****   * @retval None
 111:Libraries/STM32F10x_StdPeriph_Driver/src/misc.c ****   */
 112:Libraries/STM32F10x_StdPeriph_Driver/src/misc.c **** void NVIC_Init(NVIC_InitTypeDef* NVIC_InitStruct)
 113:Libraries/STM32F10x_StdPeriph_Driver/src/misc.c **** {
 111              		.loc 1 113 0
 112              		.cfi_startproc
 113              		@ args = 0, pretend = 0, frame = 0
 114              		@ frame_needed = 0, uses_anonymous_args = 0
 115              	.LVL2:
ARM GAS  /var/folders/lp/0dm50ddn51vc39svyzv_6fp00000gn/T//ccmLs69f.s 			page 5


 114:Libraries/STM32F10x_StdPeriph_Driver/src/misc.c ****   uint32_t tmppriority = 0x00, tmppre = 0x00, tmpsub = 0x0F;
 115:Libraries/STM32F10x_StdPeriph_Driver/src/misc.c ****   
 116:Libraries/STM32F10x_StdPeriph_Driver/src/misc.c ****   /* Check the parameters */
 117:Libraries/STM32F10x_StdPeriph_Driver/src/misc.c ****   assert_param(IS_FUNCTIONAL_STATE(NVIC_InitStruct->NVIC_IRQChannelCmd));
 118:Libraries/STM32F10x_StdPeriph_Driver/src/misc.c ****   assert_param(IS_NVIC_PREEMPTION_PRIORITY(NVIC_InitStruct->NVIC_IRQChannelPreemptionPriority));  
 119:Libraries/STM32F10x_StdPeriph_Driver/src/misc.c ****   assert_param(IS_NVIC_SUB_PRIORITY(NVIC_InitStruct->NVIC_IRQChannelSubPriority));
 120:Libraries/STM32F10x_StdPeriph_Driver/src/misc.c ****     
 121:Libraries/STM32F10x_StdPeriph_Driver/src/misc.c ****   if (NVIC_InitStruct->NVIC_IRQChannelCmd != DISABLE)
 116              		.loc 1 121 0
 117 0014 C278     		ldrb	r2, [r0, #3]	@ zero_extendqisi2	@ NVIC_InitStruct_6(D)->NVIC_IRQChannelCmd, NVIC_InitStruct_6
 113:Libraries/STM32F10x_StdPeriph_Driver/src/misc.c ****   uint32_t tmppriority = 0x00, tmppre = 0x00, tmpsub = 0x0F;
 118              		.loc 1 113 0
 119 0016 10B5     		push	{r4, lr}	@
 120              	.LCFI0:
 121              		.cfi_def_cfa_offset 8
 122              		.cfi_offset 4, -8
 123              		.cfi_offset 14, -4
 124 0018 0378     		ldrb	r3, [r0]	@ zero_extendqisi2	@ D.6629, NVIC_InitStruct_6(D)->NVIC_IRQChannel
 125              		.loc 1 121 0
 126 001a 0AB3     		cbz	r2, .L5	@ NVIC_InitStruct_6(D)->NVIC_IRQChannelCmd,
 122:Libraries/STM32F10x_StdPeriph_Driver/src/misc.c ****   {
 123:Libraries/STM32F10x_StdPeriph_Driver/src/misc.c ****     /* Compute the Corresponding IRQ Priority --------------------------------*/    
 124:Libraries/STM32F10x_StdPeriph_Driver/src/misc.c ****     tmppriority = (0x700 - ((SCB->AIRCR) & (uint32_t)0x700))>> 0x08;
 127              		.loc 1 124 0
 128 001c 164A     		ldr	r2, .L8	@ tmp142,
 125:Libraries/STM32F10x_StdPeriph_Driver/src/misc.c ****     tmppre = (0x4 - tmppriority);
 126:Libraries/STM32F10x_StdPeriph_Driver/src/misc.c ****     tmpsub = tmpsub >> tmppriority;
 127:Libraries/STM32F10x_StdPeriph_Driver/src/misc.c **** 
 128:Libraries/STM32F10x_StdPeriph_Driver/src/misc.c ****     tmppriority = (uint32_t)NVIC_InitStruct->NVIC_IRQChannelPreemptionPriority << tmppre;
 129:Libraries/STM32F10x_StdPeriph_Driver/src/misc.c ****     tmppriority |=  NVIC_InitStruct->NVIC_IRQChannelSubPriority & tmpsub;
 130:Libraries/STM32F10x_StdPeriph_Driver/src/misc.c ****     tmppriority = tmppriority << 0x04;
 131:Libraries/STM32F10x_StdPeriph_Driver/src/misc.c ****         
 132:Libraries/STM32F10x_StdPeriph_Driver/src/misc.c ****     NVIC->IP[NVIC_InitStruct->NVIC_IRQChannel] = tmppriority;
 129              		.loc 1 132 0
 130 001e 03F16043 		add	r3, r3, #-536870912	@ tmp151, D.6629,
 124:Libraries/STM32F10x_StdPeriph_Driver/src/misc.c ****     tmppre = (0x4 - tmppriority);
 131              		.loc 1 124 0
 132 0022 D168     		ldr	r1, [r2, #12]	@ D.6628, MEM[(struct SCB_Type *)3758157056B].AIRCR
 128:Libraries/STM32F10x_StdPeriph_Driver/src/misc.c ****     tmppriority |=  NVIC_InitStruct->NVIC_IRQChannelSubPriority & tmpsub;
 133              		.loc 1 128 0
 134 0024 4278     		ldrb	r2, [r0, #1]	@ zero_extendqisi2	@ D.6628, NVIC_InitStruct_6(D)->NVIC_IRQChannelPreemptionPrio
 124:Libraries/STM32F10x_StdPeriph_Driver/src/misc.c ****     tmppre = (0x4 - tmppriority);
 135              		.loc 1 124 0
 136 0026 C943     		mvns	r1, r1	@ D.6628, D.6628
 137 0028 C1F30221 		ubfx	r1, r1, #8, #3	@ tmppriority, D.6628,,
 138              	.LVL3:
 125:Libraries/STM32F10x_StdPeriph_Driver/src/misc.c ****     tmppre = (0x4 - tmppriority);
 139              		.loc 1 125 0
 140 002c C1F10404 		rsb	r4, r1, #4	@ tmppre, tmppriority,
 141              	.LVL4:
 128:Libraries/STM32F10x_StdPeriph_Driver/src/misc.c ****     tmppriority |=  NVIC_InitStruct->NVIC_IRQChannelSubPriority & tmpsub;
 142              		.loc 1 128 0
 143 0030 02FA04F4 		lsl	r4, r2, r4	@ tmppriority, D.6628, tmppre
 144              	.LVL5:
 129:Libraries/STM32F10x_StdPeriph_Driver/src/misc.c ****     tmppriority = tmppriority << 0x04;
 145              		.loc 1 129 0
 146 0034 0F22     		movs	r2, #15	@ tmp147,
ARM GAS  /var/folders/lp/0dm50ddn51vc39svyzv_6fp00000gn/T//ccmLs69f.s 			page 6


 147 0036 CA40     		lsrs	r2, r2, r1	@ tmpsub, tmp147, tmppriority
 148              	.LVL6:
 149 0038 8178     		ldrb	r1, [r0, #2]	@ zero_extendqisi2	@ D.6628, NVIC_InitStruct_6(D)->NVIC_IRQChannelSubPriority
 150              	.LVL7:
 151              		.loc 1 132 0
 152 003a 03F56143 		add	r3, r3, #57600	@ tmp151, tmp151,
 129:Libraries/STM32F10x_StdPeriph_Driver/src/misc.c ****     tmppriority = tmppriority << 0x04;
 153              		.loc 1 129 0
 154 003e 0A40     		ands	r2, r2, r1	@, D.6628, tmpsub, D.6628
 155              	.LVL8:
 156 0040 2243     		orrs	r2, r2, r4	@, tmppriority, D.6628, tmppriority
 157              	.LVL9:
 158              		.loc 1 132 0
 159 0042 1201     		lsls	r2, r2, #4	@ tmppriority, tmppriority,
 160              	.LVL10:
 161 0044 D2B2     		uxtb	r2, r2	@ D.6629, tmppriority
 162              	.LVL11:
 163 0046 83F80023 		strb	r2, [r3, #768]	@ D.6629, MEM[(struct NVIC_Type *)3758153984B].IP
 133:Libraries/STM32F10x_StdPeriph_Driver/src/misc.c ****     
 134:Libraries/STM32F10x_StdPeriph_Driver/src/misc.c ****     /* Enable the Selected IRQ Channels --------------------------------------*/
 135:Libraries/STM32F10x_StdPeriph_Driver/src/misc.c ****     NVIC->ISER[NVIC_InitStruct->NVIC_IRQChannel >> 0x05] =
 164              		.loc 1 135 0
 165 004a 0378     		ldrb	r3, [r0]	@ zero_extendqisi2	@ D.6629, NVIC_InitStruct_6(D)->NVIC_IRQChannel
 136:Libraries/STM32F10x_StdPeriph_Driver/src/misc.c ****       (uint32_t)0x01 << (NVIC_InitStruct->NVIC_IRQChannel & (uint8_t)0x1F);
 166              		.loc 1 136 0
 167 004c 0122     		movs	r2, #1	@ tmp156,
 135:Libraries/STM32F10x_StdPeriph_Driver/src/misc.c ****       (uint32_t)0x01 << (NVIC_InitStruct->NVIC_IRQChannel & (uint8_t)0x1F);
 168              		.loc 1 135 0
 169 004e 5909     		lsrs	r1, r3, #5	@ D.6631, D.6629,
 170              		.loc 1 136 0
 171 0050 03F01F03 		and	r3, r3, #31	@ D.6631, D.6629,
 172 0054 02FA03F3 		lsl	r3, r2, r3	@ D.6628, tmp156, D.6631
 135:Libraries/STM32F10x_StdPeriph_Driver/src/misc.c ****       (uint32_t)0x01 << (NVIC_InitStruct->NVIC_IRQChannel & (uint8_t)0x1F);
 173              		.loc 1 135 0
 174 0058 084A     		ldr	r2, .L8+4	@ tmp150,
 175 005a 42F82130 		str	r3, [r2, r1, lsl #2]	@ D.6628, MEM[(struct NVIC_Type *)3758153984B].ISER
 176 005e 10BD     		pop	{r4, pc}	@
 177              	.LVL12:
 178              	.L5:
 137:Libraries/STM32F10x_StdPeriph_Driver/src/misc.c ****   }
 138:Libraries/STM32F10x_StdPeriph_Driver/src/misc.c ****   else
 139:Libraries/STM32F10x_StdPeriph_Driver/src/misc.c ****   {
 140:Libraries/STM32F10x_StdPeriph_Driver/src/misc.c ****     /* Disable the Selected IRQ Channels -------------------------------------*/
 141:Libraries/STM32F10x_StdPeriph_Driver/src/misc.c ****     NVIC->ICER[NVIC_InitStruct->NVIC_IRQChannel >> 0x05] =
 179              		.loc 1 141 0
 180 0060 5A09     		lsrs	r2, r3, #5	@ D.6631, D.6629,
 142:Libraries/STM32F10x_StdPeriph_Driver/src/misc.c ****       (uint32_t)0x01 << (NVIC_InitStruct->NVIC_IRQChannel & (uint8_t)0x1F);
 181              		.loc 1 142 0
 182 0062 0121     		movs	r1, #1	@ tmp161,
 183 0064 03F01F03 		and	r3, r3, #31	@ D.6631, D.6629,
 184 0068 01FA03F3 		lsl	r3, r1, r3	@ D.6628, tmp161, D.6631
 141:Libraries/STM32F10x_StdPeriph_Driver/src/misc.c ****       (uint32_t)0x01 << (NVIC_InitStruct->NVIC_IRQChannel & (uint8_t)0x1F);
 185              		.loc 1 141 0
 186 006c 0349     		ldr	r1, .L8+4	@ tmp162,
 187 006e 2032     		adds	r2, r2, #32	@ tmp163, D.6631,
 188 0070 41F82230 		str	r3, [r1, r2, lsl #2]	@ D.6628, MEM[(struct NVIC_Type *)3758153984B].ICER
 189 0074 10BD     		pop	{r4, pc}	@
ARM GAS  /var/folders/lp/0dm50ddn51vc39svyzv_6fp00000gn/T//ccmLs69f.s 			page 7


 190              	.L9:
 191 0076 00BF     		.align	2
 192              	.L8:
 193 0078 00ED00E0 		.word	-536810240
 194 007c 00E100E0 		.word	-536813312
 195              		.cfi_endproc
 196              	.LFE30:
 197              		.size	NVIC_Init, .-NVIC_Init
 198              		.align	1
 199              		.global	NVIC_SetVectorTable
 200              		.thumb
 201              		.thumb_func
 202              		.type	NVIC_SetVectorTable, %function
 203              	NVIC_SetVectorTable:
 204              	.LFB31:
 143:Libraries/STM32F10x_StdPeriph_Driver/src/misc.c ****   }
 144:Libraries/STM32F10x_StdPeriph_Driver/src/misc.c **** }
 145:Libraries/STM32F10x_StdPeriph_Driver/src/misc.c **** 
 146:Libraries/STM32F10x_StdPeriph_Driver/src/misc.c **** /**
 147:Libraries/STM32F10x_StdPeriph_Driver/src/misc.c ****   * @brief  Sets the vector table location and Offset.
 148:Libraries/STM32F10x_StdPeriph_Driver/src/misc.c ****   * @param  NVIC_VectTab: specifies if the vector table is in RAM or FLASH memory.
 149:Libraries/STM32F10x_StdPeriph_Driver/src/misc.c ****   *   This parameter can be one of the following values:
 150:Libraries/STM32F10x_StdPeriph_Driver/src/misc.c ****   *     @arg NVIC_VectTab_RAM
 151:Libraries/STM32F10x_StdPeriph_Driver/src/misc.c ****   *     @arg NVIC_VectTab_FLASH
 152:Libraries/STM32F10x_StdPeriph_Driver/src/misc.c ****   * @param  Offset: Vector Table base offset field. This value must be a multiple 
 153:Libraries/STM32F10x_StdPeriph_Driver/src/misc.c ****   *         of 0x200.
 154:Libraries/STM32F10x_StdPeriph_Driver/src/misc.c ****   * @retval None
 155:Libraries/STM32F10x_StdPeriph_Driver/src/misc.c ****   */
 156:Libraries/STM32F10x_StdPeriph_Driver/src/misc.c **** void NVIC_SetVectorTable(uint32_t NVIC_VectTab, uint32_t Offset)
 157:Libraries/STM32F10x_StdPeriph_Driver/src/misc.c **** { 
 205              		.loc 1 157 0
 206              		.cfi_startproc
 207              		@ args = 0, pretend = 0, frame = 0
 208              		@ frame_needed = 0, uses_anonymous_args = 0
 209              		@ link register save eliminated.
 210              	.LVL13:
 158:Libraries/STM32F10x_StdPeriph_Driver/src/misc.c ****   /* Check the parameters */
 159:Libraries/STM32F10x_StdPeriph_Driver/src/misc.c ****   assert_param(IS_NVIC_VECTTAB(NVIC_VectTab));
 160:Libraries/STM32F10x_StdPeriph_Driver/src/misc.c ****   assert_param(IS_NVIC_OFFSET(Offset));  
 161:Libraries/STM32F10x_StdPeriph_Driver/src/misc.c ****    
 162:Libraries/STM32F10x_StdPeriph_Driver/src/misc.c ****   SCB->VTOR = NVIC_VectTab | (Offset & (uint32_t)0x1FFFFF80);
 211              		.loc 1 162 0
 212 0080 21F06041 		bic	r1, r1, #-536870912	@ D.6634, Offset,
 213              	.LVL14:
 214 0084 21F07F01 		bic	r1, r1, #127	@ D.6634, D.6634,
 215 0088 014B     		ldr	r3, .L11	@ tmp116,
 216 008a 0843     		orrs	r0, r0, r1	@, D.6634, NVIC_VectTab, D.6634
 217              	.LVL15:
 218 008c 9860     		str	r0, [r3, #8]	@ D.6634, MEM[(struct SCB_Type *)3758157056B].VTOR
 219 008e 7047     		bx	lr	@
 220              	.L12:
 221              		.align	2
 222              	.L11:
 223 0090 00ED00E0 		.word	-536810240
 224              		.cfi_endproc
 225              	.LFE31:
 226              		.size	NVIC_SetVectorTable, .-NVIC_SetVectorTable
ARM GAS  /var/folders/lp/0dm50ddn51vc39svyzv_6fp00000gn/T//ccmLs69f.s 			page 8


 227              		.align	1
 228              		.global	NVIC_SystemLPConfig
 229              		.thumb
 230              		.thumb_func
 231              		.type	NVIC_SystemLPConfig, %function
 232              	NVIC_SystemLPConfig:
 233              	.LFB32:
 163:Libraries/STM32F10x_StdPeriph_Driver/src/misc.c **** }
 164:Libraries/STM32F10x_StdPeriph_Driver/src/misc.c **** 
 165:Libraries/STM32F10x_StdPeriph_Driver/src/misc.c **** /**
 166:Libraries/STM32F10x_StdPeriph_Driver/src/misc.c ****   * @brief  Selects the condition for the system to enter low power mode.
 167:Libraries/STM32F10x_StdPeriph_Driver/src/misc.c ****   * @param  LowPowerMode: Specifies the new mode for the system to enter low power mode.
 168:Libraries/STM32F10x_StdPeriph_Driver/src/misc.c ****   *   This parameter can be one of the following values:
 169:Libraries/STM32F10x_StdPeriph_Driver/src/misc.c ****   *     @arg NVIC_LP_SEVONPEND
 170:Libraries/STM32F10x_StdPeriph_Driver/src/misc.c ****   *     @arg NVIC_LP_SLEEPDEEP
 171:Libraries/STM32F10x_StdPeriph_Driver/src/misc.c ****   *     @arg NVIC_LP_SLEEPONEXIT
 172:Libraries/STM32F10x_StdPeriph_Driver/src/misc.c ****   * @param  NewState: new state of LP condition. This parameter can be: ENABLE or DISABLE.
 173:Libraries/STM32F10x_StdPeriph_Driver/src/misc.c ****   * @retval None
 174:Libraries/STM32F10x_StdPeriph_Driver/src/misc.c ****   */
 175:Libraries/STM32F10x_StdPeriph_Driver/src/misc.c **** void NVIC_SystemLPConfig(uint8_t LowPowerMode, FunctionalState NewState)
 176:Libraries/STM32F10x_StdPeriph_Driver/src/misc.c **** {
 234              		.loc 1 176 0
 235              		.cfi_startproc
 236              		@ args = 0, pretend = 0, frame = 0
 237              		@ frame_needed = 0, uses_anonymous_args = 0
 238              		@ link register save eliminated.
 239              	.LVL16:
 240 0094 044B     		ldr	r3, .L17	@ tmp124,
 177:Libraries/STM32F10x_StdPeriph_Driver/src/misc.c ****   /* Check the parameters */
 178:Libraries/STM32F10x_StdPeriph_Driver/src/misc.c ****   assert_param(IS_NVIC_LP(LowPowerMode));
 179:Libraries/STM32F10x_StdPeriph_Driver/src/misc.c ****   assert_param(IS_FUNCTIONAL_STATE(NewState));  
 180:Libraries/STM32F10x_StdPeriph_Driver/src/misc.c ****   
 181:Libraries/STM32F10x_StdPeriph_Driver/src/misc.c ****   if (NewState != DISABLE)
 182:Libraries/STM32F10x_StdPeriph_Driver/src/misc.c ****   {
 183:Libraries/STM32F10x_StdPeriph_Driver/src/misc.c ****     SCB->SCR |= LowPowerMode;
 241              		.loc 1 183 0
 242 0096 1A69     		ldr	r2, [r3, #16]	@ D.6637,
 181:Libraries/STM32F10x_StdPeriph_Driver/src/misc.c ****   {
 243              		.loc 1 181 0
 244 0098 09B1     		cbz	r1, .L14	@ NewState,
 245              		.loc 1 183 0
 246 009a 1043     		orrs	r0, r0, r2	@, D.6637, LowPowerMode, D.6637
 247              	.LVL17:
 248 009c 01E0     		b	.L16	@
 249              	.LVL18:
 250              	.L14:
 184:Libraries/STM32F10x_StdPeriph_Driver/src/misc.c ****   }
 185:Libraries/STM32F10x_StdPeriph_Driver/src/misc.c ****   else
 186:Libraries/STM32F10x_StdPeriph_Driver/src/misc.c ****   {
 187:Libraries/STM32F10x_StdPeriph_Driver/src/misc.c ****     SCB->SCR &= (uint32_t)(~(uint32_t)LowPowerMode);
 251              		.loc 1 187 0
 252 009e 22EA0000 		bic	r0, r2, r0	@ D.6637, D.6637, LowPowerMode
 253              	.LVL19:
 254              	.L16:
 255 00a2 1861     		str	r0, [r3, #16]	@ D.6637,
 256 00a4 7047     		bx	lr	@
 257              	.L18:
ARM GAS  /var/folders/lp/0dm50ddn51vc39svyzv_6fp00000gn/T//ccmLs69f.s 			page 9


 258 00a6 00BF     		.align	2
 259              	.L17:
 260 00a8 00ED00E0 		.word	-536810240
 261              		.cfi_endproc
 262              	.LFE32:
 263              		.size	NVIC_SystemLPConfig, .-NVIC_SystemLPConfig
 264              		.align	1
 265              		.global	SysTick_CLKSourceConfig
 266              		.thumb
 267              		.thumb_func
 268              		.type	SysTick_CLKSourceConfig, %function
 269              	SysTick_CLKSourceConfig:
 270              	.LFB33:
 188:Libraries/STM32F10x_StdPeriph_Driver/src/misc.c ****   }
 189:Libraries/STM32F10x_StdPeriph_Driver/src/misc.c **** }
 190:Libraries/STM32F10x_StdPeriph_Driver/src/misc.c **** 
 191:Libraries/STM32F10x_StdPeriph_Driver/src/misc.c **** /**
 192:Libraries/STM32F10x_StdPeriph_Driver/src/misc.c ****   * @brief  Configures the SysTick clock source.
 193:Libraries/STM32F10x_StdPeriph_Driver/src/misc.c ****   * @param  SysTick_CLKSource: specifies the SysTick clock source.
 194:Libraries/STM32F10x_StdPeriph_Driver/src/misc.c ****   *   This parameter can be one of the following values:
 195:Libraries/STM32F10x_StdPeriph_Driver/src/misc.c ****   *     @arg SysTick_CLKSource_HCLK_Div8: AHB clock divided by 8 selected as SysTick clock source.
 196:Libraries/STM32F10x_StdPeriph_Driver/src/misc.c ****   *     @arg SysTick_CLKSource_HCLK: AHB clock selected as SysTick clock source.
 197:Libraries/STM32F10x_StdPeriph_Driver/src/misc.c ****   * @retval None
 198:Libraries/STM32F10x_StdPeriph_Driver/src/misc.c ****   */
 199:Libraries/STM32F10x_StdPeriph_Driver/src/misc.c **** void SysTick_CLKSourceConfig(uint32_t SysTick_CLKSource)
 200:Libraries/STM32F10x_StdPeriph_Driver/src/misc.c **** {
 271              		.loc 1 200 0
 272              		.cfi_startproc
 273              		@ args = 0, pretend = 0, frame = 0
 274              		@ frame_needed = 0, uses_anonymous_args = 0
 275              		@ link register save eliminated.
 276              	.LVL20:
 277 00ac 044B     		ldr	r3, .L23	@ tmp119,
 201:Libraries/STM32F10x_StdPeriph_Driver/src/misc.c ****   /* Check the parameters */
 202:Libraries/STM32F10x_StdPeriph_Driver/src/misc.c ****   assert_param(IS_SYSTICK_CLK_SOURCE(SysTick_CLKSource));
 203:Libraries/STM32F10x_StdPeriph_Driver/src/misc.c ****   if (SysTick_CLKSource == SysTick_CLKSource_HCLK)
 278              		.loc 1 203 0
 279 00ae 0428     		cmp	r0, #4	@ SysTick_CLKSource,
 204:Libraries/STM32F10x_StdPeriph_Driver/src/misc.c ****   {
 205:Libraries/STM32F10x_StdPeriph_Driver/src/misc.c ****     SysTick->CTRL |= SysTick_CLKSource_HCLK;
 280              		.loc 1 205 0
 281 00b0 1A68     		ldr	r2, [r3]	@ D.6640,
 282 00b2 0CBF     		ite	eq
 283 00b4 42F00402 		orreq	r2, r2, #4	@ D.6640, D.6640,
 206:Libraries/STM32F10x_StdPeriph_Driver/src/misc.c ****   }
 207:Libraries/STM32F10x_StdPeriph_Driver/src/misc.c ****   else
 208:Libraries/STM32F10x_StdPeriph_Driver/src/misc.c ****   {
 209:Libraries/STM32F10x_StdPeriph_Driver/src/misc.c ****     SysTick->CTRL &= SysTick_CLKSource_HCLK_Div8;
 284              		.loc 1 209 0
 285 00b8 22F00402 		bicne	r2, r2, #4	@ D.6640, D.6640,
 286 00bc 1A60     		str	r2, [r3]	@ D.6640,
 287 00be 7047     		bx	lr	@
 288              	.L24:
 289              		.align	2
 290              	.L23:
 291 00c0 10E000E0 		.word	-536813552
 292              		.cfi_endproc
ARM GAS  /var/folders/lp/0dm50ddn51vc39svyzv_6fp00000gn/T//ccmLs69f.s 			page 10


 293              	.LFE33:
 294              		.size	SysTick_CLKSourceConfig, .-SysTick_CLKSourceConfig
 295              	.Letext0:
 296              		.file 2 "/usr/local/share/gcc-arm-none-eabi-5_4-2016q3/arm-none-eabi/include/machine/_default_type
 297              		.file 3 "/usr/local/share/gcc-arm-none-eabi-5_4-2016q3/arm-none-eabi/include/sys/_stdint.h"
 298              		.file 4 "./Libraries/CMSIS/CM3/CoreSupport/core_cm3.h"
 299              		.file 5 "./Libraries/CMSIS/CM3/DeviceSupport/ST/STM32F10x/stm32f10x.h"
 300              		.file 6 "./Libraries/STM32F10x_StdPeriph_Driver/inc/misc.h"