ARM GAS  /var/folders/lp/0dm50ddn51vc39svyzv_6fp00000gn/T//ccmLs69f.s 			page 1


   1              		.syntax unified
   2              		.cpu cortex-m3
   3              		.fpu softvfp
   4              		.eabi_attribute 20, 1	@ Tag_ABI_FP_denormal
   5              		.eabi_attribute 21, 1	@ Tag_ABI_FP_exceptions
   6              		.eabi_attribute 23, 3	@ Tag_ABI_FP_number_model
   7              		.eabi_attribute 24, 1	@ Tag_ABI_align8_needed
   8              		.eabi_attribute 25, 1	@ Tag_ABI_align8_preserved
   9              		.eabi_attribute 26, 1	@ Tag_ABI_enum_size
  10              		.eabi_attribute 30, 4	@ Tag_ABI_optimization_goals
  11              		.eabi_attribute 34, 1	@ Tag_CPU_unaligned_access
  12              		.eabi_attribute 18, 4	@ Tag_ABI_PCS_wchar_t
  13              		.file	"misc.c"
  14              	@ GNU C11 (GNU Tools for ARM Embedded Processors) version 5.4.1 20160919 (release) [ARM/embedded-5-
  15              	@	compiled by GNU C version 4.2.1 (Based on Apple Inc. build 5658) (LLVM build 2336.9.00), GMP vers
  16              	@ GGC heuristics: --param ggc-min-expand=100 --param ggc-min-heapsize=131072
  17              	@ options passed:  -I . -I ./user -I ./Libraries/CMSIS/CM3/CoreSupport
  18              	@ -I ./Libraries/CMSIS/CM3/DeviceSupport/ST/STM32F10x
  19              	@ -I ./Libraries/STM32F10x_StdPeriph_Driver/inc
  20              	@ -I ./Libraries/STM32F10x_StdPeriph_Driver -imultilib armv7-m
  21              	@ -iprefix /usr/local/share/gcc-arm-none-eabi-5_4-2016q3/bin/../lib/gcc/arm-none-eabi/5.4.1/
  22              	@ -isysroot /usr/local/share/gcc-arm-none-eabi-5_4-2016q3/bin/../arm-none-eabi
  23              	@ -D__USES_INITFINI__ -D STM32F10X_MD_VL -D USE_STDPERIPH_DRIVER
  24              	@ -D HSE_VALUE=8000000 -D RUN_FROM_FLASH=1
  25              	@ Libraries/STM32F10x_StdPeriph_Driver/src/misc.c -mcpu=cortex-m3 -mthumb
  26              	@ -auxbase-strip Libraries/STM32F10x_StdPeriph_Driver/src/misc.o -g
  27              	@ -gdwarf-2 -Os -Wall -fomit-frame-pointer -fverbose-asm
  28              	@ options enabled:  -faggressive-loop-optimizations -falign-functions
  29              	@ -falign-jumps -falign-labels -falign-loops -fauto-inc-dec
  30              	@ -fbranch-count-reg -fcaller-saves -fchkp-check-incomplete-type
  31              	@ -fchkp-check-read -fchkp-check-write -fchkp-instrument-calls
  32              	@ -fchkp-narrow-bounds -fchkp-optimize -fchkp-store-bounds
  33              	@ -fchkp-use-static-bounds -fchkp-use-static-const-bounds
  34              	@ -fchkp-use-wrappers -fcombine-stack-adjustments -fcommon -fcompare-elim
  35              	@ -fcprop-registers -fcrossjumping -fcse-follow-jumps -fdefer-pop
  36              	@ -fdelete-null-pointer-checks -fdevirtualize -fdevirtualize-speculatively
  37              	@ -fdwarf2-cfi-asm -fearly-inlining -feliminate-unused-debug-types
  38              	@ -fexpensive-optimizations -fforward-propagate -ffunction-cse -fgcse
  39              	@ -fgcse-lm -fgnu-runtime -fgnu-unique -fguess-branch-probability
  40              	@ -fhoist-adjacent-loads -fident -fif-conversion -fif-conversion2
  41              	@ -findirect-inlining -finline -finline-atomics -finline-functions
  42              	@ -finline-functions-called-once -finline-small-functions -fipa-cp
  43              	@ -fipa-cp-alignment -fipa-icf -fipa-icf-functions -fipa-icf-variables
  44              	@ -fipa-profile -fipa-pure-const -fipa-ra -fipa-reference -fipa-sra
  45              	@ -fira-hoist-pressure -fira-share-save-slots -fira-share-spill-slots
  46              	@ -fisolate-erroneous-paths-dereference -fivopts -fkeep-static-consts
  47              	@ -fleading-underscore -flifetime-dse -flra-remat -flto-odr-type-merging
  48              	@ -fmath-errno -fmerge-constants -fmerge-debug-strings
  49              	@ -fmove-loop-invariants -fomit-frame-pointer -foptimize-sibling-calls
  50              	@ -fpartial-inlining -fpeephole -fpeephole2 -fprefetch-loop-arrays
  51              	@ -freg-struct-return -freorder-blocks -freorder-functions
  52              	@ -frerun-cse-after-loop -fsched-critical-path-heuristic
  53              	@ -fsched-dep-count-heuristic -fsched-group-heuristic -fsched-interblock
  54              	@ -fsched-last-insn-heuristic -fsched-pressure -fsched-rank-heuristic
  55              	@ -fsched-spec -fsched-spec-insn-heuristic -fsched-stalled-insns-dep
  56              	@ -fschedule-insns2 -fsection-anchors -fsemantic-interposition
  57              	@ -fshow-column -fsigned-zeros -fsplit-ivs-in-unroller -fsplit-wide-types
ARM GAS  /var/folders/lp/0dm50ddn51vc39svyzv_6fp00000gn/T//ccmLs69f.s 			page 2


  58              	@ -fssa-phiopt -fstdarg-opt -fstrict-aliasing -fstrict-overflow
  59              	@ -fstrict-volatile-bitfields -fsync-libcalls -fthread-jumps
  60              	@ -ftoplevel-reorder -ftrapping-math -ftree-bit-ccp -ftree-builtin-call-dce
  61              	@ -ftree-ccp -ftree-ch -ftree-coalesce-vars -ftree-copy-prop
  62              	@ -ftree-copyrename -ftree-cselim -ftree-dce -ftree-dominator-opts
  63              	@ -ftree-dse -ftree-forwprop -ftree-fre -ftree-loop-if-convert
  64              	@ -ftree-loop-im -ftree-loop-ivcanon -ftree-loop-optimize
  65              	@ -ftree-parallelize-loops= -ftree-phiprop -ftree-pre -ftree-pta
  66              	@ -ftree-reassoc -ftree-scev-cprop -ftree-sink -ftree-slsr -ftree-sra
  67              	@ -ftree-switch-conversion -ftree-tail-merge -ftree-ter -ftree-vrp
  68              	@ -funit-at-a-time -fvar-tracking -fvar-tracking-assignments -fverbose-asm
  69              	@ -fzero-initialized-in-bss -masm-syntax-unified -mfix-cortex-m3-ldrd
  70              	@ -mlittle-endian -mpic-data-is-text-relative -msched-prolog -mthumb
  71              	@ -munaligned-access -mvectorize-with-neon-quad
  72              	
  73              		.text
  74              	.Ltext0:
  75              		.cfi_sections	.debug_frame
  76              		.align	1
  77              		.global	NVIC_PriorityGroupConfig
  78              		.thumb
  79              		.thumb_func
  80              		.type	NVIC_PriorityGroupConfig, %function
  81              	NVIC_PriorityGroupConfig:
  82              	.LFB29:
  83              		.file 1 "Libraries/STM32F10x_StdPeriph_Driver/src/misc.c"
   1:Libraries/STM32F10x_StdPeriph_Driver/src/misc.c **** /**
   2:Libraries/STM32F10x_StdPeriph_Driver/src/misc.c ****   ******************************************************************************
   3:Libraries/STM32F10x_StdPeriph_Driver/src/misc.c ****   * @file    misc.c
   4:Libraries/STM32F10x_StdPeriph_Driver/src/misc.c ****   * @author  MCD Application Team
   5:Libraries/STM32F10x_StdPeriph_Driver/src/misc.c ****   * @version V3.5.0
   6:Libraries/STM32F10x_StdPeriph_Driver/src/misc.c ****   * @date    11-March-2011
   7:Libraries/STM32F10x_StdPeriph_Driver/src/misc.c ****   * @brief   This file provides all the miscellaneous firmware functions (add-on
   8:Libraries/STM32F10x_StdPeriph_Driver/src/misc.c ****   *          to CMSIS functions).
   9:Libraries/STM32F10x_StdPeriph_Driver/src/misc.c ****   ******************************************************************************
  10:Libraries/STM32F10x_StdPeriph_Driver/src/misc.c ****   * @attention
  11:Libraries/STM32F10x_StdPeriph_Driver/src/misc.c ****   *
  12:Libraries/STM32F10x_StdPeriph_Driver/src/misc.c ****   * THE PRESENT FIRMWARE WHICH IS FOR GUIDANCE ONLY AIMS AT PROVIDING CUSTOMERS
  13:Libraries/STM32F10x_StdPeriph_Driver/src/misc.c ****   * WITH CODING INFORMATION REGARDING THEIR PRODUCTS IN ORDER FOR THEM TO SAVE
  14:Libraries/STM32F10x_StdPeriph_Driver/src/misc.c ****   * TIME. AS A RESULT, STMICROELECTRONICS SHALL NOT BE HELD LIABLE FOR ANY
  15:Libraries/STM32F10x_StdPeriph_Driver/src/misc.c ****   * DIRECT, INDIRECT OR CONSEQUENTIAL DAMAGES WITH RESPECT TO ANY CLAIMS ARISING
  16:Libraries/STM32F10x_StdPeriph_Driver/src/misc.c ****   * FROM THE CONTENT OF SUCH FIRMWARE AND/OR THE USE MADE BY CUSTOMERS OF THE
  17:Libraries/STM32F10x_StdPeriph_Driver/src/misc.c ****   * CODING INFORMATION CONTAINED HEREIN IN CONNECTION WITH THEIR PRODUCTS.
  18:Libraries/STM32F10x_StdPeriph_Driver/src/misc.c ****   *
  19:Libraries/STM32F10x_StdPeriph_Driver/src/misc.c ****   * <h2><center>&copy; COPYRIGHT 2011 STMicroelectronics</center></h2>
  20:Libraries/STM32F10x_StdPeriph_Driver/src/misc.c ****   ******************************************************************************
  21:Libraries/STM32F10x_StdPeriph_Driver/src/misc.c ****   */
  22:Libraries/STM32F10x_StdPeriph_Driver/src/misc.c **** 
  23:Libraries/STM32F10x_StdPeriph_Driver/src/misc.c **** /* Includes ------------------------------------------------------------------*/
  24:Libraries/STM32F10x_StdPeriph_Driver/src/misc.c **** #include "misc.h"
  25:Libraries/STM32F10x_StdPeriph_Driver/src/misc.c **** 
  26:Libraries/STM32F10x_StdPeriph_Driver/src/misc.c **** /** @addtogroup STM32F10x_StdPeriph_Driver
  27:Libraries/STM32F10x_StdPeriph_Driver/src/misc.c ****   * @{
  28:Libraries/STM32F10x_StdPeriph_Driver/src/misc.c ****   */
  29:Libraries/STM32F10x_StdPeriph_Driver/src/misc.c **** 
  30:Libraries/STM32F10x_StdPeriph_Driver/src/misc.c **** /** @defgroup MISC 
  31:Libraries/STM32F10x_StdPeriph_Driver/src/misc.c ****   * @brief MISC driver modules
ARM GAS  /var/folders/lp/0dm50ddn51vc39svyzv_6fp00000gn/T//ccmLs69f.s 			page 3


  32:Libraries/STM32F10x_StdPeriph_Driver/src/misc.c ****   * @{
  33:Libraries/STM32F10x_StdPeriph_Driver/src/misc.c ****   */
  34:Libraries/STM32F10x_StdPeriph_Driver/src/misc.c **** 
  35:Libraries/STM32F10x_StdPeriph_Driver/src/misc.c **** /** @defgroup MISC_Private_TypesDefinitions
  36:Libraries/STM32F10x_StdPeriph_Driver/src/misc.c ****   * @{
  37:Libraries/STM32F10x_StdPeriph_Driver/src/misc.c ****   */
  38:Libraries/STM32F10x_StdPeriph_Driver/src/misc.c **** 
  39:Libraries/STM32F10x_StdPeriph_Driver/src/misc.c **** /**
  40:Libraries/STM32F10x_StdPeriph_Driver/src/misc.c ****   * @}
  41:Libraries/STM32F10x_StdPeriph_Driver/src/misc.c ****   */ 
  42:Libraries/STM32F10x_StdPeriph_Driver/src/misc.c **** 
  43:Libraries/STM32F10x_StdPeriph_Driver/src/misc.c **** /** @defgroup MISC_Private_Defines
  44:Libraries/STM32F10x_StdPeriph_Driver/src/misc.c ****   * @{
  45:Libraries/STM32F10x_StdPeriph_Driver/src/misc.c ****   */
  46:Libraries/STM32F10x_StdPeriph_Driver/src/misc.c **** 
  47:Libraries/STM32F10x_StdPeriph_Driver/src/misc.c **** #define AIRCR_VECTKEY_MASK    ((uint32_t)0x05FA0000)
  48:Libraries/STM32F10x_StdPeriph_Driver/src/misc.c **** /**
  49:Libraries/STM32F10x_StdPeriph_Driver/src/misc.c ****   * @}
  50:Libraries/STM32F10x_StdPeriph_Driver/src/misc.c ****   */
  51:Libraries/STM32F10x_StdPeriph_Driver/src/misc.c **** 
  52:Libraries/STM32F10x_StdPeriph_Driver/src/misc.c **** /** @defgroup MISC_Private_Macros
  53:Libraries/STM32F10x_StdPeriph_Driver/src/misc.c ****   * @{
  54:Libraries/STM32F10x_StdPeriph_Driver/src/misc.c ****   */
  55:Libraries/STM32F10x_StdPeriph_Driver/src/misc.c **** 
  56:Libraries/STM32F10x_StdPeriph_Driver/src/misc.c **** /**
  57:Libraries/STM32F10x_StdPeriph_Driver/src/misc.c ****   * @}
  58:Libraries/STM32F10x_StdPeriph_Driver/src/misc.c ****   */
  59:Libraries/STM32F10x_StdPeriph_Driver/src/misc.c **** 
  60:Libraries/STM32F10x_StdPeriph_Driver/src/misc.c **** /** @defgroup MISC_Private_Variables
  61:Libraries/STM32F10x_StdPeriph_Driver/src/misc.c ****   * @{
  62:Libraries/STM32F10x_StdPeriph_Driver/src/misc.c ****   */
  63:Libraries/STM32F10x_StdPeriph_Driver/src/misc.c **** 
  64:Libraries/STM32F10x_StdPeriph_Driver/src/misc.c **** /**
  65:Libraries/STM32F10x_StdPeriph_Driver/src/misc.c ****   * @}
  66:Libraries/STM32F10x_StdPeriph_Driver/src/misc.c ****   */
  67:Libraries/STM32F10x_StdPeriph_Driver/src/misc.c **** 
  68:Libraries/STM32F10x_StdPeriph_Driver/src/misc.c **** /** @defgroup MISC_Private_FunctionPrototypes
  69:Libraries/STM32F10x_StdPeriph_Driver/src/misc.c ****   * @{
  70:Libraries/STM32F10x_StdPeriph_Driver/src/misc.c ****   */
  71:Libraries/STM32F10x_StdPeriph_Driver/src/misc.c **** 
  72:Libraries/STM32F10x_StdPeriph_Driver/src/misc.c **** /**
  73:Libraries/STM32F10x_StdPeriph_Driver/src/misc.c ****   * @}
  74:Libraries/STM32F10x_StdPeriph_Driver/src/misc.c ****   */
  75:Libraries/STM32F10x_StdPeriph_Driver/src/misc.c **** 
  76:Libraries/STM32F10x_StdPeriph_Driver/src/misc.c **** /** @defgroup MISC_Private_Functions
  77:Libraries/STM32F10x_StdPeriph_Driver/src/misc.c ****   * @{
  78:Libraries/STM32F10x_StdPeriph_Driver/src/misc.c ****   */
  79:Libraries/STM32F10x_StdPeriph_Driver/src/misc.c **** 
  80:Libraries/STM32F10x_StdPeriph_Driver/src/misc.c **** /**
  81:Libraries/STM32F10x_StdPeriph_Driver/src/misc.c ****   * @brief  Configures the priority grouping: pre-emption priority and subpriority.
  82:Libraries/STM32F10x_StdPeriph_Driver/src/misc.c ****   * @param  NVIC_PriorityGroup: specifies the priority grouping bits length. 
  83:Libraries/STM32F10x_StdPeriph_Driver/src/misc.c ****   *   This parameter can be one of the following values:
  84:Libraries/STM32F10x_StdPeriph_Driver/src/misc.c ****   *     @arg NVIC_PriorityGroup_0: 0 bits for pre-emption priority
  85:Libraries/STM32F10x_StdPeriph_Driver/src/misc.c ****   *                                4 bits for subpriority
  86:Libraries/STM32F10x_StdPeriph_Driver/src/misc.c ****   *     @arg NVIC_PriorityGroup_1: 1 bits for pre-emption priority
  87:Libraries/STM32F10x_StdPeriph_Driver/src/misc.c ****   *                                3 bits for subpriority
  88:Libraries/STM32F10x_StdPeriph_Driver/src/misc.c ****   *     @arg NVIC_PriorityGroup_2: 2 bits for pre-emption priority
ARM GAS  /var/folders/lp/0dm50ddn51vc39svyzv_6fp00000gn/T//ccmLs69f.s 			page 4


  89:Libraries/STM32F10x_StdPeriph_Driver/src/misc.c ****   *                                2 bits for subpriority
  90:Libraries/STM32F10x_StdPeriph_Driver/src/misc.c ****   *     @arg NVIC_PriorityGroup_3: 3 bits for pre-emption priority
  91:Libraries/STM32F10x_StdPeriph_Driver/src/misc.c ****   *                                1 bits for subpriority
  92:Libraries/STM32F10x_StdPeriph_Driver/src/misc.c ****   *     @arg NVIC_PriorityGroup_4: 4 bits for pre-emption priority
  93:Libraries/STM32F10x_StdPeriph_Driver/src/misc.c ****   *                                0 bits for subpriority
  94:Libraries/STM32F10x_StdPeriph_Driver/src/misc.c ****   * @retval None
  95:Libraries/STM32F10x_StdPeriph_Driver/src/misc.c ****   */
  96:Libraries/STM32F10x_StdPeriph_Driver/src/misc.c **** void NVIC_PriorityGroupConfig(uint32_t NVIC_PriorityGroup)
  97:Libraries/STM32F10x_StdPeriph_Driver/src/misc.c **** {
  84              		.loc 1 97 0
  85              		.cfi_startproc
  86              		@ args = 0, pretend = 0, frame = 0
  87              		@ frame_needed = 0, uses_anonymous_args = 0
  88              		@ link register save eliminated.
  89              	.LVL0:
  98:Libraries/STM32F10x_StdPeriph_Driver/src/misc.c ****   /* Check the parameters */
  99:Libraries/STM32F10x_StdPeriph_Driver/src/misc.c ****   assert_param(IS_NVIC_PRIORITY_GROUP(NVIC_PriorityGroup));
 100:Libraries/STM32F10x_StdPeriph_Driver/src/misc.c ****   
 101:Libraries/STM32F10x_StdPeriph_Driver/src/misc.c ****   /* Set the PRIGROUP[10:8] bits according to NVIC_PriorityGroup value */
 102:Libraries/STM32F10x_StdPeriph_Driver/src/misc.c ****   SCB->AIRCR = AIRCR_VECTKEY_MASK | NVIC_PriorityGroup;
  90              		.loc 1 102 0
  91 0000 40F0BF60 		orr	r0, r0, #100139008	@ D.6625, NVIC_PriorityGroup,
  92              	.LVL1:
  93 0004 024B     		ldr	r3, .L2	@ tmp113,
  94 0006 40F40030 		orr	r0, r0, #131072	@ D.6625, D.6625,
  95 000a D860     		str	r0, [r3, #12]	@ D.6625, MEM[(struct SCB_Type *)3758157056B].AIRCR
  96 000c 7047     		bx	lr	@
  97              	.L3:
  98 000e 00BF     		.align	2
  99              	.L2:
 100 0010 00ED00E0 		.word	-536810240
 101              		.cfi_endproc
 102              	.LFE29:
 103              		.size	NVIC_PriorityGroupConfig, .-NVIC_PriorityGroupConfig
 104              		.align	1
 105              		.global	NVIC_Init
 106              		.thumb
 107              		.thumb_func
 108              		.type	NVIC_Init, %function
 109              	NVIC_Init:
 110              	.LFB30:
 103:Libraries/STM32F10x_StdPeriph_Driver/src/misc.c **** }
 104:Libraries/STM32F10x_StdPeriph_Driver/src/misc.c **** 
 105:Libraries/STM32F10x_StdPeriph_Driver/src/misc.c **** /**
 106:Libraries/STM32F10x_StdPeriph_Driver/src/misc.c ****   * @brief  Initializes the NVIC peripheral according to the specified
 107:Libraries/STM32F10x_StdPeriph_Driver/src/misc.c ****   *         parameters in the NVIC_InitStruct.
 108:Libraries/STM32F10x_StdPeriph_Driver/src/misc.c ****   * @param  NVIC_InitStruct: pointer to a NVIC_InitTypeDef structure that contains
 109:Libraries/STM32F10x_StdPeriph_Driver/src/misc.c ****   *         the configuration information for the specified NVIC peripheral.
 110:Libraries/STM32F10x_StdPeriph_Driver/src/misc.c ****   * @retval None
 111:Libraries/STM32F10x_StdPeriph_Driver/src/misc.c ****   */
 112:Libraries/STM32F10x_StdPeriph_Driver/src/misc.c **** void NVIC_Init(NVIC_InitTypeDef* NVIC_InitStruct)
 113:Libraries/STM32F10x_StdPeriph_Driver/src/misc.c **** {
 111              		.loc 1 113 0
 112              		.cfi_startproc
 113              		@ args = 0, pretend = 0, frame = 0
 114              		@ frame_needed = 0, uses_anonymous_args = 0
 115              	.LVL2:
ARM GAS  /var/folders/lp/0dm50ddn51vc39svyzv_6fp00000gn/T//ccmLs69f.s 			page 5


 114:Libraries/STM32F10x_StdPeriph_Driver/src/misc.c ****   uint32_t tmppriority = 0x00, tmppre = 0x00, tmpsub = 0x0F;
 115:Libraries/STM32F10x_StdPeriph_Driver/src/misc.c ****   
 116:Libraries/STM32F10x_StdPeriph_Driver/src/misc.c ****   /* Check the parameters */
 117:Libraries/STM32F10x_StdPeriph_Driver/src/misc.c ****   assert_param(IS_FUNCTIONAL_STATE(NVIC_InitStruct->NVIC_IRQChannelCmd));
 118:Libraries/STM32F10x_StdPeriph_Driver/src/misc.c ****   assert_param(IS_NVIC_PREEMPTION_PRIORITY(NVIC_InitStruct->NVIC_IRQChannelPreemptionPriority));  
 119:Libraries/STM32F10x_StdPeriph_Driver/src/misc.c ****   assert_param(IS_NVIC_SUB_PRIORITY(NVIC_InitStruct->NVIC_IRQChannelSubPriority));
 120:Libraries/STM32F10x_StdPeriph_Driver/src/misc.c ****     
 121:Libraries/STM32F10x_StdPeriph_Driver/src/misc.c ****   if (NVIC_InitStruct->NVIC_IRQChannelCmd != DISABLE)
 116              		.loc 1 121 0
 117 0014 C278     		ldrb	r2, [r0, #3]	@ zero_extendqisi2	@ NVIC_InitStruct_6(D)->NVIC_IRQChannelCmd, NVIC_InitStruct_6
 113:Libraries/STM32F10x_StdPeriph_Driver/src/misc.c ****   uint32_t tmppriority = 0x00, tmppre = 0x00, tmpsub = 0x0F;
 118              		.loc 1 113 0
 119 0016 10B5     		push	{r4, lr}	@
 120              	.LCFI0:
 121              		.cfi_def_cfa_offset 8
 122              		.cfi_offset 4, -8
 123              		.cfi_offset 14, -4
 124 0018 0378     		ldrb	r3, [r0]	@ zero_extendqisi2	@ D.6629, NVIC_InitStruct_6(D)->NVIC_IRQChannel
 125              		.loc 1 121 0
 126 001a 0AB3     		cbz	r2, .L5	@ NVIC_InitStruct_6(D)->NVIC_IRQChannelCmd,
 122:Libraries/STM32F10x_StdPeriph_Driver/src/misc.c ****   {
 123:Libraries/STM32F10x_StdPeriph_Driver/src/misc.c ****     /* Compute the Corresponding IRQ Priority --------------------------------*/    
 124:Libraries/STM32F10x_StdPeriph_Driver/src/misc.c ****     tmppriority = (0x700 - ((SCB->AIRCR) & (uint32_t)0x700))>> 0x08;
 127              		.loc 1 124 0
 128 001c 164A     		ldr	r2, .L8	@ tmp142,
 125:Libraries/STM32F10x_StdPeriph_Driver/src/misc.c ****     tmppre = (0x4 - tmppriority);
 126:Libraries/STM32F10x_StdPeriph_Driver/src/misc.c ****     tmpsub = tmpsub >> tmppriority;
 127:Libraries/STM32F10x_StdPeriph_Driver/src/misc.c **** 
 128:Libraries/STM32F10x_StdPeriph_Driver/src/misc.c ****     tmppriority = (uint32_t)NVIC_InitStruct->NVIC_IRQChannelPreemptionPriority << tmppre;
 129:Libraries/STM32F10x_StdPeriph_Driver/src/misc.c ****     tmppriority |=  NVIC_InitStruct->NVIC_IRQChannelSubPriority & tmpsub;
 130:Libraries/STM32F10x_StdPeriph_Driver/src/misc.c ****     tmppriority = tmppriority << 0x04;
 131:Libraries/STM32F10x_StdPeriph_Driver/src/misc.c ****         
 132:Libraries/STM32F10x_StdPeriph_Driver/src/misc.c ****     NVIC->IP[NVIC_InitStruct->NVIC_IRQChannel] = tmppriority;
 129              		.loc 1 132 0
 130 001e 03F16043 		add	r3, r3, #-536870912	@ tmp151, D.6629,
 124:Libraries/STM32F10x_StdPeriph_Driver/src/misc.c ****     tmppre = (0x4 - tmppriority);
 131              		.loc 1 124 0
 132 0022 D168     		ldr	r1, [r2, #12]	@ D.6628, MEM[(struct SCB_Type *)3758157056B].AIRCR
 128:Libraries/STM32F10x_StdPeriph_Driver/src/misc.c ****     tmppriority |=  NVIC_InitStruct->NVIC_IRQChannelSubPriority & tmpsub;
 133              		.loc 1 128 0
 134 0024 4278     		ldrb	r2, [r0, #1]	@ zero_extendqisi2	@ D.6628, NVIC_InitStruct_6(D)->NVIC_IRQChannelPreemptionPrio
 124:Libraries/STM32F10x_StdPeriph_Driver/src/misc.c ****     tmppre = (0x4 - tmppriority);
 135              		.loc 1 124 0
 136 0026 C943     		mvns	r1, r1	@ D.6628, D.6628
 137 0028 C1F30221 		ubfx	r1, r1, #8, #3	@ tmppriority, D.6628,,
 138              	.LVL3:
 125:Libraries/STM32F10x_StdPeriph_Driver/src/misc.c ****     tmppre = (0x4 - tmppriority);
 139              		.loc 1 125 0
 140 002c C1F10404 		rsb	r4, r1, #4	@ tmppre, tmppriority,
 141              	.LVL4:
 128:Libraries/STM32F10x_StdPeriph_Driver/src/misc.c ****     tmppriority |=  NVIC_InitStruct->NVIC_IRQChannelSubPriority & tmpsub;
 142              		.loc 1 128 0
 143 0030 02FA04F4 		lsl	r4, r2, r4	@ tmppriority, D.6628, tmppre
 144              	.LVL5:
 129:Libraries/STM32F10x_StdPeriph_Driver/src/misc.c ****     tmppriority = tmppriority << 0x04;
 145              		.loc 1 129 0
 146 0034 0F22     		movs	r2, #15	@ tmp147,
ARM GAS  /var/folders/lp/0dm50ddn51vc39svyzv_6fp00000gn/T//ccmLs69f.s 			page 6


 147 0036 CA40     		lsrs	r2, r2, r1	@ tmpsub, tmp147, tmppriority
 148              	.LVL6:
 149 0038 8178     		ldrb	r1, [r0, #2]	@ zero_extendqisi2	@ D.6628, NVIC_InitStruct_6(D)->NVIC_IRQChannelSubPriority
 150              	.LVL7:
 151              		.loc 1 132 0
 152 003a 03F56143 		add	r3, r3, #57600	@ tmp151, tmp151,
 129:Libraries/STM32F10x_StdPeriph_Driver/src/misc.c ****     tmppriority = tmppriority << 0x04;
 153              		.loc 1 129 0
 154 003e 0A40     		ands	r2, r2, r1	@, D.6628, tmpsub, D.6628
 155              	.LVL8:
 156 0040 2243     		orrs	r2, r2, r4	@, tmppriority, D.6628, tmppriority
 157              	.LVL9:
 158              		.loc 1 132 0
 159 0042 1201     		lsls	r2, r2, #4	@ tmppriority, tmppriority,
 160              	.LVL10:
 161 0044 D2B2     		uxtb	r2, r2	@ D.6629, tmppriority
 162              	.LVL11:
 163 0046 83F80023 		strb	r2, [r3, #768]	@ D.6629, MEM[(struct NVIC_Type *)3758153984B].IP
 133:Libraries/STM32F10x_StdPeriph_Driver/src/misc.c ****     
 134:Libraries/STM32F10x_StdPeriph_Driver/src/misc.c ****     /* Enable the Selected IRQ Channels --------------------------------------*/
 135:Libraries/STM32F10x_StdPeriph_Driver/src/misc.c ****     NVIC->ISER[NVIC_InitStruct->NVIC_IRQChannel >> 0x05] =
 164              		.loc 1 135 0
 165 004a 0378     		ldrb	r3, [r0]	@ zero_extendqisi2	@ D.6629, NVIC_InitStruct_6(D)->NVIC_IRQChannel
 136:Libraries/STM32F10x_StdPeriph_Driver/src/misc.c ****       (uint32_t)0x01 << (NVIC_InitStruct->NVIC_IRQChannel & (uint8_t)0x1F);
 166              		.loc 1 136 0
 167 004c 0122     		movs	r2, #1	@ tmp156,
 135:Libraries/STM32F10x_StdPeriph_Driver/src/misc.c ****       (uint32_t)0x01 << (NVIC_InitStruct->NVIC_IRQChannel & (uint8_t)0x1F);
 168              		.loc 1 135 0
 169 004e 5909     		lsrs	r1, r3, #5	@ D.6631, D.6629,
 170              		.loc 1 136 0
 171 0050 03F01F03 		and	r3, r3, #31	@ D.6631, D.6629,
 172 0054 02FA03F3 		lsl	r3, r2, r3	@ D.6628, tmp156, D.6631
 135:Libraries/STM32F10x_StdPeriph_Driver/src/misc.c ****       (uint32_t)0x01 << (NVIC_InitStruct->NVIC_IRQChannel & (uint8_t)0x1F);
 173              		.loc 1 135 0
 174 0058 084A     		ldr	r2, .L8+4	@ tmp150,
 175 005a 42F82130 		str	r3, [r2, r1, lsl #2]	@ D.6628, MEM[(struct NVIC_Type *)3758153984B].ISER
 176 005e 10BD     		pop	{r4, pc}	@
 177              	.LVL12:
 178              	.L5:
 137:Libraries/STM32F10x_StdPeriph_Driver/src/misc.c ****   }
 138:Libraries/STM32F10x_StdPeriph_Driver/src/misc.c ****   else
 139:Libraries/STM32F10x_StdPeriph_Driver/src/misc.c ****   {
 140:Libraries/STM32F10x_StdPeriph_Driver/src/misc.c ****     /* Disable the Selected IRQ Channels -------------------------------------*/
 141:Libraries/STM32F10x_StdPeriph_Driver/src/misc.c ****     NVIC->ICER[NVIC_InitStruct->NVIC_IRQChannel >> 0x05] =
 179              		.loc 1 141 0
 180 0060 5A09     		lsrs	r2, r3, #5	@ D.6631, D.6629,
 142:Libraries/STM32F10x_StdPeriph_Driver/src/misc.c ****       (uint32_t)0x01 << (NVIC_InitStruct->NVIC_IRQChannel & (uint8_t)0x1F);
 181              		.loc 1 142 0
 182 0062 0121     		movs	r1, #1	@ tmp161,
 183 0064 03F01F03 		and	r3, r3, #31	@ D.6631, D.6629,
 184 0068 01FA03F3 		lsl	r3, r1, r3	@ D.6628, tmp161, D.6631
 141:Libraries/STM32F10x_StdPeriph_Driver/src/misc.c ****       (uint32_t)0x01 << (NVIC_InitStruct->NVIC_IRQChannel & (uint8_t)0x1F);
 185              		.loc 1 141 0
 186 006c 0349     		ldr	r1, .L8+4	@ tmp162,
 187 006e 2032     		adds	r2, r2, #32	@ tmp163, D.6631,
 188 0070 41F82230 		str	r3, [r1, r2, lsl #2]	@ D.6628, MEM[(struct NVIC_Type *)3758153984B].ICER
 189 0074 10BD     		pop	{r4, pc}	@
ARM GAS  /var/folders/lp/0dm50ddn51vc39svyzv_6fp00000gn/T//ccmLs69f.s 			page 7


 190              	.L9:
 191 0076 00BF     		.align	2
 192              	.L8:
 193 0078 00ED00E0 		.word	-536810240
 194 007c 00E100E0 		.word	-536813312
 195              		.cfi_endproc
 196              	.LFE30:
 197              		.size	NVIC_Init, .-NVIC_Init
 198              		.align	1
 199              		.global	NVIC_SetVectorTable
 200              		.thumb
 201              		.thumb_func
 202              		.type	NVIC_SetVectorTable, %function
 203              	NVIC_SetVectorTable:
 204              	.LFB31:
 143:Libraries/STM32F10x_StdPeriph_Driver/src/misc.c ****   }
 144:Libraries/STM32F10x_StdPeriph_Driver/src/misc.c **** }
 145:Libraries/STM32F10x_StdPeriph_Driver/src/misc.c **** 
 146:Libraries/STM32F10x_StdPeriph_Driver/src/misc.c **** /**
 147:Libraries/STM32F10x_StdPeriph_Driver/src/misc.c ****   * @brief  Sets the vector table location and Offset.
 148:Libraries/STM32F10x_StdPeriph_Driver/src/misc.c ****   * @param  NVIC_VectTab: specifies if the vector table is in RAM or FLASH memory.
 149:Libraries/STM32F10x_StdPeriph_Driver/src/misc.c ****   *   This parameter can be one of the following values:
 150:Libraries/STM32F10x_StdPeriph_Driver/src/misc.c ****   *     @arg NVIC_VectTab_RAM
 151:Libraries/STM32F10x_StdPeriph_Driver/src/misc.c ****   *     @arg NVIC_VectTab_FLASH
 152:Libraries/STM32F10x_StdPeriph_Driver/src/misc.c ****   * @param  Offset: Vector Table base offset field. This value must be a multiple 
 153:Libraries/STM32F10x_StdPeriph_Driver/src/misc.c ****   *         of 0x200.
 154:Libraries/STM32F10x_StdPeriph_Driver/src/misc.c ****   * @retval None
 155:Libraries/STM32F10x_StdPeriph_Driver/src/misc.c ****   */
 156:Libraries/STM32F10x_StdPeriph_Driver/src/misc.c **** void NVIC_SetVectorTable(uint32_t NVIC_VectTab, uint32_t Offset)
 157:Libraries/STM32F10x_StdPeriph_Driver/src/misc.c **** { 
 205              		.loc 1 157 0
 206              		.cfi_startproc
 207              		@ args = 0, pretend = 0, frame = 0
 208              		@ frame_needed = 0, uses_anonymous_args = 0
 209              		@ link register save eliminated.
 210              	.LVL13:
 158:Libraries/STM32F10x_StdPeriph_Driver/src/misc.c ****   /* Check the parameters */
 159:Libraries/STM32F10x_StdPeriph_Driver/src/misc.c ****   assert_param(IS_NVIC_VECTTAB(NVIC_VectTab));
 160:Libraries/STM32F10x_StdPeriph_Driver/src/misc.c ****   assert_param(IS_NVIC_OFFSET(Offset));  
 161:Libraries/STM32F10x_StdPeriph_Driver/src/misc.c ****    
 162:Libraries/STM32F10x_StdPeriph_Driver/src/misc.c ****   SCB->VTOR = NVIC_VectTab | (Offset & (uint32_t)0x1FFFFF80);
 211              		.loc 1 162 0
 212 0080 21F06041 		bic	r1, r1, #-536870912	@ D.6634, Offset,
 213              	.LVL14:
 214 0084 21F07F01 		bic	r1, r1, #127	@ D.6634, D.6634,
 215 0088 014B     		ldr	r3, .L11	@ tmp116,
 216 008a 0843     		orrs	r0, r0, r1	@, D.6634, NVIC_VectTab, D.6634
 217              	.LVL15:
 218 008c 9860     		str	r0, [r3, #8]	@ D.6634, MEM[(struct SCB_Type *)3758157056B].VTOR
 219 008e 7047     		bx	lr	@
 220              	.L12:
 221              		.align	2
 222              	.L11:
 223 0090 00ED00E0 		.word	-536810240
 224              		.cfi_endproc
 225              	.LFE31:
 226              		.size	NVIC_SetVectorTable, .-NVIC_SetVectorTable
ARM GAS  /var/folders/lp/0dm50ddn51vc39svyzv_6fp00000gn/T//ccmLs69f.s 			page 8


 227              		.align	1
 228              		.global	NVIC_SystemLPConfig
 229              		.thumb
 230              		.thumb_func
 231              		.type	NVIC_SystemLPConfig, %function
 232              	NVIC_SystemLPConfig:
 233              	.LFB32:
 163:Libraries/STM32F10x_StdPeriph_Driver/src/misc.c **** }
 164:Libraries/STM32F10x_StdPeriph_Driver/src/misc.c **** 
 165:Libraries/STM32F10x_StdPeriph_Driver/src/misc.c **** /**
 166:Libraries/STM32F10x_StdPeriph_Driver/src/misc.c ****   * @brief  Selects the condition for the system to enter low power mode.
 167:Libraries/STM32F10x_StdPeriph_Driver/src/misc.c ****   * @param  LowPowerMode: Specifies the new mode for the system to enter low power mode.
 168:Libraries/STM32F10x_StdPeriph_Driver/src/misc.c ****   *   This parameter can be one of the following values:
 169:Libraries/STM32F10x_StdPeriph_Driver/src/misc.c ****   *     @arg NVIC_LP_SEVONPEND
 170:Libraries/STM32F10x_StdPeriph_Driver/src/misc.c ****   *     @arg NVIC_LP_SLEEPDEEP
 171:Libraries/STM32F10x_StdPeriph_Driver/src/misc.c ****   *     @arg NVIC_LP_SLEEPONEXIT
 172:Libraries/STM32F10x_StdPeriph_Driver/src/misc.c ****   * @param  NewState: new state of LP condition. This parameter can be: ENABLE or DISABLE.
 173:Libraries/STM32F10x_StdPeriph_Driver/src/misc.c ****   * @retval None
 174:Libraries/STM32F10x_StdPeriph_Driver/src/misc.c ****   */
 175:Libraries/STM32F10x_StdPeriph_Driver/src/misc.c **** void NVIC_SystemLPConfig(uint8_t LowPowerMode, FunctionalState NewState)
 176:Libraries/STM32F10x_StdPeriph_Driver/src/misc.c **** {
 234              		.loc 1 176 0
 235              		.cfi_startproc
 236              		@ args = 0, pretend = 0, frame = 0
 237              		@ frame_needed = 0, uses_anonymous_args = 0
 238              		@ link register save eliminated.
 239              	.LVL16:
 240 0094 044B     		ldr	r3, .L17	@ tmp124,
 177:Libraries/STM32F10x_StdPeriph_Driver/src/misc.c ****   /* Check the parameters */
 178:Libraries/STM32F10x_StdPeriph_Driver/src/misc.c ****   assert_param(IS_NVIC_LP(LowPowerMode));
 179:Libraries/STM32F10x_StdPeriph_Driver/src/misc.c ****   assert_param(IS_FUNCTIONAL_STATE(NewState));  
 180:Libraries/STM32F10x_StdPeriph_Driver/src/misc.c ****   
 181:Libraries/STM32F10x_StdPeriph_Driver/src/misc.c ****   if (NewState != DISABLE)
 182:Libraries/STM32F10x_StdPeriph_Driver/src/misc.c ****   {
 183:Libraries/STM32F10x_StdPeriph_Driver/src/misc.c ****     SCB->SCR |= LowPowerMode;
 241              		.loc 1 183 0
 242 0096 1A69     		ldr	r2, [r3, #16]	@ D.6637,
 181:Libraries/STM32F10x_StdPeriph_Driver/src/misc.c ****   {
 243              		.loc 1 181 0
 244 0098 09B1     		cbz	r1, .L14	@ NewState,
 245              		.loc 1 183 0
 246 009a 1043     		orrs	r0, r0, r2	@, D.6637, LowPowerMode, D.6637
 247              	.LVL17:
 248 009c 01E0     		b	.L16	@
 249              	.LVL18:
 250              	.L14:
 184:Libraries/STM32F10x_StdPeriph_Driver/src/misc.c ****   }
 185:Libraries/STM32F10x_StdPeriph_Driver/src/misc.c ****   else
 186:Libraries/STM32F10x_StdPeriph_Driver/src/misc.c ****   {
 187:Libraries/STM32F10x_StdPeriph_Driver/src/misc.c ****     SCB->SCR &= (uint32_t)(~(uint32_t)LowPowerMode);
 251              		.loc 1 187 0
 252 009e 22EA0000 		bic	r0, r2, r0	@ D.6637, D.6637, LowPowerMode
 253              	.LVL19:
 254              	.L16:
 255 00a2 1861     		str	r0, [r3, #16]	@ D.6637,
 256 00a4 7047     		bx	lr	@
 257              	.L18:
ARM GAS  /var/folders/lp/0dm50ddn51vc39svyzv_6fp00000gn/T//ccmLs69f.s 			page 9


 258 00a6 00BF     		.align	2
 259              	.L17:
 260 00a8 00ED00E0 		.word	-536810240
 261              		.cfi_endproc
 262              	.LFE32:
 263              		.size	NVIC_SystemLPConfig, .-NVIC_SystemLPConfig
 264              		.align	1
 265              		.global	SysTick_CLKSourceConfig
 266              		.thumb
 267              		.thumb_func
 268              		.type	SysTick_CLKSourceConfig, %function
 269              	SysTick_CLKSourceConfig:
 270              	.LFB33:
 188:Libraries/STM32F10x_StdPeriph_Driver/src/misc.c ****   }
 189:Libraries/STM32F10x_StdPeriph_Driver/src/misc.c **** }
 190:Libraries/STM32F10x_StdPeriph_Driver/src/misc.c **** 
 191:Libraries/STM32F10x_StdPeriph_Driver/src/misc.c **** /**
 192:Libraries/STM32F10x_StdPeriph_Driver/src/misc.c ****   * @brief  Configures the SysTick clock source.
 193:Libraries/STM32F10x_StdPeriph_Driver/src/misc.c ****   * @param  SysTick_CLKSource: specifies the SysTick clock source.
 194:Libraries/STM32F10x_StdPeriph_Driver/src/misc.c ****   *   This parameter can be one of the following values:
 195:Libraries/STM32F10x_StdPeriph_Driver/src/misc.c ****   *     @arg SysTick_CLKSource_HCLK_Div8: AHB clock divided by 8 selected as SysTick clock source.
 196:Libraries/STM32F10x_StdPeriph_Driver/src/misc.c ****   *     @arg SysTick_CLKSource_HCLK: AHB clock selected as SysTick clock source.
 197:Libraries/STM32F10x_StdPeriph_Driver/src/misc.c ****   * @retval None
 198:Libraries/STM32F10x_StdPeriph_Driver/src/misc.c ****   */
 199:Libraries/STM32F10x_StdPeriph_Driver/src/misc.c **** void SysTick_CLKSourceConfig(uint32_t SysTick_CLKSource)
 200:Libraries/STM32F10x_StdPeriph_Driver/src/misc.c **** {
 271              		.loc 1 200 0
 272              		.cfi_startproc
 273              		@ args = 0, pretend = 0, frame = 0
 274              		@ frame_needed = 0, uses_anonymous_args = 0
 275              		@ link register save eliminated.
 276              	.LVL20:
 277 00ac 044B     		ldr	r3, .L23	@ tmp119,
 201:Libraries/STM32F10x_StdPeriph_Driver/src/misc.c ****   /* Check the parameters */
 202:Libraries/STM32F10x_StdPeriph_Driver/src/misc.c ****   assert_param(IS_SYSTICK_CLK_SOURCE(SysTick_CLKSource));
 203:Libraries/STM32F10x_StdPeriph_Driver/src/misc.c ****   if (SysTick_CLKSource == SysTick_CLKSource_HCLK)
 278              		.loc 1 203 0
 279 00ae 0428     		cmp	r0, #4	@ SysTick_CLKSource,
 204:Libraries/STM32F10x_StdPeriph_Driver/src/misc.c ****   {
 205:Libraries/STM32F10x_StdPeriph_Driver/src/misc.c ****     SysTick->CTRL |= SysTick_CLKSource_HCLK;
 280              		.loc 1 205 0
 281 00b0 1A68     		ldr	r2, [r3]	@ D.6640,
 282 00b2 0CBF     		ite	eq
 283 00b4 42F00402 		orreq	r2, r2, #4	@ D.6640, D.6640,
 206:Libraries/STM32F10x_StdPeriph_Driver/src/misc.c ****   }
 207:Libraries/STM32F10x_StdPeriph_Driver/src/misc.c ****   else
 208:Libraries/STM32F10x_StdPeriph_Driver/src/misc.c ****   {
 209:Libraries/STM32F10x_StdPeriph_Driver/src/misc.c ****     SysTick->CTRL &= SysTick_CLKSource_HCLK_Div8;
 284              		.loc 1 209 0
 285 00b8 22F00402 		bicne	r2, r2, #4	@ D.6640, D.6640,
 286 00bc 1A60     		str	r2, [r3]	@ D.6640,
 287 00be 7047     		bx	lr	@
 288              	.L24:
 289              		.align	2
 290              	.L23:
 291 00c0 10E000E0 		.word	-536813552
 292              		.cfi_endproc
ARM GAS  /var/folders/lp/0dm50ddn51vc39svyzv_6fp00000gn/T//ccmLs69f.s 			page 10


 293              	.LFE33:
 294              		.size	SysTick_CLKSourceConfig, .-SysTick_CLKSourceConfig
 295              	.Letext0:
 296              		.file 2 "/usr/local/share/gcc-arm-none-eabi-5_4-2016q3/arm-none-eabi/include/machine/_default_type
 297              		.file 3 "/usr/local/share/gcc-arm-none-eabi-5_4-2016q3/arm-none-eabi/include/sys/_stdint.h"
 298              		.file 4 "./Libraries/CMSIS/CM3/CoreSupport/core_cm3.h"
 299              		.file 5 "./Libraries/CMSIS/CM3/DeviceSupport/ST/STM32F10x/stm32f10x.h"
 300              		.file 6 "./Libraries/STM32F10x_StdPeriph_Driver/inc/misc.h"
 301              		.section	.debug_info,"",%progbits
 302              	.Ldebug_info0:
 303 0000 5F050000 		.4byte	0x55f
 304 0004 0200     		.2byte	0x2
 305 0006 00000000 		.4byte	.Ldebug_abbrev0
 306 000a 04       		.byte	0x4
 307 000b 01       		.uleb128 0x1
 308 000c 9C000000 		.4byte	.LASF68
 309 0010 0C       		.byte	0xc
 310 0011 74030000 		.4byte	.LASF69
 311 0015 7B020000 		.4byte	.LASF70
 312 0019 00000000 		.4byte	.Ltext0
 313 001d C4000000 		.4byte	.Letext0
 314 0021 00000000 		.4byte	.Ldebug_line0
 315 0025 02       		.uleb128 0x2
 316 0026 01       		.byte	0x1
 317 0027 06       		.byte	0x6
 318 0028 C7010000 		.4byte	.LASF0
 319 002c 03       		.uleb128 0x3
 320 002d 86010000 		.4byte	.LASF5
 321 0031 02       		.byte	0x2
 322 0032 1D       		.byte	0x1d
 323 0033 37000000 		.4byte	0x37
 324 0037 02       		.uleb128 0x2
 325 0038 01       		.byte	0x1
 326 0039 08       		.byte	0x8
 327 003a 9B010000 		.4byte	.LASF1
 328 003e 02       		.uleb128 0x2
 329 003f 02       		.byte	0x2
 330 0040 05       		.byte	0x5
 331 0041 6D000000 		.4byte	.LASF2
 332 0045 02       		.uleb128 0x2
 333 0046 02       		.byte	0x2
 334 0047 07       		.byte	0x7
 335 0048 48020000 		.4byte	.LASF3
 336 004c 02       		.uleb128 0x2
 337 004d 04       		.byte	0x4
 338 004e 05       		.byte	0x5
 339 004f 7D010000 		.4byte	.LASF4
 340 0053 03       		.uleb128 0x3
 341 0054 91000000 		.4byte	.LASF6
 342 0058 02       		.byte	0x2
 343 0059 41       		.byte	0x41
 344 005a 5E000000 		.4byte	0x5e
 345 005e 02       		.uleb128 0x2
 346 005f 04       		.byte	0x4
 347 0060 07       		.byte	0x7
 348 0061 14030000 		.4byte	.LASF7
 349 0065 02       		.uleb128 0x2
ARM GAS  /var/folders/lp/0dm50ddn51vc39svyzv_6fp00000gn/T//ccmLs69f.s 			page 11


 350 0066 08       		.byte	0x8
 351 0067 05       		.byte	0x5
 352 0068 63010000 		.4byte	.LASF8
 353 006c 02       		.uleb128 0x2
 354 006d 08       		.byte	0x8
 355 006e 07       		.byte	0x7
 356 006f D3010000 		.4byte	.LASF9
 357 0073 04       		.uleb128 0x4
 358 0074 04       		.byte	0x4
 359 0075 05       		.byte	0x5
 360 0076 696E7400 		.ascii	"int\000"
 361 007a 02       		.uleb128 0x2
 362 007b 04       		.byte	0x4
 363 007c 07       		.byte	0x7
 364 007d F6010000 		.4byte	.LASF10
 365 0081 03       		.uleb128 0x3
 366 0082 2E010000 		.4byte	.LASF11
 367 0086 03       		.byte	0x3
 368 0087 18       		.byte	0x18
 369 0088 2C000000 		.4byte	0x2c
 370 008c 03       		.uleb128 0x3
 371 008d 00000000 		.4byte	.LASF12
 372 0091 03       		.byte	0x3
 373 0092 30       		.byte	0x30
 374 0093 53000000 		.4byte	0x53
 375 0097 05       		.uleb128 0x5
 376 0098 040E     		.2byte	0xe04
 377 009a 04       		.byte	0x4
 378 009b 84       		.byte	0x84
 379 009c 61010000 		.4byte	0x161
 380 00a0 06       		.uleb128 0x6
 381 00a1 29010000 		.4byte	.LASF13
 382 00a5 04       		.byte	0x4
 383 00a6 86       		.byte	0x86
 384 00a7 7D010000 		.4byte	0x17d
 385 00ab 02       		.byte	0x2
 386 00ac 23       		.byte	0x23
 387 00ad 00       		.uleb128 0
 388 00ae 06       		.uleb128 0x6
 389 00af E2020000 		.4byte	.LASF14
 390 00b3 04       		.byte	0x4
 391 00b4 87       		.byte	0x87
 392 00b5 82010000 		.4byte	0x182
 393 00b9 02       		.byte	0x2
 394 00ba 23       		.byte	0x23
 395 00bb 20       		.uleb128 0x20
 396 00bc 06       		.uleb128 0x6
 397 00bd 03020000 		.4byte	.LASF15
 398 00c1 04       		.byte	0x4
 399 00c2 88       		.byte	0x88
 400 00c3 92010000 		.4byte	0x192
 401 00c7 03       		.byte	0x3
 402 00c8 23       		.byte	0x23
 403 00c9 8001     		.uleb128 0x80
 404 00cb 06       		.uleb128 0x6
 405 00cc 5A010000 		.4byte	.LASF16
 406 00d0 04       		.byte	0x4
ARM GAS  /var/folders/lp/0dm50ddn51vc39svyzv_6fp00000gn/T//ccmLs69f.s 			page 12


 407 00d1 89       		.byte	0x89
 408 00d2 82010000 		.4byte	0x182
 409 00d6 03       		.byte	0x3
 410 00d7 23       		.byte	0x23
 411 00d8 A001     		.uleb128 0xa0
 412 00da 06       		.uleb128 0x6
 413 00db 71020000 		.4byte	.LASF17
 414 00df 04       		.byte	0x4
 415 00e0 8A       		.byte	0x8a
 416 00e1 97010000 		.4byte	0x197
 417 00e5 03       		.byte	0x3
 418 00e6 23       		.byte	0x23
 419 00e7 8002     		.uleb128 0x100
 420 00e9 06       		.uleb128 0x6
 421 00ea EC020000 		.4byte	.LASF18
 422 00ee 04       		.byte	0x4
 423 00ef 8B       		.byte	0x8b
 424 00f0 82010000 		.4byte	0x182
 425 00f4 03       		.byte	0x3
 426 00f5 23       		.byte	0x23
 427 00f6 A002     		.uleb128 0x120
 428 00f8 06       		.uleb128 0x6
 429 00f9 C2010000 		.4byte	.LASF19
 430 00fd 04       		.byte	0x4
 431 00fe 8C       		.byte	0x8c
 432 00ff 9C010000 		.4byte	0x19c
 433 0103 03       		.byte	0x3
 434 0104 23       		.byte	0x23
 435 0105 8003     		.uleb128 0x180
 436 0107 06       		.uleb128 0x6
 437 0108 F6020000 		.4byte	.LASF20
 438 010c 04       		.byte	0x4
 439 010d 8D       		.byte	0x8d
 440 010e 82010000 		.4byte	0x182
 441 0112 03       		.byte	0x3
 442 0113 23       		.byte	0x23
 443 0114 A003     		.uleb128 0x1a0
 444 0116 06       		.uleb128 0x6
 445 0117 09000000 		.4byte	.LASF21
 446 011b 04       		.byte	0x4
 447 011c 8E       		.byte	0x8e
 448 011d A1010000 		.4byte	0x1a1
 449 0121 03       		.byte	0x3
 450 0122 23       		.byte	0x23
 451 0123 8004     		.uleb128 0x200
 452 0125 06       		.uleb128 0x6
 453 0126 00030000 		.4byte	.LASF22
 454 012a 04       		.byte	0x4
 455 012b 8F       		.byte	0x8f
 456 012c A6010000 		.4byte	0x1a6
 457 0130 03       		.byte	0x3
 458 0131 23       		.byte	0x23
 459 0132 A004     		.uleb128 0x220
 460 0134 07       		.uleb128 0x7
 461 0135 495000   		.ascii	"IP\000"
 462 0138 04       		.byte	0x4
 463 0139 90       		.byte	0x90
ARM GAS  /var/folders/lp/0dm50ddn51vc39svyzv_6fp00000gn/T//ccmLs69f.s 			page 13


 464 013a CB010000 		.4byte	0x1cb
 465 013e 03       		.byte	0x3
 466 013f 23       		.byte	0x23
 467 0140 8006     		.uleb128 0x300
 468 0142 06       		.uleb128 0x6
 469 0143 0A030000 		.4byte	.LASF23
 470 0147 04       		.byte	0x4
 471 0148 91       		.byte	0x91
 472 0149 D0010000 		.4byte	0x1d0
 473 014d 03       		.byte	0x3
 474 014e 23       		.byte	0x23
 475 014f F007     		.uleb128 0x3f0
 476 0151 06       		.uleb128 0x6
 477 0152 48010000 		.4byte	.LASF24
 478 0156 04       		.byte	0x4
 479 0157 92       		.byte	0x92
 480 0158 78010000 		.4byte	0x178
 481 015c 03       		.byte	0x3
 482 015d 23       		.byte	0x23
 483 015e 801C     		.uleb128 0xe00
 484 0160 00       		.byte	0
 485 0161 08       		.uleb128 0x8
 486 0162 78010000 		.4byte	0x178
 487 0166 71010000 		.4byte	0x171
 488 016a 09       		.uleb128 0x9
 489 016b 71010000 		.4byte	0x171
 490 016f 07       		.byte	0x7
 491 0170 00       		.byte	0
 492 0171 02       		.uleb128 0x2
 493 0172 04       		.byte	0x4
 494 0173 07       		.byte	0x7
 495 0174 77000000 		.4byte	.LASF25
 496 0178 0A       		.uleb128 0xa
 497 0179 8C000000 		.4byte	0x8c
 498 017d 0A       		.uleb128 0xa
 499 017e 61010000 		.4byte	0x161
 500 0182 08       		.uleb128 0x8
 501 0183 8C000000 		.4byte	0x8c
 502 0187 92010000 		.4byte	0x192
 503 018b 09       		.uleb128 0x9
 504 018c 71010000 		.4byte	0x171
 505 0190 17       		.byte	0x17
 506 0191 00       		.byte	0
 507 0192 0A       		.uleb128 0xa
 508 0193 61010000 		.4byte	0x161
 509 0197 0A       		.uleb128 0xa
 510 0198 61010000 		.4byte	0x161
 511 019c 0A       		.uleb128 0xa
 512 019d 61010000 		.4byte	0x161
 513 01a1 0A       		.uleb128 0xa
 514 01a2 61010000 		.4byte	0x161
 515 01a6 08       		.uleb128 0x8
 516 01a7 8C000000 		.4byte	0x8c
 517 01ab B6010000 		.4byte	0x1b6
 518 01af 09       		.uleb128 0x9
 519 01b0 71010000 		.4byte	0x171
 520 01b4 37       		.byte	0x37
ARM GAS  /var/folders/lp/0dm50ddn51vc39svyzv_6fp00000gn/T//ccmLs69f.s 			page 14


 521 01b5 00       		.byte	0
 522 01b6 08       		.uleb128 0x8
 523 01b7 C6010000 		.4byte	0x1c6
 524 01bb C6010000 		.4byte	0x1c6
 525 01bf 09       		.uleb128 0x9
 526 01c0 71010000 		.4byte	0x171
 527 01c4 EF       		.byte	0xef
 528 01c5 00       		.byte	0
 529 01c6 0A       		.uleb128 0xa
 530 01c7 81000000 		.4byte	0x81
 531 01cb 0A       		.uleb128 0xa
 532 01cc B6010000 		.4byte	0x1b6
 533 01d0 08       		.uleb128 0x8
 534 01d1 8C000000 		.4byte	0x8c
 535 01d5 E1010000 		.4byte	0x1e1
 536 01d9 0B       		.uleb128 0xb
 537 01da 71010000 		.4byte	0x171
 538 01de 8302     		.2byte	0x283
 539 01e0 00       		.byte	0
 540 01e1 03       		.uleb128 0x3
 541 01e2 26030000 		.4byte	.LASF26
 542 01e6 04       		.byte	0x4
 543 01e7 93       		.byte	0x93
 544 01e8 97000000 		.4byte	0x97
 545 01ec 0C       		.uleb128 0xc
 546 01ed 74       		.byte	0x74
 547 01ee 04       		.byte	0x4
 548 01ef 9B       		.byte	0x9b
 549 01f0 FF020000 		.4byte	0x2ff
 550 01f4 06       		.uleb128 0x6
 551 01f5 23010000 		.4byte	.LASF27
 552 01f9 04       		.byte	0x4
 553 01fa 9D       		.byte	0x9d
 554 01fb FF020000 		.4byte	0x2ff
 555 01ff 02       		.byte	0x2
 556 0200 23       		.byte	0x23
 557 0201 00       		.uleb128 0
 558 0202 06       		.uleb128 0x6
 559 0203 55010000 		.4byte	.LASF28
 560 0207 04       		.byte	0x4
 561 0208 9E       		.byte	0x9e
 562 0209 78010000 		.4byte	0x178
 563 020d 02       		.byte	0x2
 564 020e 23       		.byte	0x23
 565 020f 04       		.uleb128 0x4
 566 0210 06       		.uleb128 0x6
 567 0211 67020000 		.4byte	.LASF29
 568 0215 04       		.byte	0x4
 569 0216 9F       		.byte	0x9f
 570 0217 78010000 		.4byte	0x178
 571 021b 02       		.byte	0x2
 572 021c 23       		.byte	0x23
 573 021d 08       		.uleb128 0x8
 574 021e 06       		.uleb128 0x6
 575 021f 95010000 		.4byte	.LASF30
 576 0223 04       		.byte	0x4
 577 0224 A0       		.byte	0xa0
ARM GAS  /var/folders/lp/0dm50ddn51vc39svyzv_6fp00000gn/T//ccmLs69f.s 			page 15


 578 0225 78010000 		.4byte	0x178
 579 0229 02       		.byte	0x2
 580 022a 23       		.byte	0x23
 581 022b 0C       		.uleb128 0xc
 582 022c 07       		.uleb128 0x7
 583 022d 53435200 		.ascii	"SCR\000"
 584 0231 04       		.byte	0x4
 585 0232 A1       		.byte	0xa1
 586 0233 78010000 		.4byte	0x178
 587 0237 02       		.byte	0x2
 588 0238 23       		.byte	0x23
 589 0239 10       		.uleb128 0x10
 590 023a 07       		.uleb128 0x7
 591 023b 43435200 		.ascii	"CCR\000"
 592 023f 04       		.byte	0x4
 593 0240 A2       		.byte	0xa2
 594 0241 78010000 		.4byte	0x178
 595 0245 02       		.byte	0x2
 596 0246 23       		.byte	0x23
 597 0247 14       		.uleb128 0x14
 598 0248 07       		.uleb128 0x7
 599 0249 53485000 		.ascii	"SHP\000"
 600 024d 04       		.byte	0x4
 601 024e A3       		.byte	0xa3
 602 024f 14030000 		.4byte	0x314
 603 0253 02       		.byte	0x2
 604 0254 23       		.byte	0x23
 605 0255 18       		.uleb128 0x18
 606 0256 06       		.uleb128 0x6
 607 0257 F0010000 		.4byte	.LASF31
 608 025b 04       		.byte	0x4
 609 025c A4       		.byte	0xa4
 610 025d 78010000 		.4byte	0x178
 611 0261 02       		.byte	0x2
 612 0262 23       		.byte	0x23
 613 0263 24       		.uleb128 0x24
 614 0264 06       		.uleb128 0x6
 615 0265 90010000 		.4byte	.LASF32
 616 0269 04       		.byte	0x4
 617 026a A5       		.byte	0xa5
 618 026b 78010000 		.4byte	0x178
 619 026f 02       		.byte	0x2
 620 0270 23       		.byte	0x23
 621 0271 28       		.uleb128 0x28
 622 0272 06       		.uleb128 0x6
 623 0273 D8020000 		.4byte	.LASF33
 624 0277 04       		.byte	0x4
 625 0278 A6       		.byte	0xa6
 626 0279 78010000 		.4byte	0x178
 627 027d 02       		.byte	0x2
 628 027e 23       		.byte	0x23
 629 027f 2C       		.uleb128 0x2c
 630 0280 06       		.uleb128 0x6
 631 0281 76020000 		.4byte	.LASF34
 632 0285 04       		.byte	0x4
 633 0286 A7       		.byte	0xa7
 634 0287 78010000 		.4byte	0x178
ARM GAS  /var/folders/lp/0dm50ddn51vc39svyzv_6fp00000gn/T//ccmLs69f.s 			page 16


 635 028b 02       		.byte	0x2
 636 028c 23       		.byte	0x23
 637 028d 30       		.uleb128 0x30
 638 028e 06       		.uleb128 0x6
 639 028f 67000000 		.4byte	.LASF35
 640 0293 04       		.byte	0x4
 641 0294 A8       		.byte	0xa8
 642 0295 78010000 		.4byte	0x178
 643 0299 02       		.byte	0x2
 644 029a 23       		.byte	0x23
 645 029b 34       		.uleb128 0x34
 646 029c 06       		.uleb128 0x6
 647 029d 78010000 		.4byte	.LASF36
 648 02a1 04       		.byte	0x4
 649 02a2 A9       		.byte	0xa9
 650 02a3 78010000 		.4byte	0x178
 651 02a7 02       		.byte	0x2
 652 02a8 23       		.byte	0x23
 653 02a9 38       		.uleb128 0x38
 654 02aa 06       		.uleb128 0x6
 655 02ab A4030000 		.4byte	.LASF37
 656 02af 04       		.byte	0x4
 657 02b0 AA       		.byte	0xaa
 658 02b1 78010000 		.4byte	0x178
 659 02b5 02       		.byte	0x2
 660 02b6 23       		.byte	0x23
 661 02b7 3C       		.uleb128 0x3c
 662 02b8 07       		.uleb128 0x7
 663 02b9 50465200 		.ascii	"PFR\000"
 664 02bd 04       		.byte	0x4
 665 02be AB       		.byte	0xab
 666 02bf 2E030000 		.4byte	0x32e
 667 02c3 02       		.byte	0x2
 668 02c4 23       		.byte	0x23
 669 02c5 40       		.uleb128 0x40
 670 02c6 07       		.uleb128 0x7
 671 02c7 44465200 		.ascii	"DFR\000"
 672 02cb 04       		.byte	0x4
 673 02cc AC       		.byte	0xac
 674 02cd FF020000 		.4byte	0x2ff
 675 02d1 02       		.byte	0x2
 676 02d2 23       		.byte	0x23
 677 02d3 48       		.uleb128 0x48
 678 02d4 07       		.uleb128 0x7
 679 02d5 41445200 		.ascii	"ADR\000"
 680 02d9 04       		.byte	0x4
 681 02da AD       		.byte	0xad
 682 02db FF020000 		.4byte	0x2ff
 683 02df 02       		.byte	0x2
 684 02e0 23       		.byte	0x23
 685 02e1 4C       		.uleb128 0x4c
 686 02e2 06       		.uleb128 0x6
 687 02e3 DD020000 		.4byte	.LASF38
 688 02e7 04       		.byte	0x4
 689 02e8 AE       		.byte	0xae
 690 02e9 48030000 		.4byte	0x348
 691 02ed 02       		.byte	0x2
ARM GAS  /var/folders/lp/0dm50ddn51vc39svyzv_6fp00000gn/T//ccmLs69f.s 			page 17


 692 02ee 23       		.byte	0x23
 693 02ef 50       		.uleb128 0x50
 694 02f0 06       		.uleb128 0x6
 695 02f1 6C020000 		.4byte	.LASF39
 696 02f5 04       		.byte	0x4
 697 02f6 AF       		.byte	0xaf
 698 02f7 62030000 		.4byte	0x362
 699 02fb 02       		.byte	0x2
 700 02fc 23       		.byte	0x23
 701 02fd 60       		.uleb128 0x60
 702 02fe 00       		.byte	0
 703 02ff 0D       		.uleb128 0xd
 704 0300 78010000 		.4byte	0x178
 705 0304 08       		.uleb128 0x8
 706 0305 C6010000 		.4byte	0x1c6
 707 0309 14030000 		.4byte	0x314
 708 030d 09       		.uleb128 0x9
 709 030e 71010000 		.4byte	0x171
 710 0312 0B       		.byte	0xb
 711 0313 00       		.byte	0
 712 0314 0A       		.uleb128 0xa
 713 0315 04030000 		.4byte	0x304
 714 0319 08       		.uleb128 0x8
 715 031a FF020000 		.4byte	0x2ff
 716 031e 29030000 		.4byte	0x329
 717 0322 09       		.uleb128 0x9
 718 0323 71010000 		.4byte	0x171
 719 0327 01       		.byte	0x1
 720 0328 00       		.byte	0
 721 0329 0A       		.uleb128 0xa
 722 032a 19030000 		.4byte	0x319
 723 032e 0D       		.uleb128 0xd
 724 032f 29030000 		.4byte	0x329
 725 0333 08       		.uleb128 0x8
 726 0334 FF020000 		.4byte	0x2ff
 727 0338 43030000 		.4byte	0x343
 728 033c 09       		.uleb128 0x9
 729 033d 71010000 		.4byte	0x171
 730 0341 03       		.byte	0x3
 731 0342 00       		.byte	0
 732 0343 0A       		.uleb128 0xa
 733 0344 33030000 		.4byte	0x333
 734 0348 0D       		.uleb128 0xd
 735 0349 43030000 		.4byte	0x343
 736 034d 08       		.uleb128 0x8
 737 034e FF020000 		.4byte	0x2ff
 738 0352 5D030000 		.4byte	0x35d
 739 0356 09       		.uleb128 0x9
 740 0357 71010000 		.4byte	0x171
 741 035b 04       		.byte	0x4
 742 035c 00       		.byte	0
 743 035d 0A       		.uleb128 0xa
 744 035e 4D030000 		.4byte	0x34d
 745 0362 0D       		.uleb128 0xd
 746 0363 5D030000 		.4byte	0x35d
 747 0367 03       		.uleb128 0x3
 748 0368 36010000 		.4byte	.LASF40
ARM GAS  /var/folders/lp/0dm50ddn51vc39svyzv_6fp00000gn/T//ccmLs69f.s 			page 18


 749 036c 04       		.byte	0x4
 750 036d B0       		.byte	0xb0
 751 036e EC010000 		.4byte	0x1ec
 752 0372 0E       		.uleb128 0xe
 753 0373 10       		.byte	0x10
 754 0374 04       		.byte	0x4
 755 0375 6D01     		.2byte	0x16d
 756 0377 B8030000 		.4byte	0x3b8
 757 037b 0F       		.uleb128 0xf
 758 037c A9010000 		.4byte	.LASF41
 759 0380 04       		.byte	0x4
 760 0381 6F01     		.2byte	0x16f
 761 0383 78010000 		.4byte	0x178
 762 0387 02       		.byte	0x2
 763 0388 23       		.byte	0x23
 764 0389 00       		.uleb128 0
 765 038a 0F       		.uleb128 0xf
 766 038b 6F030000 		.4byte	.LASF42
 767 038f 04       		.byte	0x4
 768 0390 7001     		.2byte	0x170
 769 0392 78010000 		.4byte	0x178
 770 0396 02       		.byte	0x2
 771 0397 23       		.byte	0x23
 772 0398 04       		.uleb128 0x4
 773 0399 10       		.uleb128 0x10
 774 039a 56414C00 		.ascii	"VAL\000"
 775 039e 04       		.byte	0x4
 776 039f 7101     		.2byte	0x171
 777 03a1 78010000 		.4byte	0x178
 778 03a5 02       		.byte	0x2
 779 03a6 23       		.byte	0x23
 780 03a7 08       		.uleb128 0x8
 781 03a8 0F       		.uleb128 0xf
 782 03a9 EA010000 		.4byte	.LASF43
 783 03ad 04       		.byte	0x4
 784 03ae 7201     		.2byte	0x172
 785 03b0 FF020000 		.4byte	0x2ff
 786 03b4 02       		.byte	0x2
 787 03b5 23       		.byte	0x23
 788 03b6 0C       		.uleb128 0xc
 789 03b7 00       		.byte	0
 790 03b8 11       		.uleb128 0x11
 791 03b9 3B020000 		.4byte	.LASF44
 792 03bd 04       		.byte	0x4
 793 03be 7301     		.2byte	0x173
 794 03c0 72030000 		.4byte	0x372
 795 03c4 12       		.uleb128 0x12
 796 03c5 01       		.byte	0x1
 797 03c6 37000000 		.4byte	0x37
 798 03ca 05       		.byte	0x5
 799 03cb 0902     		.2byte	0x209
 800 03cd DE030000 		.4byte	0x3de
 801 03d1 13       		.uleb128 0x13
 802 03d2 4D010000 		.4byte	.LASF45
 803 03d6 00       		.byte	0
 804 03d7 13       		.uleb128 0x13
 805 03d8 C3030000 		.4byte	.LASF46
ARM GAS  /var/folders/lp/0dm50ddn51vc39svyzv_6fp00000gn/T//ccmLs69f.s 			page 19


 806 03dc 01       		.byte	0x1
 807 03dd 00       		.byte	0
 808 03de 11       		.uleb128 0x11
 809 03df 52030000 		.4byte	.LASF47
 810 03e3 05       		.byte	0x5
 811 03e4 0902     		.2byte	0x209
 812 03e6 C4030000 		.4byte	0x3c4
 813 03ea 0C       		.uleb128 0xc
 814 03eb 04       		.byte	0x4
 815 03ec 06       		.byte	0x6
 816 03ed 32       		.byte	0x32
 817 03ee 2B040000 		.4byte	0x42b
 818 03f2 06       		.uleb128 0x6
 819 03f3 AD020000 		.4byte	.LASF48
 820 03f7 06       		.byte	0x6
 821 03f8 34       		.byte	0x34
 822 03f9 81000000 		.4byte	0x81
 823 03fd 02       		.byte	0x2
 824 03fe 23       		.byte	0x23
 825 03ff 00       		.uleb128 0
 826 0400 06       		.uleb128 0x6
 827 0401 30030000 		.4byte	.LASF49
 828 0405 06       		.byte	0x6
 829 0406 39       		.byte	0x39
 830 0407 81000000 		.4byte	0x81
 831 040b 02       		.byte	0x2
 832 040c 23       		.byte	0x23
 833 040d 01       		.uleb128 0x1
 834 040e 06       		.uleb128 0x6
 835 040f BD020000 		.4byte	.LASF50
 836 0413 06       		.byte	0x6
 837 0414 3D       		.byte	0x3d
 838 0415 81000000 		.4byte	0x81
 839 0419 02       		.byte	0x2
 840 041a 23       		.byte	0x23
 841 041b 02       		.uleb128 0x2
 842 041c 06       		.uleb128 0x6
 843 041d 1F000000 		.4byte	.LASF51
 844 0421 06       		.byte	0x6
 845 0422 41       		.byte	0x41
 846 0423 DE030000 		.4byte	0x3de
 847 0427 02       		.byte	0x2
 848 0428 23       		.byte	0x23
 849 0429 03       		.uleb128 0x3
 850 042a 00       		.byte	0
 851 042b 03       		.uleb128 0x3
 852 042c 0E000000 		.4byte	.LASF52
 853 0430 06       		.byte	0x6
 854 0431 44       		.byte	0x44
 855 0432 EA030000 		.4byte	0x3ea
 856 0436 14       		.uleb128 0x14
 857 0437 01       		.byte	0x1
 858 0438 CA030000 		.4byte	.LASF53
 859 043c 01       		.byte	0x1
 860 043d 60       		.byte	0x60
 861 043e 01       		.byte	0x1
 862 043f 00000000 		.4byte	.LFB29
ARM GAS  /var/folders/lp/0dm50ddn51vc39svyzv_6fp00000gn/T//ccmLs69f.s 			page 20


 863 0443 14000000 		.4byte	.LFE29
 864 0447 02       		.byte	0x2
 865 0448 7D       		.byte	0x7d
 866 0449 00       		.sleb128 0
 867 044a 01       		.byte	0x1
 868 044b 5F040000 		.4byte	0x45f
 869 044f 15       		.uleb128 0x15
 870 0450 54000000 		.4byte	.LASF55
 871 0454 01       		.byte	0x1
 872 0455 60       		.byte	0x60
 873 0456 8C000000 		.4byte	0x8c
 874 045a 00000000 		.4byte	.LLST0
 875 045e 00       		.byte	0
 876 045f 16       		.uleb128 0x16
 877 0460 01       		.byte	0x1
 878 0461 80000000 		.4byte	.LASF54
 879 0465 01       		.byte	0x1
 880 0466 70       		.byte	0x70
 881 0467 01       		.byte	0x1
 882 0468 14000000 		.4byte	.LFB30
 883 046c 80000000 		.4byte	.LFE30
 884 0470 21000000 		.4byte	.LLST1
 885 0474 01       		.byte	0x1
 886 0475 B4040000 		.4byte	0x4b4
 887 0479 17       		.uleb128 0x17
 888 047a 44000000 		.4byte	.LASF56
 889 047e 01       		.byte	0x1
 890 047f 70       		.byte	0x70
 891 0480 B4040000 		.4byte	0x4b4
 892 0484 01       		.byte	0x1
 893 0485 50       		.byte	0x50
 894 0486 18       		.uleb128 0x18
 895 0487 5B020000 		.4byte	.LASF57
 896 048b 01       		.byte	0x1
 897 048c 72       		.byte	0x72
 898 048d 8C000000 		.4byte	0x8c
 899 0491 41000000 		.4byte	.LLST2
 900 0495 18       		.uleb128 0x18
 901 0496 8A000000 		.4byte	.LASF58
 902 049a 01       		.byte	0x1
 903 049b 72       		.byte	0x72
 904 049c 8C000000 		.4byte	0x8c
 905 04a0 91000000 		.4byte	.LLST3
 906 04a4 18       		.uleb128 0x18
 907 04a5 08020000 		.4byte	.LASF59
 908 04a9 01       		.byte	0x1
 909 04aa 72       		.byte	0x72
 910 04ab 8C000000 		.4byte	0x8c
 911 04af CB000000 		.4byte	.LLST4
 912 04b3 00       		.byte	0
 913 04b4 19       		.uleb128 0x19
 914 04b5 04       		.byte	0x4
 915 04b6 2B040000 		.4byte	0x42b
 916 04ba 14       		.uleb128 0x14
 917 04bb 01       		.byte	0x1
 918 04bc AE010000 		.4byte	.LASF60
 919 04c0 01       		.byte	0x1
ARM GAS  /var/folders/lp/0dm50ddn51vc39svyzv_6fp00000gn/T//ccmLs69f.s 			page 21


 920 04c1 9C       		.byte	0x9c
 921 04c2 01       		.byte	0x1
 922 04c3 80000000 		.4byte	.LFB31
 923 04c7 94000000 		.4byte	.LFE31
 924 04cb 02       		.byte	0x2
 925 04cc 7D       		.byte	0x7d
 926 04cd 00       		.sleb128 0
 927 04ce 01       		.byte	0x1
 928 04cf F2040000 		.4byte	0x4f2
 929 04d3 15       		.uleb128 0x15
 930 04d4 62030000 		.4byte	.LASF61
 931 04d8 01       		.byte	0x1
 932 04d9 9C       		.byte	0x9c
 933 04da 8C000000 		.4byte	0x8c
 934 04de 05010000 		.4byte	.LLST5
 935 04e2 15       		.uleb128 0x15
 936 04e3 71010000 		.4byte	.LASF62
 937 04e7 01       		.byte	0x1
 938 04e8 9C       		.byte	0x9c
 939 04e9 8C000000 		.4byte	0x8c
 940 04ed 26010000 		.4byte	.LLST6
 941 04f1 00       		.byte	0
 942 04f2 14       		.uleb128 0x14
 943 04f3 01       		.byte	0x1
 944 04f4 0F020000 		.4byte	.LASF63
 945 04f8 01       		.byte	0x1
 946 04f9 AF       		.byte	0xaf
 947 04fa 01       		.byte	0x1
 948 04fb 94000000 		.4byte	.LFB32
 949 04ff AC000000 		.4byte	.LFE32
 950 0503 02       		.byte	0x2
 951 0504 7D       		.byte	0x7d
 952 0505 00       		.sleb128 0
 953 0506 01       		.byte	0x1
 954 0507 28050000 		.4byte	0x528
 955 050b 15       		.uleb128 0x15
 956 050c A9030000 		.4byte	.LASF64
 957 0510 01       		.byte	0x1
 958 0511 AF       		.byte	0xaf
 959 0512 81000000 		.4byte	0x81
 960 0516 47010000 		.4byte	.LLST7
 961 051a 17       		.uleb128 0x17
 962 051b 3F010000 		.4byte	.LASF65
 963 051f 01       		.byte	0x1
 964 0520 AF       		.byte	0xaf
 965 0521 DE030000 		.4byte	0x3de
 966 0525 01       		.byte	0x1
 967 0526 51       		.byte	0x51
 968 0527 00       		.byte	0
 969 0528 14       		.uleb128 0x14
 970 0529 01       		.byte	0x1
 971 052a 23020000 		.4byte	.LASF66
 972 052e 01       		.byte	0x1
 973 052f C7       		.byte	0xc7
 974 0530 01       		.byte	0x1
 975 0531 AC000000 		.4byte	.LFB33
 976 0535 C4000000 		.4byte	.LFE33
ARM GAS  /var/folders/lp/0dm50ddn51vc39svyzv_6fp00000gn/T//ccmLs69f.s 			page 22


 977 0539 02       		.byte	0x2
 978 053a 7D       		.byte	0x7d
 979 053b 00       		.sleb128 0
 980 053c 01       		.byte	0x1
 981 053d 4F050000 		.4byte	0x54f
 982 0541 17       		.uleb128 0x17
 983 0542 32000000 		.4byte	.LASF67
 984 0546 01       		.byte	0x1
 985 0547 C7       		.byte	0xc7
 986 0548 8C000000 		.4byte	0x8c
 987 054c 01       		.byte	0x1
 988 054d 50       		.byte	0x50
 989 054e 00       		.byte	0
 990 054f 1A       		.uleb128 0x1a
 991 0550 B6030000 		.4byte	.LASF71
 992 0554 04       		.byte	0x4
 993 0555 CE06     		.2byte	0x6ce
 994 0557 5D050000 		.4byte	0x55d
 995 055b 01       		.byte	0x1
 996 055c 01       		.byte	0x1
 997 055d 0A       		.uleb128 0xa
 998 055e 73000000 		.4byte	0x73
 999 0562 00       		.byte	0
 1000              		.section	.debug_abbrev,"",%progbits
 1001              	.Ldebug_abbrev0:
 1002 0000 01       		.uleb128 0x1
 1003 0001 11       		.uleb128 0x11
 1004 0002 01       		.byte	0x1
 1005 0003 25       		.uleb128 0x25
 1006 0004 0E       		.uleb128 0xe
 1007 0005 13       		.uleb128 0x13
 1008 0006 0B       		.uleb128 0xb
 1009 0007 03       		.uleb128 0x3
 1010 0008 0E       		.uleb128 0xe
 1011 0009 1B       		.uleb128 0x1b
 1012 000a 0E       		.uleb128 0xe
 1013 000b 11       		.uleb128 0x11
 1014 000c 01       		.uleb128 0x1
 1015 000d 12       		.uleb128 0x12
 1016 000e 01       		.uleb128 0x1
 1017 000f 10       		.uleb128 0x10
 1018 0010 06       		.uleb128 0x6
 1019 0011 00       		.byte	0
 1020 0012 00       		.byte	0
 1021 0013 02       		.uleb128 0x2
 1022 0014 24       		.uleb128 0x24
 1023 0015 00       		.byte	0
 1024 0016 0B       		.uleb128 0xb
 1025 0017 0B       		.uleb128 0xb
 1026 0018 3E       		.uleb128 0x3e
 1027 0019 0B       		.uleb128 0xb
 1028 001a 03       		.uleb128 0x3
 1029 001b 0E       		.uleb128 0xe
 1030 001c 00       		.byte	0
 1031 001d 00       		.byte	0
 1032 001e 03       		.uleb128 0x3
 1033 001f 16       		.uleb128 0x16
ARM GAS  /var/folders/lp/0dm50ddn51vc39svyzv_6fp00000gn/T//ccmLs69f.s 			page 23


 1034 0020 00       		.byte	0
 1035 0021 03       		.uleb128 0x3
 1036 0022 0E       		.uleb128 0xe
 1037 0023 3A       		.uleb128 0x3a
 1038 0024 0B       		.uleb128 0xb
 1039 0025 3B       		.uleb128 0x3b
 1040 0026 0B       		.uleb128 0xb
 1041 0027 49       		.uleb128 0x49
 1042 0028 13       		.uleb128 0x13
 1043 0029 00       		.byte	0
 1044 002a 00       		.byte	0
 1045 002b 04       		.uleb128 0x4
 1046 002c 24       		.uleb128 0x24
 1047 002d 00       		.byte	0
 1048 002e 0B       		.uleb128 0xb
 1049 002f 0B       		.uleb128 0xb
 1050 0030 3E       		.uleb128 0x3e
 1051 0031 0B       		.uleb128 0xb
 1052 0032 03       		.uleb128 0x3
 1053 0033 08       		.uleb128 0x8
 1054 0034 00       		.byte	0
 1055 0035 00       		.byte	0
 1056 0036 05       		.uleb128 0x5
 1057 0037 13       		.uleb128 0x13
 1058 0038 01       		.byte	0x1
 1059 0039 0B       		.uleb128 0xb
 1060 003a 05       		.uleb128 0x5
 1061 003b 3A       		.uleb128 0x3a
 1062 003c 0B       		.uleb128 0xb
 1063 003d 3B       		.uleb128 0x3b
 1064 003e 0B       		.uleb128 0xb
 1065 003f 01       		.uleb128 0x1
 1066 0040 13       		.uleb128 0x13
 1067 0041 00       		.byte	0
 1068 0042 00       		.byte	0
 1069 0043 06       		.uleb128 0x6
 1070 0044 0D       		.uleb128 0xd
 1071 0045 00       		.byte	0
 1072 0046 03       		.uleb128 0x3
 1073 0047 0E       		.uleb128 0xe
 1074 0048 3A       		.uleb128 0x3a
 1075 0049 0B       		.uleb128 0xb
 1076 004a 3B       		.uleb128 0x3b
 1077 004b 0B       		.uleb128 0xb
 1078 004c 49       		.uleb128 0x49
 1079 004d 13       		.uleb128 0x13
 1080 004e 38       		.uleb128 0x38
 1081 004f 0A       		.uleb128 0xa
 1082 0050 00       		.byte	0
 1083 0051 00       		.byte	0
 1084 0052 07       		.uleb128 0x7
 1085 0053 0D       		.uleb128 0xd
 1086 0054 00       		.byte	0
 1087 0055 03       		.uleb128 0x3
 1088 0056 08       		.uleb128 0x8
 1089 0057 3A       		.uleb128 0x3a
 1090 0058 0B       		.uleb128 0xb
ARM GAS  /var/folders/lp/0dm50ddn51vc39svyzv_6fp00000gn/T//ccmLs69f.s 			page 24


 1091 0059 3B       		.uleb128 0x3b
 1092 005a 0B       		.uleb128 0xb
 1093 005b 49       		.uleb128 0x49
 1094 005c 13       		.uleb128 0x13
 1095 005d 38       		.uleb128 0x38
 1096 005e 0A       		.uleb128 0xa
 1097 005f 00       		.byte	0
 1098 0060 00       		.byte	0
 1099 0061 08       		.uleb128 0x8
 1100 0062 01       		.uleb128 0x1
 1101 0063 01       		.byte	0x1
 1102 0064 49       		.uleb128 0x49
 1103 0065 13       		.uleb128 0x13
 1104 0066 01       		.uleb128 0x1
 1105 0067 13       		.uleb128 0x13
 1106 0068 00       		.byte	0
 1107 0069 00       		.byte	0
 1108 006a 09       		.uleb128 0x9
 1109 006b 21       		.uleb128 0x21
 1110 006c 00       		.byte	0
 1111 006d 49       		.uleb128 0x49
 1112 006e 13       		.uleb128 0x13
 1113 006f 2F       		.uleb128 0x2f
 1114 0070 0B       		.uleb128 0xb
 1115 0071 00       		.byte	0
 1116 0072 00       		.byte	0
 1117 0073 0A       		.uleb128 0xa
 1118 0074 35       		.uleb128 0x35
 1119 0075 00       		.byte	0
 1120 0076 49       		.uleb128 0x49
 1121 0077 13       		.uleb128 0x13
 1122 0078 00       		.byte	0
 1123 0079 00       		.byte	0
 1124 007a 0B       		.uleb128 0xb
 1125 007b 21       		.uleb128 0x21
 1126 007c 00       		.byte	0
 1127 007d 49       		.uleb128 0x49
 1128 007e 13       		.uleb128 0x13
 1129 007f 2F       		.uleb128 0x2f
 1130 0080 05       		.uleb128 0x5
 1131 0081 00       		.byte	0
 1132 0082 00       		.byte	0
 1133 0083 0C       		.uleb128 0xc
 1134 0084 13       		.uleb128 0x13
 1135 0085 01       		.byte	0x1
 1136 0086 0B       		.uleb128 0xb
 1137 0087 0B       		.uleb128 0xb
 1138 0088 3A       		.uleb128 0x3a
 1139 0089 0B       		.uleb128 0xb
 1140 008a 3B       		.uleb128 0x3b
 1141 008b 0B       		.uleb128 0xb
 1142 008c 01       		.uleb128 0x1
 1143 008d 13       		.uleb128 0x13
 1144 008e 00       		.byte	0
 1145 008f 00       		.byte	0
 1146 0090 0D       		.uleb128 0xd
 1147 0091 26       		.uleb128 0x26
ARM GAS  /var/folders/lp/0dm50ddn51vc39svyzv_6fp00000gn/T//ccmLs69f.s 			page 25


 1148 0092 00       		.byte	0
 1149 0093 49       		.uleb128 0x49
 1150 0094 13       		.uleb128 0x13
 1151 0095 00       		.byte	0
 1152 0096 00       		.byte	0
 1153 0097 0E       		.uleb128 0xe
 1154 0098 13       		.uleb128 0x13
 1155 0099 01       		.byte	0x1
 1156 009a 0B       		.uleb128 0xb
 1157 009b 0B       		.uleb128 0xb
 1158 009c 3A       		.uleb128 0x3a
 1159 009d 0B       		.uleb128 0xb
 1160 009e 3B       		.uleb128 0x3b
 1161 009f 05       		.uleb128 0x5
 1162 00a0 01       		.uleb128 0x1
 1163 00a1 13       		.uleb128 0x13
 1164 00a2 00       		.byte	0
 1165 00a3 00       		.byte	0
 1166 00a4 0F       		.uleb128 0xf
 1167 00a5 0D       		.uleb128 0xd
 1168 00a6 00       		.byte	0
 1169 00a7 03       		.uleb128 0x3
 1170 00a8 0E       		.uleb128 0xe
 1171 00a9 3A       		.uleb128 0x3a
 1172 00aa 0B       		.uleb128 0xb
 1173 00ab 3B       		.uleb128 0x3b
 1174 00ac 05       		.uleb128 0x5
 1175 00ad 49       		.uleb128 0x49
 1176 00ae 13       		.uleb128 0x13
 1177 00af 38       		.uleb128 0x38
 1178 00b0 0A       		.uleb128 0xa
 1179 00b1 00       		.byte	0
 1180 00b2 00       		.byte	0
 1181 00b3 10       		.uleb128 0x10
 1182 00b4 0D       		.uleb128 0xd
 1183 00b5 00       		.byte	0
 1184 00b6 03       		.uleb128 0x3
 1185 00b7 08       		.uleb128 0x8
 1186 00b8 3A       		.uleb128 0x3a
 1187 00b9 0B       		.uleb128 0xb
 1188 00ba 3B       		.uleb128 0x3b
 1189 00bb 05       		.uleb128 0x5
 1190 00bc 49       		.uleb128 0x49
 1191 00bd 13       		.uleb128 0x13
 1192 00be 38       		.uleb128 0x38
 1193 00bf 0A       		.uleb128 0xa
 1194 00c0 00       		.byte	0
 1195 00c1 00       		.byte	0
 1196 00c2 11       		.uleb128 0x11
 1197 00c3 16       		.uleb128 0x16
 1198 00c4 00       		.byte	0
 1199 00c5 03       		.uleb128 0x3
 1200 00c6 0E       		.uleb128 0xe
 1201 00c7 3A       		.uleb128 0x3a
 1202 00c8 0B       		.uleb128 0xb
 1203 00c9 3B       		.uleb128 0x3b
 1204 00ca 05       		.uleb128 0x5
ARM GAS  /var/folders/lp/0dm50ddn51vc39svyzv_6fp00000gn/T//ccmLs69f.s 			page 26


 1205 00cb 49       		.uleb128 0x49
 1206 00cc 13       		.uleb128 0x13
 1207 00cd 00       		.byte	0
 1208 00ce 00       		.byte	0
 1209 00cf 12       		.uleb128 0x12
 1210 00d0 04       		.uleb128 0x4
 1211 00d1 01       		.byte	0x1
 1212 00d2 0B       		.uleb128 0xb
 1213 00d3 0B       		.uleb128 0xb
 1214 00d4 49       		.uleb128 0x49
 1215 00d5 13       		.uleb128 0x13
 1216 00d6 3A       		.uleb128 0x3a
 1217 00d7 0B       		.uleb128 0xb
 1218 00d8 3B       		.uleb128 0x3b
 1219 00d9 05       		.uleb128 0x5
 1220 00da 01       		.uleb128 0x1
 1221 00db 13       		.uleb128 0x13
 1222 00dc 00       		.byte	0
 1223 00dd 00       		.byte	0
 1224 00de 13       		.uleb128 0x13
 1225 00df 28       		.uleb128 0x28
 1226 00e0 00       		.byte	0
 1227 00e1 03       		.uleb128 0x3
 1228 00e2 0E       		.uleb128 0xe
 1229 00e3 1C       		.uleb128 0x1c
 1230 00e4 0B       		.uleb128 0xb
 1231 00e5 00       		.byte	0
 1232 00e6 00       		.byte	0
 1233 00e7 14       		.uleb128 0x14
 1234 00e8 2E       		.uleb128 0x2e
 1235 00e9 01       		.byte	0x1
 1236 00ea 3F       		.uleb128 0x3f
 1237 00eb 0C       		.uleb128 0xc
 1238 00ec 03       		.uleb128 0x3
 1239 00ed 0E       		.uleb128 0xe
 1240 00ee 3A       		.uleb128 0x3a
 1241 00ef 0B       		.uleb128 0xb
 1242 00f0 3B       		.uleb128 0x3b
 1243 00f1 0B       		.uleb128 0xb
 1244 00f2 27       		.uleb128 0x27
 1245 00f3 0C       		.uleb128 0xc
 1246 00f4 11       		.uleb128 0x11
 1247 00f5 01       		.uleb128 0x1
 1248 00f6 12       		.uleb128 0x12
 1249 00f7 01       		.uleb128 0x1
 1250 00f8 40       		.uleb128 0x40
 1251 00f9 0A       		.uleb128 0xa
 1252 00fa 9742     		.uleb128 0x2117
 1253 00fc 0C       		.uleb128 0xc
 1254 00fd 01       		.uleb128 0x1
 1255 00fe 13       		.uleb128 0x13
 1256 00ff 00       		.byte	0
 1257 0100 00       		.byte	0
 1258 0101 15       		.uleb128 0x15
 1259 0102 05       		.uleb128 0x5
 1260 0103 00       		.byte	0
 1261 0104 03       		.uleb128 0x3
ARM GAS  /var/folders/lp/0dm50ddn51vc39svyzv_6fp00000gn/T//ccmLs69f.s 			page 27


 1262 0105 0E       		.uleb128 0xe
 1263 0106 3A       		.uleb128 0x3a
 1264 0107 0B       		.uleb128 0xb
 1265 0108 3B       		.uleb128 0x3b
 1266 0109 0B       		.uleb128 0xb
 1267 010a 49       		.uleb128 0x49
 1268 010b 13       		.uleb128 0x13
 1269 010c 02       		.uleb128 0x2
 1270 010d 06       		.uleb128 0x6
 1271 010e 00       		.byte	0
 1272 010f 00       		.byte	0
 1273 0110 16       		.uleb128 0x16
 1274 0111 2E       		.uleb128 0x2e
 1275 0112 01       		.byte	0x1
 1276 0113 3F       		.uleb128 0x3f
 1277 0114 0C       		.uleb128 0xc
 1278 0115 03       		.uleb128 0x3
 1279 0116 0E       		.uleb128 0xe
 1280 0117 3A       		.uleb128 0x3a
 1281 0118 0B       		.uleb128 0xb
 1282 0119 3B       		.uleb128 0x3b
 1283 011a 0B       		.uleb128 0xb
 1284 011b 27       		.uleb128 0x27
 1285 011c 0C       		.uleb128 0xc
 1286 011d 11       		.uleb128 0x11
 1287 011e 01       		.uleb128 0x1
 1288 011f 12       		.uleb128 0x12
 1289 0120 01       		.uleb128 0x1
 1290 0121 40       		.uleb128 0x40
 1291 0122 06       		.uleb128 0x6
 1292 0123 9742     		.uleb128 0x2117
 1293 0125 0C       		.uleb128 0xc
 1294 0126 01       		.uleb128 0x1
 1295 0127 13       		.uleb128 0x13
 1296 0128 00       		.byte	0
 1297 0129 00       		.byte	0
 1298 012a 17       		.uleb128 0x17
 1299 012b 05       		.uleb128 0x5
 1300 012c 00       		.byte	0
 1301 012d 03       		.uleb128 0x3
 1302 012e 0E       		.uleb128 0xe
 1303 012f 3A       		.uleb128 0x3a
 1304 0130 0B       		.uleb128 0xb
 1305 0131 3B       		.uleb128 0x3b
 1306 0132 0B       		.uleb128 0xb
 1307 0133 49       		.uleb128 0x49
 1308 0134 13       		.uleb128 0x13
 1309 0135 02       		.uleb128 0x2
 1310 0136 0A       		.uleb128 0xa
 1311 0137 00       		.byte	0
 1312 0138 00       		.byte	0
 1313 0139 18       		.uleb128 0x18
 1314 013a 34       		.uleb128 0x34
 1315 013b 00       		.byte	0
 1316 013c 03       		.uleb128 0x3
 1317 013d 0E       		.uleb128 0xe
 1318 013e 3A       		.uleb128 0x3a
ARM GAS  /var/folders/lp/0dm50ddn51vc39svyzv_6fp00000gn/T//ccmLs69f.s 			page 28


 1319 013f 0B       		.uleb128 0xb
 1320 0140 3B       		.uleb128 0x3b
 1321 0141 0B       		.uleb128 0xb
 1322 0142 49       		.uleb128 0x49
 1323 0143 13       		.uleb128 0x13
 1324 0144 02       		.uleb128 0x2
 1325 0145 06       		.uleb128 0x6
 1326 0146 00       		.byte	0
 1327 0147 00       		.byte	0
 1328 0148 19       		.uleb128 0x19
 1329 0149 0F       		.uleb128 0xf
 1330 014a 00       		.byte	0
 1331 014b 0B       		.uleb128 0xb
 1332 014c 0B       		.uleb128 0xb
 1333 014d 49       		.uleb128 0x49
 1334 014e 13       		.uleb128 0x13
 1335 014f 00       		.byte	0
 1336 0150 00       		.byte	0
 1337 0151 1A       		.uleb128 0x1a
 1338 0152 34       		.uleb128 0x34
 1339 0153 00       		.byte	0
 1340 0154 03       		.uleb128 0x3
 1341 0155 0E       		.uleb128 0xe
 1342 0156 3A       		.uleb128 0x3a
 1343 0157 0B       		.uleb128 0xb
 1344 0158 3B       		.uleb128 0x3b
 1345 0159 05       		.uleb128 0x5
 1346 015a 49       		.uleb128 0x49
 1347 015b 13       		.uleb128 0x13
 1348 015c 3F       		.uleb128 0x3f
 1349 015d 0C       		.uleb128 0xc
 1350 015e 3C       		.uleb128 0x3c
 1351 015f 0C       		.uleb128 0xc
 1352 0160 00       		.byte	0
 1353 0161 00       		.byte	0
 1354 0162 00       		.byte	0
 1355              		.section	.debug_loc,"",%progbits
 1356              	.Ldebug_loc0:
 1357              	.LLST0:
 1358 0000 00000000 		.4byte	.LVL0-.Ltext0
 1359 0004 04000000 		.4byte	.LVL1-.Ltext0
 1360 0008 0100     		.2byte	0x1
 1361 000a 50       		.byte	0x50
 1362 000b 04000000 		.4byte	.LVL1-.Ltext0
 1363 000f 14000000 		.4byte	.LFE29-.Ltext0
 1364 0013 0400     		.2byte	0x4
 1365 0015 F3       		.byte	0xf3
 1366 0016 01       		.uleb128 0x1
 1367 0017 50       		.byte	0x50
 1368 0018 9F       		.byte	0x9f
 1369 0019 00000000 		.4byte	0
 1370 001d 00000000 		.4byte	0
 1371              	.LLST1:
 1372 0021 14000000 		.4byte	.LFB30-.Ltext0
 1373 0025 18000000 		.4byte	.LCFI0-.Ltext0
 1374 0029 0200     		.2byte	0x2
 1375 002b 7D       		.byte	0x7d
ARM GAS  /var/folders/lp/0dm50ddn51vc39svyzv_6fp00000gn/T//ccmLs69f.s 			page 29


 1376 002c 00       		.sleb128 0
 1377 002d 18000000 		.4byte	.LCFI0-.Ltext0
 1378 0031 80000000 		.4byte	.LFE30-.Ltext0
 1379 0035 0200     		.2byte	0x2
 1380 0037 7D       		.byte	0x7d
 1381 0038 08       		.sleb128 8
 1382 0039 00000000 		.4byte	0
 1383 003d 00000000 		.4byte	0
 1384              	.LLST2:
 1385 0041 14000000 		.4byte	.LVL2-.Ltext0
 1386 0045 2C000000 		.4byte	.LVL3-.Ltext0
 1387 0049 0200     		.2byte	0x2
 1388 004b 30       		.byte	0x30
 1389 004c 9F       		.byte	0x9f
 1390 004d 2C000000 		.4byte	.LVL3-.Ltext0
 1391 0051 34000000 		.4byte	.LVL5-.Ltext0
 1392 0055 0100     		.2byte	0x1
 1393 0057 51       		.byte	0x51
 1394 0058 34000000 		.4byte	.LVL5-.Ltext0
 1395 005c 42000000 		.4byte	.LVL9-.Ltext0
 1396 0060 0100     		.2byte	0x1
 1397 0062 54       		.byte	0x54
 1398 0063 42000000 		.4byte	.LVL9-.Ltext0
 1399 0067 44000000 		.4byte	.LVL10-.Ltext0
 1400 006b 0500     		.2byte	0x5
 1401 006d 72       		.byte	0x72
 1402 006e 00       		.sleb128 0
 1403 006f 34       		.byte	0x34
 1404 0070 24       		.byte	0x24
 1405 0071 9F       		.byte	0x9f
 1406 0072 44000000 		.4byte	.LVL10-.Ltext0
 1407 0076 46000000 		.4byte	.LVL11-.Ltext0
 1408 007a 0100     		.2byte	0x1
 1409 007c 52       		.byte	0x52
 1410 007d 60000000 		.4byte	.LVL12-.Ltext0
 1411 0081 80000000 		.4byte	.LFE30-.Ltext0
 1412 0085 0200     		.2byte	0x2
 1413 0087 30       		.byte	0x30
 1414 0088 9F       		.byte	0x9f
 1415 0089 00000000 		.4byte	0
 1416 008d 00000000 		.4byte	0
 1417              	.LLST3:
 1418 0091 14000000 		.4byte	.LVL2-.Ltext0
 1419 0095 30000000 		.4byte	.LVL4-.Ltext0
 1420 0099 0200     		.2byte	0x2
 1421 009b 30       		.byte	0x30
 1422 009c 9F       		.byte	0x9f
 1423 009d 30000000 		.4byte	.LVL4-.Ltext0
 1424 00a1 34000000 		.4byte	.LVL5-.Ltext0
 1425 00a5 0100     		.2byte	0x1
 1426 00a7 54       		.byte	0x54
 1427 00a8 34000000 		.4byte	.LVL5-.Ltext0
 1428 00ac 3A000000 		.4byte	.LVL7-.Ltext0
 1429 00b0 0500     		.2byte	0x5
 1430 00b2 34       		.byte	0x34
 1431 00b3 71       		.byte	0x71
 1432 00b4 00       		.sleb128 0
ARM GAS  /var/folders/lp/0dm50ddn51vc39svyzv_6fp00000gn/T//ccmLs69f.s 			page 30


 1433 00b5 1C       		.byte	0x1c
 1434 00b6 9F       		.byte	0x9f
 1435 00b7 60000000 		.4byte	.LVL12-.Ltext0
 1436 00bb 80000000 		.4byte	.LFE30-.Ltext0
 1437 00bf 0200     		.2byte	0x2
 1438 00c1 30       		.byte	0x30
 1439 00c2 9F       		.byte	0x9f
 1440 00c3 00000000 		.4byte	0
 1441 00c7 00000000 		.4byte	0
 1442              	.LLST4:
 1443 00cb 14000000 		.4byte	.LVL2-.Ltext0
 1444 00cf 30000000 		.4byte	.LVL4-.Ltext0
 1445 00d3 0200     		.2byte	0x2
 1446 00d5 3F       		.byte	0x3f
 1447 00d6 9F       		.byte	0x9f
 1448 00d7 30000000 		.4byte	.LVL4-.Ltext0
 1449 00db 38000000 		.4byte	.LVL6-.Ltext0
 1450 00df 0500     		.2byte	0x5
 1451 00e1 3F       		.byte	0x3f
 1452 00e2 71       		.byte	0x71
 1453 00e3 00       		.sleb128 0
 1454 00e4 25       		.byte	0x25
 1455 00e5 9F       		.byte	0x9f
 1456 00e6 38000000 		.4byte	.LVL6-.Ltext0
 1457 00ea 40000000 		.4byte	.LVL8-.Ltext0
 1458 00ee 0100     		.2byte	0x1
 1459 00f0 52       		.byte	0x52
 1460 00f1 60000000 		.4byte	.LVL12-.Ltext0
 1461 00f5 80000000 		.4byte	.LFE30-.Ltext0
 1462 00f9 0200     		.2byte	0x2
 1463 00fb 3F       		.byte	0x3f
 1464 00fc 9F       		.byte	0x9f
 1465 00fd 00000000 		.4byte	0
 1466 0101 00000000 		.4byte	0
 1467              	.LLST5:
 1468 0105 80000000 		.4byte	.LVL13-.Ltext0
 1469 0109 8C000000 		.4byte	.LVL15-.Ltext0
 1470 010d 0100     		.2byte	0x1
 1471 010f 50       		.byte	0x50
 1472 0110 8C000000 		.4byte	.LVL15-.Ltext0
 1473 0114 94000000 		.4byte	.LFE31-.Ltext0
 1474 0118 0400     		.2byte	0x4
 1475 011a F3       		.byte	0xf3
 1476 011b 01       		.uleb128 0x1
 1477 011c 50       		.byte	0x50
 1478 011d 9F       		.byte	0x9f
 1479 011e 00000000 		.4byte	0
 1480 0122 00000000 		.4byte	0
 1481              	.LLST6:
 1482 0126 80000000 		.4byte	.LVL13-.Ltext0
 1483 012a 84000000 		.4byte	.LVL14-.Ltext0
 1484 012e 0100     		.2byte	0x1
 1485 0130 51       		.byte	0x51
 1486 0131 84000000 		.4byte	.LVL14-.Ltext0
 1487 0135 94000000 		.4byte	.LFE31-.Ltext0
 1488 0139 0400     		.2byte	0x4
 1489 013b F3       		.byte	0xf3
ARM GAS  /var/folders/lp/0dm50ddn51vc39svyzv_6fp00000gn/T//ccmLs69f.s 			page 31


 1490 013c 01       		.uleb128 0x1
 1491 013d 51       		.byte	0x51
 1492 013e 9F       		.byte	0x9f
 1493 013f 00000000 		.4byte	0
 1494 0143 00000000 		.4byte	0
 1495              	.LLST7:
 1496 0147 94000000 		.4byte	.LVL16-.Ltext0
 1497 014b 9C000000 		.4byte	.LVL17-.Ltext0
 1498 014f 0100     		.2byte	0x1
 1499 0151 50       		.byte	0x50
 1500 0152 9C000000 		.4byte	.LVL17-.Ltext0
 1501 0156 9E000000 		.4byte	.LVL18-.Ltext0
 1502 015a 0400     		.2byte	0x4
 1503 015c F3       		.byte	0xf3
 1504 015d 01       		.uleb128 0x1
 1505 015e 50       		.byte	0x50
 1506 015f 9F       		.byte	0x9f
 1507 0160 9E000000 		.4byte	.LVL18-.Ltext0
 1508 0164 A2000000 		.4byte	.LVL19-.Ltext0
 1509 0168 0100     		.2byte	0x1
 1510 016a 50       		.byte	0x50
 1511 016b A2000000 		.4byte	.LVL19-.Ltext0
 1512 016f AC000000 		.4byte	.LFE32-.Ltext0
 1513 0173 0400     		.2byte	0x4
 1514 0175 F3       		.byte	0xf3
 1515 0176 01       		.uleb128 0x1
 1516 0177 50       		.byte	0x50
 1517 0178 9F       		.byte	0x9f
 1518 0179 00000000 		.4byte	0
 1519 017d 00000000 		.4byte	0
 1520              		.section	.debug_aranges,"",%progbits
 1521 0000 1C000000 		.4byte	0x1c
 1522 0004 0200     		.2byte	0x2
 1523 0006 00000000 		.4byte	.Ldebug_info0
 1524 000a 04       		.byte	0x4
 1525 000b 00       		.byte	0
 1526 000c 0000     		.2byte	0
 1527 000e 0000     		.2byte	0
 1528 0010 00000000 		.4byte	.Ltext0
 1529 0014 C4000000 		.4byte	.Letext0-.Ltext0
 1530 0018 00000000 		.4byte	0
 1531 001c 00000000 		.4byte	0
 1532              		.section	.debug_line,"",%progbits
 1533              	.Ldebug_line0:
 1534 0000 E5010000 		.section	.debug_str,"MS",%progbits,1
 1534      0200A001 
 1534      00000201 
 1534      FB0E0D00 
 1534      01010101 
 1535              	.LASF12:
 1536 0000 75696E74 		.ascii	"uint32_t\000"
 1536      33325F74 
 1536      00
 1537              	.LASF21:
 1538 0009 49414252 		.ascii	"IABR\000"
 1538      00
 1539              	.LASF52:
ARM GAS  /var/folders/lp/0dm50ddn51vc39svyzv_6fp00000gn/T//ccmLs69f.s 			page 32


 1540 000e 4E564943 		.ascii	"NVIC_InitTypeDef\000"
 1540      5F496E69 
 1540      74547970 
 1540      65446566 
 1540      00
 1541              	.LASF51:
 1542 001f 4E564943 		.ascii	"NVIC_IRQChannelCmd\000"
 1542      5F495251 
 1542      4368616E 
 1542      6E656C43 
 1542      6D6400
 1543              	.LASF67:
 1544 0032 53797354 		.ascii	"SysTick_CLKSource\000"
 1544      69636B5F 
 1544      434C4B53 
 1544      6F757263 
 1544      6500
 1545              	.LASF56:
 1546 0044 4E564943 		.ascii	"NVIC_InitStruct\000"
 1546      5F496E69 
 1546      74537472 
 1546      75637400 
 1547              	.LASF55:
 1548 0054 4E564943 		.ascii	"NVIC_PriorityGroup\000"
 1548      5F507269 
 1548      6F726974 
 1548      7947726F 
 1548      757000
 1549              	.LASF35:
 1550 0067 4D4D4641 		.ascii	"MMFAR\000"
 1550      5200
 1551              	.LASF2:
 1552 006d 73686F72 		.ascii	"short int\000"
 1552      7420696E 
 1552      7400
 1553              	.LASF25:
 1554 0077 73697A65 		.ascii	"sizetype\000"
 1554      74797065 
 1554      00
 1555              	.LASF54:
 1556 0080 4E564943 		.ascii	"NVIC_Init\000"
 1556      5F496E69 
 1556      7400
 1557              	.LASF58:
 1558 008a 746D7070 		.ascii	"tmppre\000"
 1558      726500
 1559              	.LASF6:
 1560 0091 5F5F7569 		.ascii	"__uint32_t\000"
 1560      6E743332 
 1560      5F7400
 1561              	.LASF68:
 1562 009c 474E5520 		.ascii	"GNU C11 5.4.1 20160919 (release) [ARM/embedded-5-br"
 1562      43313120 
 1562      352E342E 
 1562      31203230 
 1562      31363039 
 1563 00cf 616E6368 		.ascii	"anch revision 240496] -mcpu=cortex-m3 -mthumb -g -g"
ARM GAS  /var/folders/lp/0dm50ddn51vc39svyzv_6fp00000gn/T//ccmLs69f.s 			page 33


 1563      20726576 
 1563      6973696F 
 1563      6E203234 
 1563      30343936 
 1564 0102 64776172 		.ascii	"dwarf-2 -Os -fomit-frame-pointer\000"
 1564      662D3220 
 1564      2D4F7320 
 1564      2D666F6D 
 1564      69742D66 
 1565              	.LASF27:
 1566 0123 43505549 		.ascii	"CPUID\000"
 1566      4400
 1567              	.LASF13:
 1568 0129 49534552 		.ascii	"ISER\000"
 1568      00
 1569              	.LASF11:
 1570 012e 75696E74 		.ascii	"uint8_t\000"
 1570      385F7400 
 1571              	.LASF40:
 1572 0136 5343425F 		.ascii	"SCB_Type\000"
 1572      54797065 
 1572      00
 1573              	.LASF65:
 1574 013f 4E657753 		.ascii	"NewState\000"
 1574      74617465 
 1574      00
 1575              	.LASF24:
 1576 0148 53544952 		.ascii	"STIR\000"
 1576      00
 1577              	.LASF45:
 1578 014d 44495341 		.ascii	"DISABLE\000"
 1578      424C4500 
 1579              	.LASF28:
 1580 0155 49435352 		.ascii	"ICSR\000"
 1580      00
 1581              	.LASF16:
 1582 015a 52534552 		.ascii	"RSERVED1\000"
 1582      56454431 
 1582      00
 1583              	.LASF8:
 1584 0163 6C6F6E67 		.ascii	"long long int\000"
 1584      206C6F6E 
 1584      6720696E 
 1584      7400
 1585              	.LASF62:
 1586 0171 4F666673 		.ascii	"Offset\000"
 1586      657400
 1587              	.LASF36:
 1588 0178 42464152 		.ascii	"BFAR\000"
 1588      00
 1589              	.LASF4:
 1590 017d 6C6F6E67 		.ascii	"long int\000"
 1590      20696E74 
 1590      00
 1591              	.LASF5:
 1592 0186 5F5F7569 		.ascii	"__uint8_t\000"
 1592      6E74385F 
ARM GAS  /var/folders/lp/0dm50ddn51vc39svyzv_6fp00000gn/T//ccmLs69f.s 			page 34


 1592      7400
 1593              	.LASF32:
 1594 0190 43465352 		.ascii	"CFSR\000"
 1594      00
 1595              	.LASF30:
 1596 0195 41495243 		.ascii	"AIRCR\000"
 1596      5200
 1597              	.LASF1:
 1598 019b 756E7369 		.ascii	"unsigned char\000"
 1598      676E6564 
 1598      20636861 
 1598      7200
 1599              	.LASF41:
 1600 01a9 4354524C 		.ascii	"CTRL\000"
 1600      00
 1601              	.LASF60:
 1602 01ae 4E564943 		.ascii	"NVIC_SetVectorTable\000"
 1602      5F536574 
 1602      56656374 
 1602      6F725461 
 1602      626C6500 
 1603              	.LASF19:
 1604 01c2 49435052 		.ascii	"ICPR\000"
 1604      00
 1605              	.LASF0:
 1606 01c7 7369676E 		.ascii	"signed char\000"
 1606      65642063 
 1606      68617200 
 1607              	.LASF9:
 1608 01d3 6C6F6E67 		.ascii	"long long unsigned int\000"
 1608      206C6F6E 
 1608      6720756E 
 1608      7369676E 
 1608      65642069 
 1609              	.LASF43:
 1610 01ea 43414C49 		.ascii	"CALIB\000"
 1610      4200
 1611              	.LASF31:
 1612 01f0 53484353 		.ascii	"SHCSR\000"
 1612      5200
 1613              	.LASF10:
 1614 01f6 756E7369 		.ascii	"unsigned int\000"
 1614      676E6564 
 1614      20696E74 
 1614      00
 1615              	.LASF15:
 1616 0203 49434552 		.ascii	"ICER\000"
 1616      00
 1617              	.LASF59:
 1618 0208 746D7073 		.ascii	"tmpsub\000"
 1618      756200
 1619              	.LASF63:
 1620 020f 4E564943 		.ascii	"NVIC_SystemLPConfig\000"
 1620      5F537973 
 1620      74656D4C 
 1620      50436F6E 
 1620      66696700 
ARM GAS  /var/folders/lp/0dm50ddn51vc39svyzv_6fp00000gn/T//ccmLs69f.s 			page 35


 1621              	.LASF66:
 1622 0223 53797354 		.ascii	"SysTick_CLKSourceConfig\000"
 1622      69636B5F 
 1622      434C4B53 
 1622      6F757263 
 1622      65436F6E 
 1623              	.LASF44:
 1624 023b 53797354 		.ascii	"SysTick_Type\000"
 1624      69636B5F 
 1624      54797065 
 1624      00
 1625              	.LASF3:
 1626 0248 73686F72 		.ascii	"short unsigned int\000"
 1626      7420756E 
 1626      7369676E 
 1626      65642069 
 1626      6E7400
 1627              	.LASF57:
 1628 025b 746D7070 		.ascii	"tmppriority\000"
 1628      72696F72 
 1628      69747900 
 1629              	.LASF29:
 1630 0267 56544F52 		.ascii	"VTOR\000"
 1630      00
 1631              	.LASF39:
 1632 026c 49534152 		.ascii	"ISAR\000"
 1632      00
 1633              	.LASF17:
 1634 0271 49535052 		.ascii	"ISPR\000"
 1634      00
 1635              	.LASF34:
 1636 0276 44465352 		.ascii	"DFSR\000"
 1636      00
 1637              	.LASF70:
 1638 027b 2F557365 		.ascii	"/Users/yanbo/Projects/stm32f10x_makefile_template\000"
 1638      72732F79 
 1638      616E626F 
 1638      2F50726F 
 1638      6A656374 
 1639              	.LASF48:
 1640 02ad 4E564943 		.ascii	"NVIC_IRQChannel\000"
 1640      5F495251 
 1640      4368616E 
 1640      6E656C00 
 1641              	.LASF50:
 1642 02bd 4E564943 		.ascii	"NVIC_IRQChannelSubPriority\000"
 1642      5F495251 
 1642      4368616E 
 1642      6E656C53 
 1642      75625072 
 1643              	.LASF33:
 1644 02d8 48465352 		.ascii	"HFSR\000"
 1644      00
 1645              	.LASF38:
 1646 02dd 4D4D4652 		.ascii	"MMFR\000"
 1646      00
 1647              	.LASF14:
ARM GAS  /var/folders/lp/0dm50ddn51vc39svyzv_6fp00000gn/T//ccmLs69f.s 			page 36


 1648 02e2 52455345 		.ascii	"RESERVED0\000"
 1648      52564544 
 1648      3000
 1649              	.LASF18:
 1650 02ec 52455345 		.ascii	"RESERVED2\000"
 1650      52564544 
 1650      3200
 1651              	.LASF20:
 1652 02f6 52455345 		.ascii	"RESERVED3\000"
 1652      52564544 
 1652      3300
 1653              	.LASF22:
 1654 0300 52455345 		.ascii	"RESERVED4\000"
 1654      52564544 
 1654      3400
 1655              	.LASF23:
 1656 030a 52455345 		.ascii	"RESERVED5\000"
 1656      52564544 
 1656      3500
 1657              	.LASF7:
 1658 0314 6C6F6E67 		.ascii	"long unsigned int\000"
 1658      20756E73 
 1658      69676E65 
 1658      6420696E 
 1658      7400
 1659              	.LASF26:
 1660 0326 4E564943 		.ascii	"NVIC_Type\000"
 1660      5F547970 
 1660      6500
 1661              	.LASF49:
 1662 0330 4E564943 		.ascii	"NVIC_IRQChannelPreemptionPriority\000"
 1662      5F495251 
 1662      4368616E 
 1662      6E656C50 
 1662      7265656D 
 1663              	.LASF47:
 1664 0352 46756E63 		.ascii	"FunctionalState\000"
 1664      74696F6E 
 1664      616C5374 
 1664      61746500 
 1665              	.LASF61:
 1666 0362 4E564943 		.ascii	"NVIC_VectTab\000"
 1666      5F566563 
 1666      74546162 
 1666      00
 1667              	.LASF42:
 1668 036f 4C4F4144 		.ascii	"LOAD\000"
 1668      00
 1669              	.LASF69:
 1670 0374 4C696272 		.ascii	"Libraries/STM32F10x_StdPeriph_Driver/src/misc.c\000"
 1670      61726965 
 1670      732F5354 
 1670      4D333246 
 1670      3130785F 
 1671              	.LASF37:
 1672 03a4 41465352 		.ascii	"AFSR\000"
 1672      00
ARM GAS  /var/folders/lp/0dm50ddn51vc39svyzv_6fp00000gn/T//ccmLs69f.s 			page 37


 1673              	.LASF64:
 1674 03a9 4C6F7750 		.ascii	"LowPowerMode\000"
 1674      6F776572 
 1674      4D6F6465 
 1674      00
 1675              	.LASF71:
 1676 03b6 49544D5F 		.ascii	"ITM_RxBuffer\000"
 1676      52784275 
 1676      66666572 
 1676      00
 1677              	.LASF46:
 1678 03c3 454E4142 		.ascii	"ENABLE\000"
 1678      4C4500
 1679              	.LASF53:
 1680 03ca 4E564943 		.ascii	"NVIC_PriorityGroupConfig\000"
 1680      5F507269 
 1680      6F726974 
 1680      7947726F 
 1680      7570436F 
 1681              		.ident	"GCC: (GNU Tools for ARM Embedded Processors) 5.4.1 20160919 (release) [ARM/embedded-5-bran
ARM GAS  /var/folders/lp/0dm50ddn51vc39svyzv_6fp00000gn/T//ccmLs69f.s 			page 38


DEFINED SYMBOLS
                            *ABS*:0000000000000000 misc.c
/var/folders/lp/0dm50ddn51vc39svyzv_6fp00000gn/T//ccmLs69f.s:76     .text:0000000000000000 $t
/var/folders/lp/0dm50ddn51vc39svyzv_6fp00000gn/T//ccmLs69f.s:81     .text:0000000000000000 NVIC_PriorityGroupConfig
/var/folders/lp/0dm50ddn51vc39svyzv_6fp00000gn/T//ccmLs69f.s:100    .text:0000000000000010 $d
/var/folders/lp/0dm50ddn51vc39svyzv_6fp00000gn/T//ccmLs69f.s:104    .text:0000000000000014 $t
/var/folders/lp/0dm50ddn51vc39svyzv_6fp00000gn/T//ccmLs69f.s:109    .text:0000000000000014 NVIC_Init
/var/folders/lp/0dm50ddn51vc39svyzv_6fp00000gn/T//ccmLs69f.s:193    .text:0000000000000078 $d
/var/folders/lp/0dm50ddn51vc39svyzv_6fp00000gn/T//ccmLs69f.s:198    .text:0000000000000080 $t
/var/folders/lp/0dm50ddn51vc39svyzv_6fp00000gn/T//ccmLs69f.s:203    .text:0000000000000080 NVIC_SetVectorTable
/var/folders/lp/0dm50ddn51vc39svyzv_6fp00000gn/T//ccmLs69f.s:223    .text:0000000000000090 $d
/var/folders/lp/0dm50ddn51vc39svyzv_6fp00000gn/T//ccmLs69f.s:227    .text:0000000000000094 $t
/var/folders/lp/0dm50ddn51vc39svyzv_6fp00000gn/T//ccmLs69f.s:232    .text:0000000000000094 NVIC_SystemLPConfig
/var/folders/lp/0dm50ddn51vc39svyzv_6fp00000gn/T//ccmLs69f.s:260    .text:00000000000000a8 $d
/var/folders/lp/0dm50ddn51vc39svyzv_6fp00000gn/T//ccmLs69f.s:264    .text:00000000000000ac $t
/var/folders/lp/0dm50ddn51vc39svyzv_6fp00000gn/T//ccmLs69f.s:269    .text:00000000000000ac SysTick_CLKSourceConfig
/var/folders/lp/0dm50ddn51vc39svyzv_6fp00000gn/T//ccmLs69f.s:291    .text:00000000000000c0 $d
                     .debug_frame:0000000000000010 $d

NO UNDEFINED SYMBOLS
