ARM GAS  /var/folders/lp/0dm50ddn51vc39svyzv_6fp00000gn/T//ccLUgEfv.s 			page 1


   1              		.syntax unified
   2              		.cpu cortex-m3
   3              		.fpu softvfp
   4              		.eabi_attribute 20, 1	@ Tag_ABI_FP_denormal
   5              		.eabi_attribute 21, 1	@ Tag_ABI_FP_exceptions
   6              		.eabi_attribute 23, 3	@ Tag_ABI_FP_number_model
   7              		.eabi_attribute 24, 1	@ Tag_ABI_align8_needed
   8              		.eabi_attribute 25, 1	@ Tag_ABI_align8_preserved
   9              		.eabi_attribute 26, 1	@ Tag_ABI_enum_size
  10              		.eabi_attribute 30, 4	@ Tag_ABI_optimization_goals
  11              		.eabi_attribute 34, 1	@ Tag_CPU_unaligned_access
  12              		.eabi_attribute 18, 4	@ Tag_ABI_PCS_wchar_t
  13              		.file	"stm32f10x_usart.c"
  14              	@ GNU C11 (GNU Tools for ARM Embedded Processors) version 5.4.1 20160919 (release) [ARM/embedded-5-
  15              	@	compiled by GNU C version 4.2.1 (Based on Apple Inc. build 5658) (LLVM build 2336.9.00), GMP vers
  16              	@ GGC heuristics: --param ggc-min-expand=100 --param ggc-min-heapsize=131072
  17              	@ options passed:  -I . -I ./user -I ./Libraries/CMSIS/CM3/CoreSupport
  18              	@ -I ./Libraries/CMSIS/CM3/DeviceSupport/ST/STM32F10x
  19              	@ -I ./Libraries/STM32F10x_StdPeriph_Driver/inc
  20              	@ -I ./Libraries/STM32F10x_StdPeriph_Driver -imultilib armv7-m
  21              	@ -iprefix /usr/local/share/gcc-arm-none-eabi-5_4-2016q3/bin/../lib/gcc/arm-none-eabi/5.4.1/
  22              	@ -isysroot /usr/local/share/gcc-arm-none-eabi-5_4-2016q3/bin/../arm-none-eabi
  23              	@ -D__USES_INITFINI__ -D STM32F10X_MD_VL -D USE_STDPERIPH_DRIVER
  24              	@ -D HSE_VALUE=8000000 -D RUN_FROM_FLASH=1
  25              	@ Libraries/STM32F10x_StdPeriph_Driver/src/stm32f10x_usart.c
  26              	@ -mcpu=cortex-m3 -mthumb
  27              	@ -auxbase-strip Libraries/STM32F10x_StdPeriph_Driver/src/stm32f10x_usart.o
  28              	@ -g -gdwarf-2 -Os -Wall -fomit-frame-pointer -fverbose-asm
  29              	@ options enabled:  -faggressive-loop-optimizations -falign-functions
  30              	@ -falign-jumps -falign-labels -falign-loops -fauto-inc-dec
  31              	@ -fbranch-count-reg -fcaller-saves -fchkp-check-incomplete-type
  32              	@ -fchkp-check-read -fchkp-check-write -fchkp-instrument-calls
  33              	@ -fchkp-narrow-bounds -fchkp-optimize -fchkp-store-bounds
  34              	@ -fchkp-use-static-bounds -fchkp-use-static-const-bounds
  35              	@ -fchkp-use-wrappers -fcombine-stack-adjustments -fcommon -fcompare-elim
  36              	@ -fcprop-registers -fcrossjumping -fcse-follow-jumps -fdefer-pop
  37              	@ -fdelete-null-pointer-checks -fdevirtualize -fdevirtualize-speculatively
  38              	@ -fdwarf2-cfi-asm -fearly-inlining -feliminate-unused-debug-types
  39              	@ -fexpensive-optimizations -fforward-propagate -ffunction-cse -fgcse
  40              	@ -fgcse-lm -fgnu-runtime -fgnu-unique -fguess-branch-probability
  41              	@ -fhoist-adjacent-loads -fident -fif-conversion -fif-conversion2
  42              	@ -findirect-inlining -finline -finline-atomics -finline-functions
  43              	@ -finline-functions-called-once -finline-small-functions -fipa-cp
  44              	@ -fipa-cp-alignment -fipa-icf -fipa-icf-functions -fipa-icf-variables
  45              	@ -fipa-profile -fipa-pure-const -fipa-ra -fipa-reference -fipa-sra
  46              	@ -fira-hoist-pressure -fira-share-save-slots -fira-share-spill-slots
  47              	@ -fisolate-erroneous-paths-dereference -fivopts -fkeep-static-consts
  48              	@ -fleading-underscore -flifetime-dse -flra-remat -flto-odr-type-merging
  49              	@ -fmath-errno -fmerge-constants -fmerge-debug-strings
  50              	@ -fmove-loop-invariants -fomit-frame-pointer -foptimize-sibling-calls
  51              	@ -fpartial-inlining -fpeephole -fpeephole2 -fprefetch-loop-arrays
  52              	@ -freg-struct-return -freorder-blocks -freorder-functions
  53              	@ -frerun-cse-after-loop -fsched-critical-path-heuristic
  54              	@ -fsched-dep-count-heuristic -fsched-group-heuristic -fsched-interblock
  55              	@ -fsched-last-insn-heuristic -fsched-pressure -fsched-rank-heuristic
  56              	@ -fsched-spec -fsched-spec-insn-heuristic -fsched-stalled-insns-dep
  57              	@ -fschedule-insns2 -fsection-anchors -fsemantic-interposition
ARM GAS  /var/folders/lp/0dm50ddn51vc39svyzv_6fp00000gn/T//ccLUgEfv.s 			page 2


  58              	@ -fshow-column -fsigned-zeros -fsplit-ivs-in-unroller -fsplit-wide-types
  59              	@ -fssa-phiopt -fstdarg-opt -fstrict-aliasing -fstrict-overflow
  60              	@ -fstrict-volatile-bitfields -fsync-libcalls -fthread-jumps
  61              	@ -ftoplevel-reorder -ftrapping-math -ftree-bit-ccp -ftree-builtin-call-dce
  62              	@ -ftree-ccp -ftree-ch -ftree-coalesce-vars -ftree-copy-prop
  63              	@ -ftree-copyrename -ftree-cselim -ftree-dce -ftree-dominator-opts
  64              	@ -ftree-dse -ftree-forwprop -ftree-fre -ftree-loop-if-convert
  65              	@ -ftree-loop-im -ftree-loop-ivcanon -ftree-loop-optimize
  66              	@ -ftree-parallelize-loops= -ftree-phiprop -ftree-pre -ftree-pta
  67              	@ -ftree-reassoc -ftree-scev-cprop -ftree-sink -ftree-slsr -ftree-sra
  68              	@ -ftree-switch-conversion -ftree-tail-merge -ftree-ter -ftree-vrp
  69              	@ -funit-at-a-time -fvar-tracking -fvar-tracking-assignments -fverbose-asm
  70              	@ -fzero-initialized-in-bss -masm-syntax-unified -mfix-cortex-m3-ldrd
  71              	@ -mlittle-endian -mpic-data-is-text-relative -msched-prolog -mthumb
  72              	@ -munaligned-access -mvectorize-with-neon-quad
  73              	
  74              		.text
  75              	.Ltext0:
  76              		.cfi_sections	.debug_frame
  77              		.align	1
  78              		.global	USART_DeInit
  79              		.thumb
  80              		.thumb_func
  81              		.type	USART_DeInit, %function
  82              	USART_DeInit:
  83              	.LFB29:
  84              		.file 1 "Libraries/STM32F10x_StdPeriph_Driver/src/stm32f10x_usart.c"
   1:Libraries/STM32F10x_StdPeriph_Driver/src/stm32f10x_usart.c **** /**
   2:Libraries/STM32F10x_StdPeriph_Driver/src/stm32f10x_usart.c ****   ******************************************************************************
   3:Libraries/STM32F10x_StdPeriph_Driver/src/stm32f10x_usart.c ****   * @file    stm32f10x_usart.c
   4:Libraries/STM32F10x_StdPeriph_Driver/src/stm32f10x_usart.c ****   * @author  MCD Application Team
   5:Libraries/STM32F10x_StdPeriph_Driver/src/stm32f10x_usart.c ****   * @version V3.5.0
   6:Libraries/STM32F10x_StdPeriph_Driver/src/stm32f10x_usart.c ****   * @date    11-March-2011
   7:Libraries/STM32F10x_StdPeriph_Driver/src/stm32f10x_usart.c ****   * @brief   This file provides all the USART firmware functions.
   8:Libraries/STM32F10x_StdPeriph_Driver/src/stm32f10x_usart.c ****   ******************************************************************************
   9:Libraries/STM32F10x_StdPeriph_Driver/src/stm32f10x_usart.c ****   * @attention
  10:Libraries/STM32F10x_StdPeriph_Driver/src/stm32f10x_usart.c ****   *
  11:Libraries/STM32F10x_StdPeriph_Driver/src/stm32f10x_usart.c ****   * THE PRESENT FIRMWARE WHICH IS FOR GUIDANCE ONLY AIMS AT PROVIDING CUSTOMERS
  12:Libraries/STM32F10x_StdPeriph_Driver/src/stm32f10x_usart.c ****   * WITH CODING INFORMATION REGARDING THEIR PRODUCTS IN ORDER FOR THEM TO SAVE
  13:Libraries/STM32F10x_StdPeriph_Driver/src/stm32f10x_usart.c ****   * TIME. AS A RESULT, STMICROELECTRONICS SHALL NOT BE HELD LIABLE FOR ANY
  14:Libraries/STM32F10x_StdPeriph_Driver/src/stm32f10x_usart.c ****   * DIRECT, INDIRECT OR CONSEQUENTIAL DAMAGES WITH RESPECT TO ANY CLAIMS ARISING
  15:Libraries/STM32F10x_StdPeriph_Driver/src/stm32f10x_usart.c ****   * FROM THE CONTENT OF SUCH FIRMWARE AND/OR THE USE MADE BY CUSTOMERS OF THE
  16:Libraries/STM32F10x_StdPeriph_Driver/src/stm32f10x_usart.c ****   * CODING INFORMATION CONTAINED HEREIN IN CONNECTION WITH THEIR PRODUCTS.
  17:Libraries/STM32F10x_StdPeriph_Driver/src/stm32f10x_usart.c ****   *
  18:Libraries/STM32F10x_StdPeriph_Driver/src/stm32f10x_usart.c ****   * <h2><center>&copy; COPYRIGHT 2011 STMicroelectronics</center></h2>
  19:Libraries/STM32F10x_StdPeriph_Driver/src/stm32f10x_usart.c ****   ******************************************************************************
  20:Libraries/STM32F10x_StdPeriph_Driver/src/stm32f10x_usart.c ****   */
  21:Libraries/STM32F10x_StdPeriph_Driver/src/stm32f10x_usart.c **** 
  22:Libraries/STM32F10x_StdPeriph_Driver/src/stm32f10x_usart.c **** /* Includes ------------------------------------------------------------------*/
  23:Libraries/STM32F10x_StdPeriph_Driver/src/stm32f10x_usart.c **** #include "stm32f10x_usart.h"
  24:Libraries/STM32F10x_StdPeriph_Driver/src/stm32f10x_usart.c **** #include "stm32f10x_rcc.h"
  25:Libraries/STM32F10x_StdPeriph_Driver/src/stm32f10x_usart.c **** 
  26:Libraries/STM32F10x_StdPeriph_Driver/src/stm32f10x_usart.c **** /** @addtogroup STM32F10x_StdPeriph_Driver
  27:Libraries/STM32F10x_StdPeriph_Driver/src/stm32f10x_usart.c ****   * @{
  28:Libraries/STM32F10x_StdPeriph_Driver/src/stm32f10x_usart.c ****   */
  29:Libraries/STM32F10x_StdPeriph_Driver/src/stm32f10x_usart.c **** 
  30:Libraries/STM32F10x_StdPeriph_Driver/src/stm32f10x_usart.c **** /** @defgroup USART 
ARM GAS  /var/folders/lp/0dm50ddn51vc39svyzv_6fp00000gn/T//ccLUgEfv.s 			page 3


  31:Libraries/STM32F10x_StdPeriph_Driver/src/stm32f10x_usart.c ****   * @brief USART driver modules
  32:Libraries/STM32F10x_StdPeriph_Driver/src/stm32f10x_usart.c ****   * @{
  33:Libraries/STM32F10x_StdPeriph_Driver/src/stm32f10x_usart.c ****   */
  34:Libraries/STM32F10x_StdPeriph_Driver/src/stm32f10x_usart.c **** 
  35:Libraries/STM32F10x_StdPeriph_Driver/src/stm32f10x_usart.c **** /** @defgroup USART_Private_TypesDefinitions
  36:Libraries/STM32F10x_StdPeriph_Driver/src/stm32f10x_usart.c ****   * @{
  37:Libraries/STM32F10x_StdPeriph_Driver/src/stm32f10x_usart.c ****   */
  38:Libraries/STM32F10x_StdPeriph_Driver/src/stm32f10x_usart.c **** 
  39:Libraries/STM32F10x_StdPeriph_Driver/src/stm32f10x_usart.c **** /**
  40:Libraries/STM32F10x_StdPeriph_Driver/src/stm32f10x_usart.c ****   * @}
  41:Libraries/STM32F10x_StdPeriph_Driver/src/stm32f10x_usart.c ****   */
  42:Libraries/STM32F10x_StdPeriph_Driver/src/stm32f10x_usart.c **** 
  43:Libraries/STM32F10x_StdPeriph_Driver/src/stm32f10x_usart.c **** /** @defgroup USART_Private_Defines
  44:Libraries/STM32F10x_StdPeriph_Driver/src/stm32f10x_usart.c ****   * @{
  45:Libraries/STM32F10x_StdPeriph_Driver/src/stm32f10x_usart.c ****   */
  46:Libraries/STM32F10x_StdPeriph_Driver/src/stm32f10x_usart.c **** 
  47:Libraries/STM32F10x_StdPeriph_Driver/src/stm32f10x_usart.c **** #define CR1_UE_Set                ((uint16_t)0x2000)  /*!< USART Enable Mask */
  48:Libraries/STM32F10x_StdPeriph_Driver/src/stm32f10x_usart.c **** #define CR1_UE_Reset              ((uint16_t)0xDFFF)  /*!< USART Disable Mask */
  49:Libraries/STM32F10x_StdPeriph_Driver/src/stm32f10x_usart.c **** 
  50:Libraries/STM32F10x_StdPeriph_Driver/src/stm32f10x_usart.c **** #define CR1_WAKE_Mask             ((uint16_t)0xF7FF)  /*!< USART WakeUp Method Mask */
  51:Libraries/STM32F10x_StdPeriph_Driver/src/stm32f10x_usart.c **** 
  52:Libraries/STM32F10x_StdPeriph_Driver/src/stm32f10x_usart.c **** #define CR1_RWU_Set               ((uint16_t)0x0002)  /*!< USART mute mode Enable Mask */
  53:Libraries/STM32F10x_StdPeriph_Driver/src/stm32f10x_usart.c **** #define CR1_RWU_Reset             ((uint16_t)0xFFFD)  /*!< USART mute mode Enable Mask */
  54:Libraries/STM32F10x_StdPeriph_Driver/src/stm32f10x_usart.c **** #define CR1_SBK_Set               ((uint16_t)0x0001)  /*!< USART Break Character send Mask */
  55:Libraries/STM32F10x_StdPeriph_Driver/src/stm32f10x_usart.c **** #define CR1_CLEAR_Mask            ((uint16_t)0xE9F3)  /*!< USART CR1 Mask */
  56:Libraries/STM32F10x_StdPeriph_Driver/src/stm32f10x_usart.c **** #define CR2_Address_Mask          ((uint16_t)0xFFF0)  /*!< USART address Mask */
  57:Libraries/STM32F10x_StdPeriph_Driver/src/stm32f10x_usart.c **** 
  58:Libraries/STM32F10x_StdPeriph_Driver/src/stm32f10x_usart.c **** #define CR2_LINEN_Set              ((uint16_t)0x4000)  /*!< USART LIN Enable Mask */
  59:Libraries/STM32F10x_StdPeriph_Driver/src/stm32f10x_usart.c **** #define CR2_LINEN_Reset            ((uint16_t)0xBFFF)  /*!< USART LIN Disable Mask */
  60:Libraries/STM32F10x_StdPeriph_Driver/src/stm32f10x_usart.c **** 
  61:Libraries/STM32F10x_StdPeriph_Driver/src/stm32f10x_usart.c **** #define CR2_LBDL_Mask             ((uint16_t)0xFFDF)  /*!< USART LIN Break detection Mask */
  62:Libraries/STM32F10x_StdPeriph_Driver/src/stm32f10x_usart.c **** #define CR2_STOP_CLEAR_Mask       ((uint16_t)0xCFFF)  /*!< USART CR2 STOP Bits Mask */
  63:Libraries/STM32F10x_StdPeriph_Driver/src/stm32f10x_usart.c **** #define CR2_CLOCK_CLEAR_Mask      ((uint16_t)0xF0FF)  /*!< USART CR2 Clock Mask */
  64:Libraries/STM32F10x_StdPeriph_Driver/src/stm32f10x_usart.c **** 
  65:Libraries/STM32F10x_StdPeriph_Driver/src/stm32f10x_usart.c **** #define CR3_SCEN_Set              ((uint16_t)0x0020)  /*!< USART SC Enable Mask */
  66:Libraries/STM32F10x_StdPeriph_Driver/src/stm32f10x_usart.c **** #define CR3_SCEN_Reset            ((uint16_t)0xFFDF)  /*!< USART SC Disable Mask */
  67:Libraries/STM32F10x_StdPeriph_Driver/src/stm32f10x_usart.c **** 
  68:Libraries/STM32F10x_StdPeriph_Driver/src/stm32f10x_usart.c **** #define CR3_NACK_Set              ((uint16_t)0x0010)  /*!< USART SC NACK Enable Mask */
  69:Libraries/STM32F10x_StdPeriph_Driver/src/stm32f10x_usart.c **** #define CR3_NACK_Reset            ((uint16_t)0xFFEF)  /*!< USART SC NACK Disable Mask */
  70:Libraries/STM32F10x_StdPeriph_Driver/src/stm32f10x_usart.c **** 
  71:Libraries/STM32F10x_StdPeriph_Driver/src/stm32f10x_usart.c **** #define CR3_HDSEL_Set             ((uint16_t)0x0008)  /*!< USART Half-Duplex Enable Mask */
  72:Libraries/STM32F10x_StdPeriph_Driver/src/stm32f10x_usart.c **** #define CR3_HDSEL_Reset           ((uint16_t)0xFFF7)  /*!< USART Half-Duplex Disable Mask */
  73:Libraries/STM32F10x_StdPeriph_Driver/src/stm32f10x_usart.c **** 
  74:Libraries/STM32F10x_StdPeriph_Driver/src/stm32f10x_usart.c **** #define CR3_IRLP_Mask             ((uint16_t)0xFFFB)  /*!< USART IrDA LowPower mode Mask */
  75:Libraries/STM32F10x_StdPeriph_Driver/src/stm32f10x_usart.c **** #define CR3_CLEAR_Mask            ((uint16_t)0xFCFF)  /*!< USART CR3 Mask */
  76:Libraries/STM32F10x_StdPeriph_Driver/src/stm32f10x_usart.c **** 
  77:Libraries/STM32F10x_StdPeriph_Driver/src/stm32f10x_usart.c **** #define CR3_IREN_Set              ((uint16_t)0x0002)  /*!< USART IrDA Enable Mask */
  78:Libraries/STM32F10x_StdPeriph_Driver/src/stm32f10x_usart.c **** #define CR3_IREN_Reset            ((uint16_t)0xFFFD)  /*!< USART IrDA Disable Mask */
  79:Libraries/STM32F10x_StdPeriph_Driver/src/stm32f10x_usart.c **** #define GTPR_LSB_Mask             ((uint16_t)0x00FF)  /*!< Guard Time Register LSB Mask */
  80:Libraries/STM32F10x_StdPeriph_Driver/src/stm32f10x_usart.c **** #define GTPR_MSB_Mask             ((uint16_t)0xFF00)  /*!< Guard Time Register MSB Mask */
  81:Libraries/STM32F10x_StdPeriph_Driver/src/stm32f10x_usart.c **** #define IT_Mask                   ((uint16_t)0x001F)  /*!< USART Interrupt Mask */
  82:Libraries/STM32F10x_StdPeriph_Driver/src/stm32f10x_usart.c **** 
  83:Libraries/STM32F10x_StdPeriph_Driver/src/stm32f10x_usart.c **** /* USART OverSampling-8 Mask */
  84:Libraries/STM32F10x_StdPeriph_Driver/src/stm32f10x_usart.c **** #define CR1_OVER8_Set             ((u16)0x8000)  /* USART OVER8 mode Enable Mask */
  85:Libraries/STM32F10x_StdPeriph_Driver/src/stm32f10x_usart.c **** #define CR1_OVER8_Reset           ((u16)0x7FFF)  /* USART OVER8 mode Disable Mask */
  86:Libraries/STM32F10x_StdPeriph_Driver/src/stm32f10x_usart.c **** 
  87:Libraries/STM32F10x_StdPeriph_Driver/src/stm32f10x_usart.c **** /* USART One Bit Sampling Mask */
ARM GAS  /var/folders/lp/0dm50ddn51vc39svyzv_6fp00000gn/T//ccLUgEfv.s 			page 4


  88:Libraries/STM32F10x_StdPeriph_Driver/src/stm32f10x_usart.c **** #define CR3_ONEBITE_Set           ((u16)0x0800)  /* USART ONEBITE mode Enable Mask */
  89:Libraries/STM32F10x_StdPeriph_Driver/src/stm32f10x_usart.c **** #define CR3_ONEBITE_Reset         ((u16)0xF7FF)  /* USART ONEBITE mode Disable Mask */
  90:Libraries/STM32F10x_StdPeriph_Driver/src/stm32f10x_usart.c **** 
  91:Libraries/STM32F10x_StdPeriph_Driver/src/stm32f10x_usart.c **** /**
  92:Libraries/STM32F10x_StdPeriph_Driver/src/stm32f10x_usart.c ****   * @}
  93:Libraries/STM32F10x_StdPeriph_Driver/src/stm32f10x_usart.c ****   */
  94:Libraries/STM32F10x_StdPeriph_Driver/src/stm32f10x_usart.c **** 
  95:Libraries/STM32F10x_StdPeriph_Driver/src/stm32f10x_usart.c **** /** @defgroup USART_Private_Macros
  96:Libraries/STM32F10x_StdPeriph_Driver/src/stm32f10x_usart.c ****   * @{
  97:Libraries/STM32F10x_StdPeriph_Driver/src/stm32f10x_usart.c ****   */
  98:Libraries/STM32F10x_StdPeriph_Driver/src/stm32f10x_usart.c **** 
  99:Libraries/STM32F10x_StdPeriph_Driver/src/stm32f10x_usart.c **** /**
 100:Libraries/STM32F10x_StdPeriph_Driver/src/stm32f10x_usart.c ****   * @}
 101:Libraries/STM32F10x_StdPeriph_Driver/src/stm32f10x_usart.c ****   */
 102:Libraries/STM32F10x_StdPeriph_Driver/src/stm32f10x_usart.c **** 
 103:Libraries/STM32F10x_StdPeriph_Driver/src/stm32f10x_usart.c **** /** @defgroup USART_Private_Variables
 104:Libraries/STM32F10x_StdPeriph_Driver/src/stm32f10x_usart.c ****   * @{
 105:Libraries/STM32F10x_StdPeriph_Driver/src/stm32f10x_usart.c ****   */
 106:Libraries/STM32F10x_StdPeriph_Driver/src/stm32f10x_usart.c **** 
 107:Libraries/STM32F10x_StdPeriph_Driver/src/stm32f10x_usart.c **** /**
 108:Libraries/STM32F10x_StdPeriph_Driver/src/stm32f10x_usart.c ****   * @}
 109:Libraries/STM32F10x_StdPeriph_Driver/src/stm32f10x_usart.c ****   */
 110:Libraries/STM32F10x_StdPeriph_Driver/src/stm32f10x_usart.c **** 
 111:Libraries/STM32F10x_StdPeriph_Driver/src/stm32f10x_usart.c **** /** @defgroup USART_Private_FunctionPrototypes
 112:Libraries/STM32F10x_StdPeriph_Driver/src/stm32f10x_usart.c ****   * @{
 113:Libraries/STM32F10x_StdPeriph_Driver/src/stm32f10x_usart.c ****   */
 114:Libraries/STM32F10x_StdPeriph_Driver/src/stm32f10x_usart.c **** 
 115:Libraries/STM32F10x_StdPeriph_Driver/src/stm32f10x_usart.c **** /**
 116:Libraries/STM32F10x_StdPeriph_Driver/src/stm32f10x_usart.c ****   * @}
 117:Libraries/STM32F10x_StdPeriph_Driver/src/stm32f10x_usart.c ****   */
 118:Libraries/STM32F10x_StdPeriph_Driver/src/stm32f10x_usart.c **** 
 119:Libraries/STM32F10x_StdPeriph_Driver/src/stm32f10x_usart.c **** /** @defgroup USART_Private_Functions
 120:Libraries/STM32F10x_StdPeriph_Driver/src/stm32f10x_usart.c ****   * @{
 121:Libraries/STM32F10x_StdPeriph_Driver/src/stm32f10x_usart.c ****   */
 122:Libraries/STM32F10x_StdPeriph_Driver/src/stm32f10x_usart.c **** 
 123:Libraries/STM32F10x_StdPeriph_Driver/src/stm32f10x_usart.c **** /**
 124:Libraries/STM32F10x_StdPeriph_Driver/src/stm32f10x_usart.c ****   * @brief  Deinitializes the USARTx peripheral registers to their default reset values.
 125:Libraries/STM32F10x_StdPeriph_Driver/src/stm32f10x_usart.c ****   * @param  USARTx: Select the USART or the UART peripheral. 
 126:Libraries/STM32F10x_StdPeriph_Driver/src/stm32f10x_usart.c ****   *   This parameter can be one of the following values: 
 127:Libraries/STM32F10x_StdPeriph_Driver/src/stm32f10x_usart.c ****   *      USART1, USART2, USART3, UART4 or UART5.
 128:Libraries/STM32F10x_StdPeriph_Driver/src/stm32f10x_usart.c ****   * @retval None
 129:Libraries/STM32F10x_StdPeriph_Driver/src/stm32f10x_usart.c ****   */
 130:Libraries/STM32F10x_StdPeriph_Driver/src/stm32f10x_usart.c **** void USART_DeInit(USART_TypeDef* USARTx)
 131:Libraries/STM32F10x_StdPeriph_Driver/src/stm32f10x_usart.c **** {
  85              		.loc 1 131 0
  86              		.cfi_startproc
  87              		@ args = 0, pretend = 0, frame = 0
  88              		@ frame_needed = 0, uses_anonymous_args = 0
  89              	.LVL0:
  90 0000 08B5     		push	{r3, lr}	@
  91              	.LCFI0:
  92              		.cfi_def_cfa_offset 8
  93              		.cfi_offset 3, -8
  94              		.cfi_offset 14, -4
 132:Libraries/STM32F10x_StdPeriph_Driver/src/stm32f10x_usart.c ****   /* Check the parameters */
 133:Libraries/STM32F10x_StdPeriph_Driver/src/stm32f10x_usart.c ****   assert_param(IS_USART_ALL_PERIPH(USARTx));
 134:Libraries/STM32F10x_StdPeriph_Driver/src/stm32f10x_usart.c **** 
ARM GAS  /var/folders/lp/0dm50ddn51vc39svyzv_6fp00000gn/T//ccLUgEfv.s 			page 5


 135:Libraries/STM32F10x_StdPeriph_Driver/src/stm32f10x_usart.c ****   if (USARTx == USART1)
  95              		.loc 1 135 0
  96 0002 214B     		ldr	r3, .L9	@ tmp111,
  97 0004 9842     		cmp	r0, r3	@ USARTx, tmp111
  98 0006 0BD1     		bne	.L2	@,
 136:Libraries/STM32F10x_StdPeriph_Driver/src/stm32f10x_usart.c ****   {
 137:Libraries/STM32F10x_StdPeriph_Driver/src/stm32f10x_usart.c ****     RCC_APB2PeriphResetCmd(RCC_APB2Periph_USART1, ENABLE);
  99              		.loc 1 137 0
 100 0008 0121     		movs	r1, #1	@,
 101 000a 4FF48040 		mov	r0, #16384	@,
 102              	.LVL1:
 103 000e FFF7FEFF 		bl	RCC_APB2PeriphResetCmd	@
 104              	.LVL2:
 138:Libraries/STM32F10x_StdPeriph_Driver/src/stm32f10x_usart.c ****     RCC_APB2PeriphResetCmd(RCC_APB2Periph_USART1, DISABLE);
 139:Libraries/STM32F10x_StdPeriph_Driver/src/stm32f10x_usart.c ****   }
 140:Libraries/STM32F10x_StdPeriph_Driver/src/stm32f10x_usart.c ****   else if (USARTx == USART2)
 141:Libraries/STM32F10x_StdPeriph_Driver/src/stm32f10x_usart.c ****   {
 142:Libraries/STM32F10x_StdPeriph_Driver/src/stm32f10x_usart.c ****     RCC_APB1PeriphResetCmd(RCC_APB1Periph_USART2, ENABLE);
 143:Libraries/STM32F10x_StdPeriph_Driver/src/stm32f10x_usart.c ****     RCC_APB1PeriphResetCmd(RCC_APB1Periph_USART2, DISABLE);
 144:Libraries/STM32F10x_StdPeriph_Driver/src/stm32f10x_usart.c ****   }
 145:Libraries/STM32F10x_StdPeriph_Driver/src/stm32f10x_usart.c ****   else if (USARTx == USART3)
 146:Libraries/STM32F10x_StdPeriph_Driver/src/stm32f10x_usart.c ****   {
 147:Libraries/STM32F10x_StdPeriph_Driver/src/stm32f10x_usart.c ****     RCC_APB1PeriphResetCmd(RCC_APB1Periph_USART3, ENABLE);
 148:Libraries/STM32F10x_StdPeriph_Driver/src/stm32f10x_usart.c ****     RCC_APB1PeriphResetCmd(RCC_APB1Periph_USART3, DISABLE);
 149:Libraries/STM32F10x_StdPeriph_Driver/src/stm32f10x_usart.c ****   }    
 150:Libraries/STM32F10x_StdPeriph_Driver/src/stm32f10x_usart.c ****   else if (USARTx == UART4)
 151:Libraries/STM32F10x_StdPeriph_Driver/src/stm32f10x_usart.c ****   {
 152:Libraries/STM32F10x_StdPeriph_Driver/src/stm32f10x_usart.c ****     RCC_APB1PeriphResetCmd(RCC_APB1Periph_UART4, ENABLE);
 153:Libraries/STM32F10x_StdPeriph_Driver/src/stm32f10x_usart.c ****     RCC_APB1PeriphResetCmd(RCC_APB1Periph_UART4, DISABLE);
 154:Libraries/STM32F10x_StdPeriph_Driver/src/stm32f10x_usart.c ****   }    
 155:Libraries/STM32F10x_StdPeriph_Driver/src/stm32f10x_usart.c ****   else
 156:Libraries/STM32F10x_StdPeriph_Driver/src/stm32f10x_usart.c ****   {
 157:Libraries/STM32F10x_StdPeriph_Driver/src/stm32f10x_usart.c ****     if (USARTx == UART5)
 158:Libraries/STM32F10x_StdPeriph_Driver/src/stm32f10x_usart.c ****     { 
 159:Libraries/STM32F10x_StdPeriph_Driver/src/stm32f10x_usart.c ****       RCC_APB1PeriphResetCmd(RCC_APB1Periph_UART5, ENABLE);
 160:Libraries/STM32F10x_StdPeriph_Driver/src/stm32f10x_usart.c ****       RCC_APB1PeriphResetCmd(RCC_APB1Periph_UART5, DISABLE);
 161:Libraries/STM32F10x_StdPeriph_Driver/src/stm32f10x_usart.c ****     }
 162:Libraries/STM32F10x_StdPeriph_Driver/src/stm32f10x_usart.c ****   }
 163:Libraries/STM32F10x_StdPeriph_Driver/src/stm32f10x_usart.c **** }
 105              		.loc 1 163 0
 106 0012 BDE80840 		pop	{r3, lr}	@
 107              	.LCFI1:
 108              		.cfi_remember_state
 109              		.cfi_restore 14
 110              		.cfi_restore 3
 111              		.cfi_def_cfa_offset 0
 138:Libraries/STM32F10x_StdPeriph_Driver/src/stm32f10x_usart.c ****     RCC_APB2PeriphResetCmd(RCC_APB2Periph_USART1, DISABLE);
 112              		.loc 1 138 0
 113 0016 0021     		movs	r1, #0	@,
 114 0018 4FF48040 		mov	r0, #16384	@,
 115 001c FFF7FEBF 		b	RCC_APB2PeriphResetCmd	@
 116              	.LVL3:
 117              	.L2:
 118              	.LCFI2:
 119              		.cfi_restore_state
 140:Libraries/STM32F10x_StdPeriph_Driver/src/stm32f10x_usart.c ****   {
 120              		.loc 1 140 0
ARM GAS  /var/folders/lp/0dm50ddn51vc39svyzv_6fp00000gn/T//ccLUgEfv.s 			page 6


 121 0020 1A4B     		ldr	r3, .L9+4	@ tmp112,
 122 0022 9842     		cmp	r0, r3	@ USARTx, tmp112
 123 0024 08D1     		bne	.L3	@,
 142:Libraries/STM32F10x_StdPeriph_Driver/src/stm32f10x_usart.c ****     RCC_APB1PeriphResetCmd(RCC_APB1Periph_USART2, DISABLE);
 124              		.loc 1 142 0
 125 0026 0121     		movs	r1, #1	@,
 126 0028 4FF40030 		mov	r0, #131072	@,
 127              	.LVL4:
 128 002c FFF7FEFF 		bl	RCC_APB1PeriphResetCmd	@
 129              	.LVL5:
 143:Libraries/STM32F10x_StdPeriph_Driver/src/stm32f10x_usart.c ****   }
 130              		.loc 1 143 0
 131 0030 0021     		movs	r1, #0	@,
 132 0032 4FF40030 		mov	r0, #131072	@,
 133 0036 22E0     		b	.L7	@
 134              	.LVL6:
 135              	.L3:
 145:Libraries/STM32F10x_StdPeriph_Driver/src/stm32f10x_usart.c ****   {
 136              		.loc 1 145 0
 137 0038 154B     		ldr	r3, .L9+8	@ tmp113,
 138 003a 9842     		cmp	r0, r3	@ USARTx, tmp113
 139 003c 08D1     		bne	.L4	@,
 147:Libraries/STM32F10x_StdPeriph_Driver/src/stm32f10x_usart.c ****     RCC_APB1PeriphResetCmd(RCC_APB1Periph_USART3, DISABLE);
 140              		.loc 1 147 0
 141 003e 0121     		movs	r1, #1	@,
 142 0040 4FF48020 		mov	r0, #262144	@,
 143              	.LVL7:
 144 0044 FFF7FEFF 		bl	RCC_APB1PeriphResetCmd	@
 145              	.LVL8:
 148:Libraries/STM32F10x_StdPeriph_Driver/src/stm32f10x_usart.c ****   }    
 146              		.loc 1 148 0
 147 0048 0021     		movs	r1, #0	@,
 148 004a 4FF48020 		mov	r0, #262144	@,
 149 004e 16E0     		b	.L7	@
 150              	.LVL9:
 151              	.L4:
 150:Libraries/STM32F10x_StdPeriph_Driver/src/stm32f10x_usart.c ****   {
 152              		.loc 1 150 0
 153 0050 104B     		ldr	r3, .L9+12	@ tmp114,
 154 0052 9842     		cmp	r0, r3	@ USARTx, tmp114
 155 0054 08D1     		bne	.L5	@,
 152:Libraries/STM32F10x_StdPeriph_Driver/src/stm32f10x_usart.c ****     RCC_APB1PeriphResetCmd(RCC_APB1Periph_UART4, DISABLE);
 156              		.loc 1 152 0
 157 0056 0121     		movs	r1, #1	@,
 158 0058 4FF40020 		mov	r0, #524288	@,
 159              	.LVL10:
 160 005c FFF7FEFF 		bl	RCC_APB1PeriphResetCmd	@
 161              	.LVL11:
 153:Libraries/STM32F10x_StdPeriph_Driver/src/stm32f10x_usart.c ****   }    
 162              		.loc 1 153 0
 163 0060 0021     		movs	r1, #0	@,
 164 0062 4FF40020 		mov	r0, #524288	@,
 165 0066 0AE0     		b	.L7	@
 166              	.LVL12:
 167              	.L5:
 157:Libraries/STM32F10x_StdPeriph_Driver/src/stm32f10x_usart.c ****     { 
 168              		.loc 1 157 0
ARM GAS  /var/folders/lp/0dm50ddn51vc39svyzv_6fp00000gn/T//ccLUgEfv.s 			page 7


 169 0068 0B4B     		ldr	r3, .L9+16	@ tmp115,
 170 006a 9842     		cmp	r0, r3	@ USARTx, tmp115
 171 006c 0BD1     		bne	.L1	@,
 159:Libraries/STM32F10x_StdPeriph_Driver/src/stm32f10x_usart.c ****       RCC_APB1PeriphResetCmd(RCC_APB1Periph_UART5, DISABLE);
 172              		.loc 1 159 0
 173 006e 0121     		movs	r1, #1	@,
 174 0070 4FF48010 		mov	r0, #1048576	@,
 175              	.LVL13:
 176 0074 FFF7FEFF 		bl	RCC_APB1PeriphResetCmd	@
 177              	.LVL14:
 160:Libraries/STM32F10x_StdPeriph_Driver/src/stm32f10x_usart.c ****     }
 178              		.loc 1 160 0
 179 0078 0021     		movs	r1, #0	@,
 180 007a 4FF48010 		mov	r0, #1048576	@,
 181              	.L7:
 182              		.loc 1 163 0
 183 007e BDE80840 		pop	{r3, lr}	@
 184              	.LCFI3:
 185              		.cfi_remember_state
 186              		.cfi_restore 14
 187              		.cfi_restore 3
 188              		.cfi_def_cfa_offset 0
 160:Libraries/STM32F10x_StdPeriph_Driver/src/stm32f10x_usart.c ****     }
 189              		.loc 1 160 0
 190 0082 FFF7FEBF 		b	RCC_APB1PeriphResetCmd	@
 191              	.LVL15:
 192              	.L1:
 193              	.LCFI4:
 194              		.cfi_restore_state
 195 0086 08BD     		pop	{r3, pc}	@
 196              	.L10:
 197              		.align	2
 198              	.L9:
 199 0088 00380140 		.word	1073821696
 200 008c 00440040 		.word	1073759232
 201 0090 00480040 		.word	1073760256
 202 0094 004C0040 		.word	1073761280
 203 0098 00500040 		.word	1073762304
 204              		.cfi_endproc
 205              	.LFE29:
 206              		.size	USART_DeInit, .-USART_DeInit
 207              		.align	1
 208              		.global	USART_Init
 209              		.thumb
 210              		.thumb_func
 211              		.type	USART_Init, %function
 212              	USART_Init:
 213              	.LFB30:
 164:Libraries/STM32F10x_StdPeriph_Driver/src/stm32f10x_usart.c **** 
 165:Libraries/STM32F10x_StdPeriph_Driver/src/stm32f10x_usart.c **** /**
 166:Libraries/STM32F10x_StdPeriph_Driver/src/stm32f10x_usart.c ****   * @brief  Initializes the USARTx peripheral according to the specified
 167:Libraries/STM32F10x_StdPeriph_Driver/src/stm32f10x_usart.c ****   *         parameters in the USART_InitStruct .
 168:Libraries/STM32F10x_StdPeriph_Driver/src/stm32f10x_usart.c ****   * @param  USARTx: Select the USART or the UART peripheral. 
 169:Libraries/STM32F10x_StdPeriph_Driver/src/stm32f10x_usart.c ****   *   This parameter can be one of the following values:
 170:Libraries/STM32F10x_StdPeriph_Driver/src/stm32f10x_usart.c ****   *   USART1, USART2, USART3, UART4 or UART5.
 171:Libraries/STM32F10x_StdPeriph_Driver/src/stm32f10x_usart.c ****   * @param  USART_InitStruct: pointer to a USART_InitTypeDef structure
 172:Libraries/STM32F10x_StdPeriph_Driver/src/stm32f10x_usart.c ****   *         that contains the configuration information for the specified USART 
ARM GAS  /var/folders/lp/0dm50ddn51vc39svyzv_6fp00000gn/T//ccLUgEfv.s 			page 8


 173:Libraries/STM32F10x_StdPeriph_Driver/src/stm32f10x_usart.c ****   *         peripheral.
 174:Libraries/STM32F10x_StdPeriph_Driver/src/stm32f10x_usart.c ****   * @retval None
 175:Libraries/STM32F10x_StdPeriph_Driver/src/stm32f10x_usart.c ****   */
 176:Libraries/STM32F10x_StdPeriph_Driver/src/stm32f10x_usart.c **** void USART_Init(USART_TypeDef* USARTx, USART_InitTypeDef* USART_InitStruct)
 177:Libraries/STM32F10x_StdPeriph_Driver/src/stm32f10x_usart.c **** {
 214              		.loc 1 177 0
 215              		.cfi_startproc
 216              		@ args = 0, pretend = 0, frame = 24
 217              		@ frame_needed = 0, uses_anonymous_args = 0
 218              	.LVL16:
 219 009c 70B5     		push	{r4, r5, r6, lr}	@
 220              	.LCFI5:
 221              		.cfi_def_cfa_offset 16
 222              		.cfi_offset 4, -16
 223              		.cfi_offset 5, -12
 224              		.cfi_offset 6, -8
 225              		.cfi_offset 14, -4
 226 009e 0E46     		mov	r6, r1	@ USART_InitStruct, USART_InitStruct
 227 00a0 0446     		mov	r4, r0	@ USARTx, USARTx
 178:Libraries/STM32F10x_StdPeriph_Driver/src/stm32f10x_usart.c ****   uint32_t tmpreg = 0x00, apbclock = 0x00;
 179:Libraries/STM32F10x_StdPeriph_Driver/src/stm32f10x_usart.c ****   uint32_t integerdivider = 0x00;
 180:Libraries/STM32F10x_StdPeriph_Driver/src/stm32f10x_usart.c ****   uint32_t fractionaldivider = 0x00;
 181:Libraries/STM32F10x_StdPeriph_Driver/src/stm32f10x_usart.c ****   uint32_t usartxbase = 0;
 182:Libraries/STM32F10x_StdPeriph_Driver/src/stm32f10x_usart.c ****   RCC_ClocksTypeDef RCC_ClocksStatus;
 183:Libraries/STM32F10x_StdPeriph_Driver/src/stm32f10x_usart.c ****   /* Check the parameters */
 184:Libraries/STM32F10x_StdPeriph_Driver/src/stm32f10x_usart.c ****   assert_param(IS_USART_ALL_PERIPH(USARTx));
 185:Libraries/STM32F10x_StdPeriph_Driver/src/stm32f10x_usart.c ****   assert_param(IS_USART_BAUDRATE(USART_InitStruct->USART_BaudRate));  
 186:Libraries/STM32F10x_StdPeriph_Driver/src/stm32f10x_usart.c ****   assert_param(IS_USART_WORD_LENGTH(USART_InitStruct->USART_WordLength));
 187:Libraries/STM32F10x_StdPeriph_Driver/src/stm32f10x_usart.c ****   assert_param(IS_USART_STOPBITS(USART_InitStruct->USART_StopBits));
 188:Libraries/STM32F10x_StdPeriph_Driver/src/stm32f10x_usart.c ****   assert_param(IS_USART_PARITY(USART_InitStruct->USART_Parity));
 189:Libraries/STM32F10x_StdPeriph_Driver/src/stm32f10x_usart.c ****   assert_param(IS_USART_MODE(USART_InitStruct->USART_Mode));
 190:Libraries/STM32F10x_StdPeriph_Driver/src/stm32f10x_usart.c ****   assert_param(IS_USART_HARDWARE_FLOW_CONTROL(USART_InitStruct->USART_HardwareFlowControl));
 191:Libraries/STM32F10x_StdPeriph_Driver/src/stm32f10x_usart.c ****   /* The hardware flow control is available only for USART1, USART2 and USART3 */
 192:Libraries/STM32F10x_StdPeriph_Driver/src/stm32f10x_usart.c ****   if (USART_InitStruct->USART_HardwareFlowControl != USART_HardwareFlowControl_None)
 193:Libraries/STM32F10x_StdPeriph_Driver/src/stm32f10x_usart.c ****   {
 194:Libraries/STM32F10x_StdPeriph_Driver/src/stm32f10x_usart.c ****     assert_param(IS_USART_123_PERIPH(USARTx));
 195:Libraries/STM32F10x_StdPeriph_Driver/src/stm32f10x_usart.c ****   }
 196:Libraries/STM32F10x_StdPeriph_Driver/src/stm32f10x_usart.c **** 
 197:Libraries/STM32F10x_StdPeriph_Driver/src/stm32f10x_usart.c ****   usartxbase = (uint32_t)USARTx;
 198:Libraries/STM32F10x_StdPeriph_Driver/src/stm32f10x_usart.c **** 
 199:Libraries/STM32F10x_StdPeriph_Driver/src/stm32f10x_usart.c **** /*---------------------------- USART CR2 Configuration -----------------------*/
 200:Libraries/STM32F10x_StdPeriph_Driver/src/stm32f10x_usart.c ****   tmpreg = USARTx->CR2;
 228              		.loc 1 200 0
 229 00a2 038A     		ldrh	r3, [r0, #16]	@, USARTx_11(D)->CR2
 230 00a4 CA88     		ldrh	r2, [r1, #6]	@ tmp162, USART_InitStruct_10(D)->USART_StopBits
 231 00a6 9BB2     		uxth	r3, r3	@ D.6980, USARTx_11(D)->CR2
 232              	.LVL17:
 233 00a8 23F44053 		bic	r3, r3, #12288	@ tmp159, D.6980,
 234              	.LVL18:
 235 00ac 1343     		orrs	r3, r3, r2	@, D.6980, tmp159, tmp162
 236              	.LVL19:
 201:Libraries/STM32F10x_StdPeriph_Driver/src/stm32f10x_usart.c ****   /* Clear STOP[13:12] bits */
 202:Libraries/STM32F10x_StdPeriph_Driver/src/stm32f10x_usart.c ****   tmpreg &= CR2_STOP_CLEAR_Mask;
 203:Libraries/STM32F10x_StdPeriph_Driver/src/stm32f10x_usart.c ****   /* Configure the USART Stop Bits, Clock, CPOL, CPHA and LastBit ------------*/
 204:Libraries/STM32F10x_StdPeriph_Driver/src/stm32f10x_usart.c ****   /* Set STOP[13:12] bits according to USART_StopBits value */
 205:Libraries/STM32F10x_StdPeriph_Driver/src/stm32f10x_usart.c ****   tmpreg |= (uint32_t)USART_InitStruct->USART_StopBits;
 206:Libraries/STM32F10x_StdPeriph_Driver/src/stm32f10x_usart.c ****   
ARM GAS  /var/folders/lp/0dm50ddn51vc39svyzv_6fp00000gn/T//ccLUgEfv.s 			page 9


 207:Libraries/STM32F10x_StdPeriph_Driver/src/stm32f10x_usart.c ****   /* Write to USART CR2 */
 208:Libraries/STM32F10x_StdPeriph_Driver/src/stm32f10x_usart.c ****   USARTx->CR2 = (uint16_t)tmpreg;
 237              		.loc 1 208 0
 238 00ae 0382     		strh	r3, [r0, #16]	@ movhi	@ D.6980, USARTx_11(D)->CR2
 209:Libraries/STM32F10x_StdPeriph_Driver/src/stm32f10x_usart.c **** 
 210:Libraries/STM32F10x_StdPeriph_Driver/src/stm32f10x_usart.c **** /*---------------------------- USART CR1 Configuration -----------------------*/
 211:Libraries/STM32F10x_StdPeriph_Driver/src/stm32f10x_usart.c ****   tmpreg = USARTx->CR1;
 239              		.loc 1 211 0
 240 00b0 8289     		ldrh	r2, [r0, #12]	@, USARTx_11(D)->CR1
 241 00b2 8988     		ldrh	r1, [r1, #4]	@, USART_InitStruct_10(D)->USART_WordLength
 242              	.LVL20:
 243 00b4 3389     		ldrh	r3, [r6, #8]	@, USART_InitStruct_10(D)->USART_Parity
 244              	.LVL21:
 245 00b6 92B2     		uxth	r2, r2	@ D.6980, USARTx_11(D)->CR1
 246              	.LVL22:
 247 00b8 0B43     		orrs	r3, r3, r1	@, tmp168, USART_InitStruct_10(D)->USART_Parity, USART_InitStruct_10(D)->USART_Wor
 248 00ba 7189     		ldrh	r1, [r6, #10]	@, USART_InitStruct_10(D)->USART_Mode
 249 00bc 22F4B052 		bic	r2, r2, #5632	@ tmp173, D.6980,
 250              	.LVL23:
 251 00c0 0B43     		orrs	r3, r3, r1	@, tmp171, tmp168, USART_InitStruct_10(D)->USART_Mode
 252 00c2 22F00C02 		bic	r2, r2, #12	@ tmp172, tmp173,
 253 00c6 1343     		orrs	r3, r3, r2	@, tmp176, tmp171, tmp172
 254 00c8 9BB2     		uxth	r3, r3	@ D.6980, tmp176
 255              	.LVL24:
 212:Libraries/STM32F10x_StdPeriph_Driver/src/stm32f10x_usart.c ****   /* Clear M, PCE, PS, TE and RE bits */
 213:Libraries/STM32F10x_StdPeriph_Driver/src/stm32f10x_usart.c ****   tmpreg &= CR1_CLEAR_Mask;
 214:Libraries/STM32F10x_StdPeriph_Driver/src/stm32f10x_usart.c ****   /* Configure the USART Word Length, Parity and mode ----------------------- */
 215:Libraries/STM32F10x_StdPeriph_Driver/src/stm32f10x_usart.c ****   /* Set the M bits according to USART_WordLength value */
 216:Libraries/STM32F10x_StdPeriph_Driver/src/stm32f10x_usart.c ****   /* Set PCE and PS bits according to USART_Parity value */
 217:Libraries/STM32F10x_StdPeriph_Driver/src/stm32f10x_usart.c ****   /* Set TE and RE bits according to USART_Mode value */
 218:Libraries/STM32F10x_StdPeriph_Driver/src/stm32f10x_usart.c ****   tmpreg |= (uint32_t)USART_InitStruct->USART_WordLength | USART_InitStruct->USART_Parity |
 219:Libraries/STM32F10x_StdPeriph_Driver/src/stm32f10x_usart.c ****             USART_InitStruct->USART_Mode;
 220:Libraries/STM32F10x_StdPeriph_Driver/src/stm32f10x_usart.c ****   /* Write to USART CR1 */
 221:Libraries/STM32F10x_StdPeriph_Driver/src/stm32f10x_usart.c ****   USARTx->CR1 = (uint16_t)tmpreg;
 256              		.loc 1 221 0
 257 00ca 8381     		strh	r3, [r0, #12]	@ movhi	@ D.6980, USARTx_11(D)->CR1
 222:Libraries/STM32F10x_StdPeriph_Driver/src/stm32f10x_usart.c **** 
 223:Libraries/STM32F10x_StdPeriph_Driver/src/stm32f10x_usart.c **** /*---------------------------- USART CR3 Configuration -----------------------*/  
 224:Libraries/STM32F10x_StdPeriph_Driver/src/stm32f10x_usart.c ****   tmpreg = USARTx->CR3;
 258              		.loc 1 224 0
 259 00cc 838A     		ldrh	r3, [r0, #20]	@, USARTx_11(D)->CR3
 260              	.LVL25:
 261 00ce B289     		ldrh	r2, [r6, #12]	@ tmp183, USART_InitStruct_10(D)->USART_HardwareFlowControl
 262 00d0 9BB2     		uxth	r3, r3	@ D.6980, USARTx_11(D)->CR3
 263              	.LVL26:
 264 00d2 23F44073 		bic	r3, r3, #768	@ tmp180, D.6980,
 265              	.LVL27:
 177:Libraries/STM32F10x_StdPeriph_Driver/src/stm32f10x_usart.c ****   uint32_t tmpreg = 0x00, apbclock = 0x00;
 266              		.loc 1 177 0
 267 00d6 86B0     		sub	sp, sp, #24	@,,
 268              	.LCFI6:
 269              		.cfi_def_cfa_offset 40
 270 00d8 1343     		orrs	r3, r3, r2	@, D.6980, tmp180, tmp183
 271              	.LVL28:
 225:Libraries/STM32F10x_StdPeriph_Driver/src/stm32f10x_usart.c ****   /* Clear CTSE and RTSE bits */
 226:Libraries/STM32F10x_StdPeriph_Driver/src/stm32f10x_usart.c ****   tmpreg &= CR3_CLEAR_Mask;
 227:Libraries/STM32F10x_StdPeriph_Driver/src/stm32f10x_usart.c ****   /* Configure the USART HFC -------------------------------------------------*/
ARM GAS  /var/folders/lp/0dm50ddn51vc39svyzv_6fp00000gn/T//ccLUgEfv.s 			page 10


 228:Libraries/STM32F10x_StdPeriph_Driver/src/stm32f10x_usart.c ****   /* Set CTSE and RTSE bits according to USART_HardwareFlowControl value */
 229:Libraries/STM32F10x_StdPeriph_Driver/src/stm32f10x_usart.c ****   tmpreg |= USART_InitStruct->USART_HardwareFlowControl;
 230:Libraries/STM32F10x_StdPeriph_Driver/src/stm32f10x_usart.c ****   /* Write to USART CR3 */
 231:Libraries/STM32F10x_StdPeriph_Driver/src/stm32f10x_usart.c ****   USARTx->CR3 = (uint16_t)tmpreg;
 272              		.loc 1 231 0
 273 00da 8382     		strh	r3, [r0, #20]	@ movhi	@ D.6980, USARTx_11(D)->CR3
 232:Libraries/STM32F10x_StdPeriph_Driver/src/stm32f10x_usart.c **** 
 233:Libraries/STM32F10x_StdPeriph_Driver/src/stm32f10x_usart.c **** /*---------------------------- USART BRR Configuration -----------------------*/
 234:Libraries/STM32F10x_StdPeriph_Driver/src/stm32f10x_usart.c ****   /* Configure the USART Baud Rate -------------------------------------------*/
 235:Libraries/STM32F10x_StdPeriph_Driver/src/stm32f10x_usart.c ****   RCC_GetClocksFreq(&RCC_ClocksStatus);
 274              		.loc 1 235 0
 275 00dc 01A8     		add	r0, sp, #4	@,,
 276              	.LVL29:
 277 00de FFF7FEFF 		bl	RCC_GetClocksFreq	@
 278              	.LVL30:
 236:Libraries/STM32F10x_StdPeriph_Driver/src/stm32f10x_usart.c ****   if (usartxbase == USART1_BASE)
 237:Libraries/STM32F10x_StdPeriph_Driver/src/stm32f10x_usart.c ****   {
 238:Libraries/STM32F10x_StdPeriph_Driver/src/stm32f10x_usart.c ****     apbclock = RCC_ClocksStatus.PCLK2_Frequency;
 239:Libraries/STM32F10x_StdPeriph_Driver/src/stm32f10x_usart.c ****   }
 240:Libraries/STM32F10x_StdPeriph_Driver/src/stm32f10x_usart.c ****   else
 241:Libraries/STM32F10x_StdPeriph_Driver/src/stm32f10x_usart.c ****   {
 242:Libraries/STM32F10x_StdPeriph_Driver/src/stm32f10x_usart.c ****     apbclock = RCC_ClocksStatus.PCLK1_Frequency;
 279              		.loc 1 242 0
 280 00e2 174A     		ldr	r2, .L18	@ tmp186,
 281 00e4 039B     		ldr	r3, [sp, #12]	@ apbclock, RCC_ClocksStatus.PCLK1_Frequency
 238:Libraries/STM32F10x_StdPeriph_Driver/src/stm32f10x_usart.c ****   }
 282              		.loc 1 238 0
 283 00e6 049D     		ldr	r5, [sp, #16]	@ apbclock, RCC_ClocksStatus.PCLK2_Frequency
 284 00e8 3168     		ldr	r1, [r6]	@ USART_InitStruct_10(D)->USART_BaudRate, USART_InitStruct_10(D)->USART_BaudRate
 285              		.loc 1 242 0
 286 00ea 9442     		cmp	r4, r2	@ USARTx, tmp186
 287 00ec 18BF     		it	ne	@
 288 00ee 1D46     		movne	r5, r3	@, apbclock, apbclock
 289              	.LVL31:
 290 00f0 1922     		movs	r2, #25	@ tmp220,
 243:Libraries/STM32F10x_StdPeriph_Driver/src/stm32f10x_usart.c ****   }
 244:Libraries/STM32F10x_StdPeriph_Driver/src/stm32f10x_usart.c ****   
 245:Libraries/STM32F10x_StdPeriph_Driver/src/stm32f10x_usart.c ****   /* Determine the integer part */
 246:Libraries/STM32F10x_StdPeriph_Driver/src/stm32f10x_usart.c ****   if ((USARTx->CR1 & CR1_OVER8_Set) != 0)
 247:Libraries/STM32F10x_StdPeriph_Driver/src/stm32f10x_usart.c ****   {
 248:Libraries/STM32F10x_StdPeriph_Driver/src/stm32f10x_usart.c ****     /* Integer part computing in case Oversampling mode is 8 Samples */
 249:Libraries/STM32F10x_StdPeriph_Driver/src/stm32f10x_usart.c ****     integerdivider = ((25 * apbclock) / (2 * (USART_InitStruct->USART_BaudRate)));    
 291              		.loc 1 249 0
 292 00f2 6A43     		muls	r2, r5, r2	@ D.6982, apbclock
 246:Libraries/STM32F10x_StdPeriph_Driver/src/stm32f10x_usart.c ****   {
 293              		.loc 1 246 0
 294 00f4 A389     		ldrh	r3, [r4, #12]	@, USARTx_11(D)->CR1
 250:Libraries/STM32F10x_StdPeriph_Driver/src/stm32f10x_usart.c ****   }
 251:Libraries/STM32F10x_StdPeriph_Driver/src/stm32f10x_usart.c ****   else /* if ((USARTx->CR1 & CR1_OVER8_Set) == 0) */
 252:Libraries/STM32F10x_StdPeriph_Driver/src/stm32f10x_usart.c ****   {
 253:Libraries/STM32F10x_StdPeriph_Driver/src/stm32f10x_usart.c ****     /* Integer part computing in case Oversampling mode is 16 Samples */
 254:Libraries/STM32F10x_StdPeriph_Driver/src/stm32f10x_usart.c ****     integerdivider = ((25 * apbclock) / (4 * (USART_InitStruct->USART_BaudRate)));    
 255:Libraries/STM32F10x_StdPeriph_Driver/src/stm32f10x_usart.c ****   }
 256:Libraries/STM32F10x_StdPeriph_Driver/src/stm32f10x_usart.c ****   tmpreg = (integerdivider / 100) << 4;
 295              		.loc 1 256 0
 296 00f6 6426     		movs	r6, #100	@ tmp200,
 297              	.LVL32:
ARM GAS  /var/folders/lp/0dm50ddn51vc39svyzv_6fp00000gn/T//ccLUgEfv.s 			page 11


 246:Libraries/STM32F10x_StdPeriph_Driver/src/stm32f10x_usart.c ****   {
 298              		.loc 1 246 0
 299 00f8 13F4004F 		tst	r3, #32768	@ USARTx_11(D)->CR1,
 249:Libraries/STM32F10x_StdPeriph_Driver/src/stm32f10x_usart.c ****   }
 300              		.loc 1 249 0
 301 00fc 14BF     		ite	ne
 302 00fe 4D00     		lslne	r5, r1, #1	@ D.6982, USART_InitStruct_10(D)->USART_BaudRate,
 303              	.LVL33:
 254:Libraries/STM32F10x_StdPeriph_Driver/src/stm32f10x_usart.c ****   }
 304              		.loc 1 254 0
 305 0100 8D00     		lsleq	r5, r1, #2	@ D.6982, USART_InitStruct_10(D)->USART_BaudRate,
 306 0102 B2FBF5F5 		udiv	r5, r2, r5	@ integerdivider, D.6982, D.6982
 307              	.LVL34:
 308              		.loc 1 256 0
 309 0106 B5FBF6F0 		udiv	r0, r5, r6	@ D.6982, integerdivider, tmp200
 257:Libraries/STM32F10x_StdPeriph_Driver/src/stm32f10x_usart.c **** 
 258:Libraries/STM32F10x_StdPeriph_Driver/src/stm32f10x_usart.c ****   /* Determine the fractional part */
 259:Libraries/STM32F10x_StdPeriph_Driver/src/stm32f10x_usart.c ****   fractionaldivider = integerdivider - (100 * (tmpreg >> 4));
 260:Libraries/STM32F10x_StdPeriph_Driver/src/stm32f10x_usart.c **** 
 261:Libraries/STM32F10x_StdPeriph_Driver/src/stm32f10x_usart.c ****   /* Implement the fractional part in the register */
 262:Libraries/STM32F10x_StdPeriph_Driver/src/stm32f10x_usart.c ****   if ((USARTx->CR1 & CR1_OVER8_Set) != 0)
 310              		.loc 1 262 0
 311 010a A289     		ldrh	r2, [r4, #12]	@, USARTx_11(D)->CR1
 256:Libraries/STM32F10x_StdPeriph_Driver/src/stm32f10x_usart.c **** 
 312              		.loc 1 256 0
 313 010c 0001     		lsls	r0, r0, #4	@ tmpreg, D.6982,
 314              	.LVL35:
 259:Libraries/STM32F10x_StdPeriph_Driver/src/stm32f10x_usart.c **** 
 315              		.loc 1 259 0
 316 010e 0109     		lsrs	r1, r0, #4	@ D.6982, tmpreg,
 317              		.loc 1 262 0
 318 0110 1204     		lsls	r2, r2, #16	@, USARTx_11(D)->CR1,
 259:Libraries/STM32F10x_StdPeriph_Driver/src/stm32f10x_usart.c **** 
 319              		.loc 1 259 0
 320 0112 06FB1153 		mls	r3, r6, r1, r5	@ fractionaldivider, tmp200, D.6982, integerdivider
 321              	.LVL36:
 322              		.loc 1 262 0
 323 0116 07D5     		bpl	.L15	@,
 263:Libraries/STM32F10x_StdPeriph_Driver/src/stm32f10x_usart.c ****   {
 264:Libraries/STM32F10x_StdPeriph_Driver/src/stm32f10x_usart.c ****     tmpreg |= ((((fractionaldivider * 8) + 50) / 100)) & ((uint8_t)0x07);
 324              		.loc 1 264 0
 325 0118 D900     		lsls	r1, r3, #3	@ D.6982, fractionaldivider,
 326 011a 3231     		adds	r1, r1, #50	@ D.6982, D.6982,
 327 011c B1FBF6F2 		udiv	r2, r1, r6	@ D.6982, D.6982, tmp200
 328 0120 02F00702 		and	r2, r2, #7	@ D.6982, D.6982,
 329 0124 1043     		orrs	r0, r0, r2	@, tmpreg, tmpreg, D.6982
 330              	.LVL37:
 331 0126 06E0     		b	.L16	@
 332              	.L15:
 265:Libraries/STM32F10x_StdPeriph_Driver/src/stm32f10x_usart.c ****   }
 266:Libraries/STM32F10x_StdPeriph_Driver/src/stm32f10x_usart.c ****   else /* if ((USARTx->CR1 & CR1_OVER8_Set) == 0) */
 267:Libraries/STM32F10x_StdPeriph_Driver/src/stm32f10x_usart.c ****   {
 268:Libraries/STM32F10x_StdPeriph_Driver/src/stm32f10x_usart.c ****     tmpreg |= ((((fractionaldivider * 16) + 50) / 100)) & ((uint8_t)0x0F);
 333              		.loc 1 268 0
 334 0128 1A01     		lsls	r2, r3, #4	@ D.6982, fractionaldivider,
 335 012a 3232     		adds	r2, r2, #50	@ D.6982, D.6982,
 336 012c B2FBF6F3 		udiv	r3, r2, r6	@ D.6982, D.6982, tmp200
ARM GAS  /var/folders/lp/0dm50ddn51vc39svyzv_6fp00000gn/T//ccLUgEfv.s 			page 12


 337              	.LVL38:
 338 0130 03F00F03 		and	r3, r3, #15	@ D.6982, D.6982,
 339 0134 1843     		orrs	r0, r0, r3	@, tmpreg, tmpreg, D.6982
 340              	.LVL39:
 341              	.L16:
 269:Libraries/STM32F10x_StdPeriph_Driver/src/stm32f10x_usart.c ****   }
 270:Libraries/STM32F10x_StdPeriph_Driver/src/stm32f10x_usart.c ****   
 271:Libraries/STM32F10x_StdPeriph_Driver/src/stm32f10x_usart.c ****   /* Write to USART BRR */
 272:Libraries/STM32F10x_StdPeriph_Driver/src/stm32f10x_usart.c ****   USARTx->BRR = (uint16_t)tmpreg;
 342              		.loc 1 272 0
 343 0136 80B2     		uxth	r0, r0	@ D.6980, tmpreg
 344              	.LVL40:
 345 0138 2081     		strh	r0, [r4, #8]	@ movhi	@ D.6980, USARTx_11(D)->BRR
 273:Libraries/STM32F10x_StdPeriph_Driver/src/stm32f10x_usart.c **** }
 346              		.loc 1 273 0
 347 013a 06B0     		add	sp, sp, #24	@,,
 348              	.LCFI7:
 349              		.cfi_def_cfa_offset 16
 350              		@ sp needed	@
 351 013c 70BD     		pop	{r4, r5, r6, pc}	@
 352              	.LVL41:
 353              	.L19:
 354 013e 00BF     		.align	2
 355              	.L18:
 356 0140 00380140 		.word	1073821696
 357              		.cfi_endproc
 358              	.LFE30:
 359              		.size	USART_Init, .-USART_Init
 360              		.align	1
 361              		.global	USART_StructInit
 362              		.thumb
 363              		.thumb_func
 364              		.type	USART_StructInit, %function
 365              	USART_StructInit:
 366              	.LFB31:
 274:Libraries/STM32F10x_StdPeriph_Driver/src/stm32f10x_usart.c **** 
 275:Libraries/STM32F10x_StdPeriph_Driver/src/stm32f10x_usart.c **** /**
 276:Libraries/STM32F10x_StdPeriph_Driver/src/stm32f10x_usart.c ****   * @brief  Fills each USART_InitStruct member with its default value.
 277:Libraries/STM32F10x_StdPeriph_Driver/src/stm32f10x_usart.c ****   * @param  USART_InitStruct: pointer to a USART_InitTypeDef structure
 278:Libraries/STM32F10x_StdPeriph_Driver/src/stm32f10x_usart.c ****   *         which will be initialized.
 279:Libraries/STM32F10x_StdPeriph_Driver/src/stm32f10x_usart.c ****   * @retval None
 280:Libraries/STM32F10x_StdPeriph_Driver/src/stm32f10x_usart.c ****   */
 281:Libraries/STM32F10x_StdPeriph_Driver/src/stm32f10x_usart.c **** void USART_StructInit(USART_InitTypeDef* USART_InitStruct)
 282:Libraries/STM32F10x_StdPeriph_Driver/src/stm32f10x_usart.c **** {
 367              		.loc 1 282 0
 368              		.cfi_startproc
 369              		@ args = 0, pretend = 0, frame = 0
 370              		@ frame_needed = 0, uses_anonymous_args = 0
 371              		@ link register save eliminated.
 372              	.LVL42:
 283:Libraries/STM32F10x_StdPeriph_Driver/src/stm32f10x_usart.c ****   /* USART_InitStruct members default value */
 284:Libraries/STM32F10x_StdPeriph_Driver/src/stm32f10x_usart.c ****   USART_InitStruct->USART_BaudRate = 9600;
 373              		.loc 1 284 0
 374 0144 4FF41653 		mov	r3, #9600	@ tmp111,
 375 0148 0360     		str	r3, [r0]	@ tmp111, USART_InitStruct_2(D)->USART_BaudRate
 285:Libraries/STM32F10x_StdPeriph_Driver/src/stm32f10x_usart.c ****   USART_InitStruct->USART_WordLength = USART_WordLength_8b;
 286:Libraries/STM32F10x_StdPeriph_Driver/src/stm32f10x_usart.c ****   USART_InitStruct->USART_StopBits = USART_StopBits_1;
ARM GAS  /var/folders/lp/0dm50ddn51vc39svyzv_6fp00000gn/T//ccLUgEfv.s 			page 13


 287:Libraries/STM32F10x_StdPeriph_Driver/src/stm32f10x_usart.c ****   USART_InitStruct->USART_Parity = USART_Parity_No ;
 288:Libraries/STM32F10x_StdPeriph_Driver/src/stm32f10x_usart.c ****   USART_InitStruct->USART_Mode = USART_Mode_Rx | USART_Mode_Tx;
 376              		.loc 1 288 0
 377 014a 0C22     		movs	r2, #12	@ tmp119,
 285:Libraries/STM32F10x_StdPeriph_Driver/src/stm32f10x_usart.c ****   USART_InitStruct->USART_WordLength = USART_WordLength_8b;
 378              		.loc 1 285 0
 379 014c 0023     		movs	r3, #0	@ tmp113,
 380 014e 8380     		strh	r3, [r0, #4]	@ movhi	@ tmp113, USART_InitStruct_2(D)->USART_WordLength
 286:Libraries/STM32F10x_StdPeriph_Driver/src/stm32f10x_usart.c ****   USART_InitStruct->USART_Parity = USART_Parity_No ;
 381              		.loc 1 286 0
 382 0150 C380     		strh	r3, [r0, #6]	@ movhi	@ tmp113, USART_InitStruct_2(D)->USART_StopBits
 287:Libraries/STM32F10x_StdPeriph_Driver/src/stm32f10x_usart.c ****   USART_InitStruct->USART_Mode = USART_Mode_Rx | USART_Mode_Tx;
 383              		.loc 1 287 0
 384 0152 0381     		strh	r3, [r0, #8]	@ movhi	@ tmp113, USART_InitStruct_2(D)->USART_Parity
 385              		.loc 1 288 0
 386 0154 4281     		strh	r2, [r0, #10]	@ movhi	@ tmp119, USART_InitStruct_2(D)->USART_Mode
 289:Libraries/STM32F10x_StdPeriph_Driver/src/stm32f10x_usart.c ****   USART_InitStruct->USART_HardwareFlowControl = USART_HardwareFlowControl_None;  
 387              		.loc 1 289 0
 388 0156 8381     		strh	r3, [r0, #12]	@ movhi	@ tmp113, USART_InitStruct_2(D)->USART_HardwareFlowControl
 389 0158 7047     		bx	lr	@
 390              		.cfi_endproc
 391              	.LFE31:
 392              		.size	USART_StructInit, .-USART_StructInit
 393              		.align	1
 394              		.global	USART_ClockInit
 395              		.thumb
 396              		.thumb_func
 397              		.type	USART_ClockInit, %function
 398              	USART_ClockInit:
 399              	.LFB32:
 290:Libraries/STM32F10x_StdPeriph_Driver/src/stm32f10x_usart.c **** }
 291:Libraries/STM32F10x_StdPeriph_Driver/src/stm32f10x_usart.c **** 
 292:Libraries/STM32F10x_StdPeriph_Driver/src/stm32f10x_usart.c **** /**
 293:Libraries/STM32F10x_StdPeriph_Driver/src/stm32f10x_usart.c ****   * @brief  Initializes the USARTx peripheral Clock according to the 
 294:Libraries/STM32F10x_StdPeriph_Driver/src/stm32f10x_usart.c ****   *          specified parameters in the USART_ClockInitStruct .
 295:Libraries/STM32F10x_StdPeriph_Driver/src/stm32f10x_usart.c ****   * @param  USARTx: where x can be 1, 2, 3 to select the USART peripheral.
 296:Libraries/STM32F10x_StdPeriph_Driver/src/stm32f10x_usart.c ****   * @param  USART_ClockInitStruct: pointer to a USART_ClockInitTypeDef
 297:Libraries/STM32F10x_StdPeriph_Driver/src/stm32f10x_usart.c ****   *         structure that contains the configuration information for the specified 
 298:Libraries/STM32F10x_StdPeriph_Driver/src/stm32f10x_usart.c ****   *         USART peripheral.  
 299:Libraries/STM32F10x_StdPeriph_Driver/src/stm32f10x_usart.c ****   * @note The Smart Card and Synchronous modes are not available for UART4 and UART5.
 300:Libraries/STM32F10x_StdPeriph_Driver/src/stm32f10x_usart.c ****   * @retval None
 301:Libraries/STM32F10x_StdPeriph_Driver/src/stm32f10x_usart.c ****   */
 302:Libraries/STM32F10x_StdPeriph_Driver/src/stm32f10x_usart.c **** void USART_ClockInit(USART_TypeDef* USARTx, USART_ClockInitTypeDef* USART_ClockInitStruct)
 303:Libraries/STM32F10x_StdPeriph_Driver/src/stm32f10x_usart.c **** {
 400              		.loc 1 303 0
 401              		.cfi_startproc
 402              		@ args = 0, pretend = 0, frame = 0
 403              		@ frame_needed = 0, uses_anonymous_args = 0
 404              	.LVL43:
 405 015a 4B88     		ldrh	r3, [r1, #2]	@, USART_ClockInitStruct_5(D)->USART_CPOL
 406 015c 10B5     		push	{r4, lr}	@
 407              	.LCFI8:
 408              		.cfi_def_cfa_offset 8
 409              		.cfi_offset 4, -8
 410              		.cfi_offset 14, -4
 411 015e 0C88     		ldrh	r4, [r1]	@, USART_ClockInitStruct_5(D)->USART_Clock
 304:Libraries/STM32F10x_StdPeriph_Driver/src/stm32f10x_usart.c ****   uint32_t tmpreg = 0x00;
ARM GAS  /var/folders/lp/0dm50ddn51vc39svyzv_6fp00000gn/T//ccLUgEfv.s 			page 14


 305:Libraries/STM32F10x_StdPeriph_Driver/src/stm32f10x_usart.c ****   /* Check the parameters */
 306:Libraries/STM32F10x_StdPeriph_Driver/src/stm32f10x_usart.c ****   assert_param(IS_USART_123_PERIPH(USARTx));
 307:Libraries/STM32F10x_StdPeriph_Driver/src/stm32f10x_usart.c ****   assert_param(IS_USART_CLOCK(USART_ClockInitStruct->USART_Clock));
 308:Libraries/STM32F10x_StdPeriph_Driver/src/stm32f10x_usart.c ****   assert_param(IS_USART_CPOL(USART_ClockInitStruct->USART_CPOL));
 309:Libraries/STM32F10x_StdPeriph_Driver/src/stm32f10x_usart.c ****   assert_param(IS_USART_CPHA(USART_ClockInitStruct->USART_CPHA));
 310:Libraries/STM32F10x_StdPeriph_Driver/src/stm32f10x_usart.c ****   assert_param(IS_USART_LASTBIT(USART_ClockInitStruct->USART_LastBit));
 311:Libraries/STM32F10x_StdPeriph_Driver/src/stm32f10x_usart.c ****   
 312:Libraries/STM32F10x_StdPeriph_Driver/src/stm32f10x_usart.c **** /*---------------------------- USART CR2 Configuration -----------------------*/
 313:Libraries/STM32F10x_StdPeriph_Driver/src/stm32f10x_usart.c ****   tmpreg = USARTx->CR2;
 412              		.loc 1 313 0
 413 0160 028A     		ldrh	r2, [r0, #16]	@, USARTx_3(D)->CR2
 414 0162 2343     		orrs	r3, r3, r4	@, tmp126, USART_ClockInitStruct_5(D)->USART_CPOL, USART_ClockInitStruct_5(D)->USA
 415 0164 8C88     		ldrh	r4, [r1, #4]	@, USART_ClockInitStruct_5(D)->USART_CPHA
 416 0166 C988     		ldrh	r1, [r1, #6]	@, USART_ClockInitStruct_5(D)->USART_LastBit
 417              	.LVL44:
 418 0168 92B2     		uxth	r2, r2	@ D.6987, USARTx_3(D)->CR2
 419              	.LVL45:
 420 016a 2343     		orrs	r3, r3, r4	@, tmp129, tmp126, USART_ClockInitStruct_5(D)->USART_CPHA
 421 016c 0B43     		orrs	r3, r3, r1	@, tmp132, tmp129, USART_ClockInitStruct_5(D)->USART_LastBit
 422 016e 22F47062 		bic	r2, r2, #3840	@ tmp133, D.6987,
 423              	.LVL46:
 424 0172 1343     		orrs	r3, r3, r2	@, tmp136, tmp132, tmp133
 425 0174 9BB2     		uxth	r3, r3	@ D.6987, tmp136
 426              	.LVL47:
 314:Libraries/STM32F10x_StdPeriph_Driver/src/stm32f10x_usart.c ****   /* Clear CLKEN, CPOL, CPHA and LBCL bits */
 315:Libraries/STM32F10x_StdPeriph_Driver/src/stm32f10x_usart.c ****   tmpreg &= CR2_CLOCK_CLEAR_Mask;
 316:Libraries/STM32F10x_StdPeriph_Driver/src/stm32f10x_usart.c ****   /* Configure the USART Clock, CPOL, CPHA and LastBit ------------*/
 317:Libraries/STM32F10x_StdPeriph_Driver/src/stm32f10x_usart.c ****   /* Set CLKEN bit according to USART_Clock value */
 318:Libraries/STM32F10x_StdPeriph_Driver/src/stm32f10x_usart.c ****   /* Set CPOL bit according to USART_CPOL value */
 319:Libraries/STM32F10x_StdPeriph_Driver/src/stm32f10x_usart.c ****   /* Set CPHA bit according to USART_CPHA value */
 320:Libraries/STM32F10x_StdPeriph_Driver/src/stm32f10x_usart.c ****   /* Set LBCL bit according to USART_LastBit value */
 321:Libraries/STM32F10x_StdPeriph_Driver/src/stm32f10x_usart.c ****   tmpreg |= (uint32_t)USART_ClockInitStruct->USART_Clock | USART_ClockInitStruct->USART_CPOL | 
 322:Libraries/STM32F10x_StdPeriph_Driver/src/stm32f10x_usart.c ****                  USART_ClockInitStruct->USART_CPHA | USART_ClockInitStruct->USART_LastBit;
 323:Libraries/STM32F10x_StdPeriph_Driver/src/stm32f10x_usart.c ****   /* Write to USART CR2 */
 324:Libraries/STM32F10x_StdPeriph_Driver/src/stm32f10x_usart.c ****   USARTx->CR2 = (uint16_t)tmpreg;
 427              		.loc 1 324 0
 428 0176 0382     		strh	r3, [r0, #16]	@ movhi	@ D.6987, USARTx_3(D)->CR2
 429 0178 10BD     		pop	{r4, pc}	@
 430              		.cfi_endproc
 431              	.LFE32:
 432              		.size	USART_ClockInit, .-USART_ClockInit
 433              		.align	1
 434              		.global	USART_ClockStructInit
 435              		.thumb
 436              		.thumb_func
 437              		.type	USART_ClockStructInit, %function
 438              	USART_ClockStructInit:
 439              	.LFB33:
 325:Libraries/STM32F10x_StdPeriph_Driver/src/stm32f10x_usart.c **** }
 326:Libraries/STM32F10x_StdPeriph_Driver/src/stm32f10x_usart.c **** 
 327:Libraries/STM32F10x_StdPeriph_Driver/src/stm32f10x_usart.c **** /**
 328:Libraries/STM32F10x_StdPeriph_Driver/src/stm32f10x_usart.c ****   * @brief  Fills each USART_ClockInitStruct member with its default value.
 329:Libraries/STM32F10x_StdPeriph_Driver/src/stm32f10x_usart.c ****   * @param  USART_ClockInitStruct: pointer to a USART_ClockInitTypeDef
 330:Libraries/STM32F10x_StdPeriph_Driver/src/stm32f10x_usart.c ****   *         structure which will be initialized.
 331:Libraries/STM32F10x_StdPeriph_Driver/src/stm32f10x_usart.c ****   * @retval None
 332:Libraries/STM32F10x_StdPeriph_Driver/src/stm32f10x_usart.c ****   */
 333:Libraries/STM32F10x_StdPeriph_Driver/src/stm32f10x_usart.c **** void USART_ClockStructInit(USART_ClockInitTypeDef* USART_ClockInitStruct)
ARM GAS  /var/folders/lp/0dm50ddn51vc39svyzv_6fp00000gn/T//ccLUgEfv.s 			page 15


 334:Libraries/STM32F10x_StdPeriph_Driver/src/stm32f10x_usart.c **** {
 440              		.loc 1 334 0
 441              		.cfi_startproc
 442              		@ args = 0, pretend = 0, frame = 0
 443              		@ frame_needed = 0, uses_anonymous_args = 0
 444              		@ link register save eliminated.
 445              	.LVL48:
 335:Libraries/STM32F10x_StdPeriph_Driver/src/stm32f10x_usart.c ****   /* USART_ClockInitStruct members default value */
 336:Libraries/STM32F10x_StdPeriph_Driver/src/stm32f10x_usart.c ****   USART_ClockInitStruct->USART_Clock = USART_Clock_Disable;
 446              		.loc 1 336 0
 447 017a 0023     		movs	r3, #0	@ tmp112,
 448 017c 0380     		strh	r3, [r0]	@ movhi	@ tmp112, USART_ClockInitStruct_2(D)->USART_Clock
 337:Libraries/STM32F10x_StdPeriph_Driver/src/stm32f10x_usart.c ****   USART_ClockInitStruct->USART_CPOL = USART_CPOL_Low;
 449              		.loc 1 337 0
 450 017e 4380     		strh	r3, [r0, #2]	@ movhi	@ tmp112, USART_ClockInitStruct_2(D)->USART_CPOL
 338:Libraries/STM32F10x_StdPeriph_Driver/src/stm32f10x_usart.c ****   USART_ClockInitStruct->USART_CPHA = USART_CPHA_1Edge;
 451              		.loc 1 338 0
 452 0180 8380     		strh	r3, [r0, #4]	@ movhi	@ tmp112, USART_ClockInitStruct_2(D)->USART_CPHA
 339:Libraries/STM32F10x_StdPeriph_Driver/src/stm32f10x_usart.c ****   USART_ClockInitStruct->USART_LastBit = USART_LastBit_Disable;
 453              		.loc 1 339 0
 454 0182 C380     		strh	r3, [r0, #6]	@ movhi	@ tmp112, USART_ClockInitStruct_2(D)->USART_LastBit
 455 0184 7047     		bx	lr	@
 456              		.cfi_endproc
 457              	.LFE33:
 458              		.size	USART_ClockStructInit, .-USART_ClockStructInit
 459              		.align	1
 460              		.global	USART_Cmd
 461              		.thumb
 462              		.thumb_func
 463              		.type	USART_Cmd, %function
 464              	USART_Cmd:
 465              	.LFB34:
 340:Libraries/STM32F10x_StdPeriph_Driver/src/stm32f10x_usart.c **** }
 341:Libraries/STM32F10x_StdPeriph_Driver/src/stm32f10x_usart.c **** 
 342:Libraries/STM32F10x_StdPeriph_Driver/src/stm32f10x_usart.c **** /**
 343:Libraries/STM32F10x_StdPeriph_Driver/src/stm32f10x_usart.c ****   * @brief  Enables or disables the specified USART peripheral.
 344:Libraries/STM32F10x_StdPeriph_Driver/src/stm32f10x_usart.c ****   * @param  USARTx: Select the USART or the UART peripheral. 
 345:Libraries/STM32F10x_StdPeriph_Driver/src/stm32f10x_usart.c ****   *         This parameter can be one of the following values:
 346:Libraries/STM32F10x_StdPeriph_Driver/src/stm32f10x_usart.c ****   *           USART1, USART2, USART3, UART4 or UART5.
 347:Libraries/STM32F10x_StdPeriph_Driver/src/stm32f10x_usart.c ****   * @param  NewState: new state of the USARTx peripheral.
 348:Libraries/STM32F10x_StdPeriph_Driver/src/stm32f10x_usart.c ****   *         This parameter can be: ENABLE or DISABLE.
 349:Libraries/STM32F10x_StdPeriph_Driver/src/stm32f10x_usart.c ****   * @retval None
 350:Libraries/STM32F10x_StdPeriph_Driver/src/stm32f10x_usart.c ****   */
 351:Libraries/STM32F10x_StdPeriph_Driver/src/stm32f10x_usart.c **** void USART_Cmd(USART_TypeDef* USARTx, FunctionalState NewState)
 352:Libraries/STM32F10x_StdPeriph_Driver/src/stm32f10x_usart.c **** {
 466              		.loc 1 352 0
 467              		.cfi_startproc
 468              		@ args = 0, pretend = 0, frame = 0
 469              		@ frame_needed = 0, uses_anonymous_args = 0
 470              		@ link register save eliminated.
 471              	.LVL49:
 353:Libraries/STM32F10x_StdPeriph_Driver/src/stm32f10x_usart.c ****   /* Check the parameters */
 354:Libraries/STM32F10x_StdPeriph_Driver/src/stm32f10x_usart.c ****   assert_param(IS_USART_ALL_PERIPH(USARTx));
 355:Libraries/STM32F10x_StdPeriph_Driver/src/stm32f10x_usart.c ****   assert_param(IS_FUNCTIONAL_STATE(NewState));
 356:Libraries/STM32F10x_StdPeriph_Driver/src/stm32f10x_usart.c ****   
 357:Libraries/STM32F10x_StdPeriph_Driver/src/stm32f10x_usart.c ****   if (NewState != DISABLE)
 358:Libraries/STM32F10x_StdPeriph_Driver/src/stm32f10x_usart.c ****   {
ARM GAS  /var/folders/lp/0dm50ddn51vc39svyzv_6fp00000gn/T//ccLUgEfv.s 			page 16


 359:Libraries/STM32F10x_StdPeriph_Driver/src/stm32f10x_usart.c ****     /* Enable the selected USART by setting the UE bit in the CR1 register */
 360:Libraries/STM32F10x_StdPeriph_Driver/src/stm32f10x_usart.c ****     USARTx->CR1 |= CR1_UE_Set;
 472              		.loc 1 360 0
 473 0186 8389     		ldrh	r3, [r0, #12]	@,
 357:Libraries/STM32F10x_StdPeriph_Driver/src/stm32f10x_usart.c ****   {
 474              		.loc 1 357 0
 475 0188 19B1     		cbz	r1, .L24	@ NewState,
 476              		.loc 1 360 0
 477 018a 9BB2     		uxth	r3, r3	@ D.6992, USARTx_4(D)->CR1
 478 018c 43F40053 		orr	r3, r3, #8192	@ D.6992, D.6992,
 479 0190 03E0     		b	.L26	@
 480              	.L24:
 361:Libraries/STM32F10x_StdPeriph_Driver/src/stm32f10x_usart.c ****   }
 362:Libraries/STM32F10x_StdPeriph_Driver/src/stm32f10x_usart.c ****   else
 363:Libraries/STM32F10x_StdPeriph_Driver/src/stm32f10x_usart.c ****   {
 364:Libraries/STM32F10x_StdPeriph_Driver/src/stm32f10x_usart.c ****     /* Disable the selected USART by clearing the UE bit in the CR1 register */
 365:Libraries/STM32F10x_StdPeriph_Driver/src/stm32f10x_usart.c ****     USARTx->CR1 &= CR1_UE_Reset;
 481              		.loc 1 365 0
 482 0192 23F40053 		bic	r3, r3, #8192	@ D.6992, USARTx_4(D)->CR1,
 483 0196 1B04     		lsls	r3, r3, #16	@ D.6992, D.6992,
 484 0198 1B0C     		lsrs	r3, r3, #16	@ D.6992, D.6992,
 485              	.L26:
 486 019a 8381     		strh	r3, [r0, #12]	@ movhi	@ D.6992,
 487 019c 7047     		bx	lr	@
 488              		.cfi_endproc
 489              	.LFE34:
 490              		.size	USART_Cmd, .-USART_Cmd
 491              		.align	1
 492              		.global	USART_ITConfig
 493              		.thumb
 494              		.thumb_func
 495              		.type	USART_ITConfig, %function
 496              	USART_ITConfig:
 497              	.LFB35:
 366:Libraries/STM32F10x_StdPeriph_Driver/src/stm32f10x_usart.c ****   }
 367:Libraries/STM32F10x_StdPeriph_Driver/src/stm32f10x_usart.c **** }
 368:Libraries/STM32F10x_StdPeriph_Driver/src/stm32f10x_usart.c **** 
 369:Libraries/STM32F10x_StdPeriph_Driver/src/stm32f10x_usart.c **** /**
 370:Libraries/STM32F10x_StdPeriph_Driver/src/stm32f10x_usart.c ****   * @brief  Enables or disables the specified USART interrupts.
 371:Libraries/STM32F10x_StdPeriph_Driver/src/stm32f10x_usart.c ****   * @param  USARTx: Select the USART or the UART peripheral. 
 372:Libraries/STM32F10x_StdPeriph_Driver/src/stm32f10x_usart.c ****   *   This parameter can be one of the following values:
 373:Libraries/STM32F10x_StdPeriph_Driver/src/stm32f10x_usart.c ****   *   USART1, USART2, USART3, UART4 or UART5.
 374:Libraries/STM32F10x_StdPeriph_Driver/src/stm32f10x_usart.c ****   * @param  USART_IT: specifies the USART interrupt sources to be enabled or disabled.
 375:Libraries/STM32F10x_StdPeriph_Driver/src/stm32f10x_usart.c ****   *   This parameter can be one of the following values:
 376:Libraries/STM32F10x_StdPeriph_Driver/src/stm32f10x_usart.c ****   *     @arg USART_IT_CTS:  CTS change interrupt (not available for UART4 and UART5)
 377:Libraries/STM32F10x_StdPeriph_Driver/src/stm32f10x_usart.c ****   *     @arg USART_IT_LBD:  LIN Break detection interrupt
 378:Libraries/STM32F10x_StdPeriph_Driver/src/stm32f10x_usart.c ****   *     @arg USART_IT_TXE:  Transmit Data Register empty interrupt
 379:Libraries/STM32F10x_StdPeriph_Driver/src/stm32f10x_usart.c ****   *     @arg USART_IT_TC:   Transmission complete interrupt
 380:Libraries/STM32F10x_StdPeriph_Driver/src/stm32f10x_usart.c ****   *     @arg USART_IT_RXNE: Receive Data register not empty interrupt
 381:Libraries/STM32F10x_StdPeriph_Driver/src/stm32f10x_usart.c ****   *     @arg USART_IT_IDLE: Idle line detection interrupt
 382:Libraries/STM32F10x_StdPeriph_Driver/src/stm32f10x_usart.c ****   *     @arg USART_IT_PE:   Parity Error interrupt
 383:Libraries/STM32F10x_StdPeriph_Driver/src/stm32f10x_usart.c ****   *     @arg USART_IT_ERR:  Error interrupt(Frame error, noise error, overrun error)
 384:Libraries/STM32F10x_StdPeriph_Driver/src/stm32f10x_usart.c ****   * @param  NewState: new state of the specified USARTx interrupts.
 385:Libraries/STM32F10x_StdPeriph_Driver/src/stm32f10x_usart.c ****   *   This parameter can be: ENABLE or DISABLE.
 386:Libraries/STM32F10x_StdPeriph_Driver/src/stm32f10x_usart.c ****   * @retval None
 387:Libraries/STM32F10x_StdPeriph_Driver/src/stm32f10x_usart.c ****   */
 388:Libraries/STM32F10x_StdPeriph_Driver/src/stm32f10x_usart.c **** void USART_ITConfig(USART_TypeDef* USARTx, uint16_t USART_IT, FunctionalState NewState)
ARM GAS  /var/folders/lp/0dm50ddn51vc39svyzv_6fp00000gn/T//ccLUgEfv.s 			page 17


 389:Libraries/STM32F10x_StdPeriph_Driver/src/stm32f10x_usart.c **** {
 498              		.loc 1 389 0
 499              		.cfi_startproc
 500              		@ args = 0, pretend = 0, frame = 0
 501              		@ frame_needed = 0, uses_anonymous_args = 0
 502              	.LVL50:
 390:Libraries/STM32F10x_StdPeriph_Driver/src/stm32f10x_usart.c ****   uint32_t usartreg = 0x00, itpos = 0x00, itmask = 0x00;
 391:Libraries/STM32F10x_StdPeriph_Driver/src/stm32f10x_usart.c ****   uint32_t usartxbase = 0x00;
 392:Libraries/STM32F10x_StdPeriph_Driver/src/stm32f10x_usart.c ****   /* Check the parameters */
 393:Libraries/STM32F10x_StdPeriph_Driver/src/stm32f10x_usart.c ****   assert_param(IS_USART_ALL_PERIPH(USARTx));
 394:Libraries/STM32F10x_StdPeriph_Driver/src/stm32f10x_usart.c ****   assert_param(IS_USART_CONFIG_IT(USART_IT));
 395:Libraries/STM32F10x_StdPeriph_Driver/src/stm32f10x_usart.c ****   assert_param(IS_FUNCTIONAL_STATE(NewState));
 396:Libraries/STM32F10x_StdPeriph_Driver/src/stm32f10x_usart.c ****   /* The CTS interrupt is not available for UART4 and UART5 */
 397:Libraries/STM32F10x_StdPeriph_Driver/src/stm32f10x_usart.c ****   if (USART_IT == USART_IT_CTS)
 398:Libraries/STM32F10x_StdPeriph_Driver/src/stm32f10x_usart.c ****   {
 399:Libraries/STM32F10x_StdPeriph_Driver/src/stm32f10x_usart.c ****     assert_param(IS_USART_123_PERIPH(USARTx));
 400:Libraries/STM32F10x_StdPeriph_Driver/src/stm32f10x_usart.c ****   }   
 401:Libraries/STM32F10x_StdPeriph_Driver/src/stm32f10x_usart.c ****   
 402:Libraries/STM32F10x_StdPeriph_Driver/src/stm32f10x_usart.c ****   usartxbase = (uint32_t)USARTx;
 403:Libraries/STM32F10x_StdPeriph_Driver/src/stm32f10x_usart.c **** 
 404:Libraries/STM32F10x_StdPeriph_Driver/src/stm32f10x_usart.c ****   /* Get the USART register index */
 405:Libraries/STM32F10x_StdPeriph_Driver/src/stm32f10x_usart.c ****   usartreg = (((uint8_t)USART_IT) >> 0x05);
 406:Libraries/STM32F10x_StdPeriph_Driver/src/stm32f10x_usart.c **** 
 407:Libraries/STM32F10x_StdPeriph_Driver/src/stm32f10x_usart.c ****   /* Get the interrupt position */
 408:Libraries/STM32F10x_StdPeriph_Driver/src/stm32f10x_usart.c ****   itpos = USART_IT & IT_Mask;
 409:Libraries/STM32F10x_StdPeriph_Driver/src/stm32f10x_usart.c ****   itmask = (((uint32_t)0x01) << itpos);
 503              		.loc 1 409 0
 504 019e 0123     		movs	r3, #1	@ tmp131,
 389:Libraries/STM32F10x_StdPeriph_Driver/src/stm32f10x_usart.c ****   uint32_t usartreg = 0x00, itpos = 0x00, itmask = 0x00;
 505              		.loc 1 389 0
 506 01a0 10B5     		push	{r4, lr}	@
 507              	.LCFI9:
 508              		.cfi_def_cfa_offset 8
 509              		.cfi_offset 4, -8
 510              		.cfi_offset 14, -4
 405:Libraries/STM32F10x_StdPeriph_Driver/src/stm32f10x_usart.c **** 
 511              		.loc 1 405 0
 512 01a2 C1F34214 		ubfx	r4, r1, #5, #3	@ D.6996, USART_IT,,
 513              	.LVL51:
 410:Libraries/STM32F10x_StdPeriph_Driver/src/stm32f10x_usart.c ****     
 411:Libraries/STM32F10x_StdPeriph_Driver/src/stm32f10x_usart.c ****   if (usartreg == 0x01) /* The IT is in CR1 register */
 514              		.loc 1 411 0
 515 01a6 9C42     		cmp	r4, r3	@ D.6996,
 409:Libraries/STM32F10x_StdPeriph_Driver/src/stm32f10x_usart.c ****     
 516              		.loc 1 409 0
 517 01a8 01F01F01 		and	r1, r1, #31	@ itpos, USART_IT,
 518              	.LVL52:
 519 01ac 03FA01F1 		lsl	r1, r3, r1	@ itmask, tmp131, itpos
 520              	.LVL53:
 521              		.loc 1 411 0
 522 01b0 01D1     		bne	.L28	@,
 412:Libraries/STM32F10x_StdPeriph_Driver/src/stm32f10x_usart.c ****   {
 413:Libraries/STM32F10x_StdPeriph_Driver/src/stm32f10x_usart.c ****     usartxbase += 0x0C;
 523              		.loc 1 413 0
 524 01b2 0C30     		adds	r0, r0, #12	@ usartxbase, USARTx,
 525              	.LVL54:
 526 01b4 03E0     		b	.L29	@
ARM GAS  /var/folders/lp/0dm50ddn51vc39svyzv_6fp00000gn/T//ccLUgEfv.s 			page 18


 527              	.LVL55:
 528              	.L28:
 414:Libraries/STM32F10x_StdPeriph_Driver/src/stm32f10x_usart.c ****   }
 415:Libraries/STM32F10x_StdPeriph_Driver/src/stm32f10x_usart.c ****   else if (usartreg == 0x02) /* The IT is in CR2 register */
 529              		.loc 1 415 0
 530 01b6 022C     		cmp	r4, #2	@ D.6996,
 416:Libraries/STM32F10x_StdPeriph_Driver/src/stm32f10x_usart.c ****   {
 417:Libraries/STM32F10x_StdPeriph_Driver/src/stm32f10x_usart.c ****     usartxbase += 0x10;
 531              		.loc 1 417 0
 532 01b8 0CBF     		ite	eq
 533 01ba 1030     		addeq	r0, r0, #16	@ usartxbase, USARTx,
 534              	.LVL56:
 418:Libraries/STM32F10x_StdPeriph_Driver/src/stm32f10x_usart.c ****   }
 419:Libraries/STM32F10x_StdPeriph_Driver/src/stm32f10x_usart.c ****   else /* The IT is in CR3 register */
 420:Libraries/STM32F10x_StdPeriph_Driver/src/stm32f10x_usart.c ****   {
 421:Libraries/STM32F10x_StdPeriph_Driver/src/stm32f10x_usart.c ****     usartxbase += 0x14; 
 535              		.loc 1 421 0
 536 01bc 1430     		addne	r0, r0, #20	@ usartxbase, USARTx,
 537              	.LVL57:
 538              	.L29:
 422:Libraries/STM32F10x_StdPeriph_Driver/src/stm32f10x_usart.c ****   }
 423:Libraries/STM32F10x_StdPeriph_Driver/src/stm32f10x_usart.c ****   if (NewState != DISABLE)
 424:Libraries/STM32F10x_StdPeriph_Driver/src/stm32f10x_usart.c ****   {
 425:Libraries/STM32F10x_StdPeriph_Driver/src/stm32f10x_usart.c ****     *(__IO uint32_t*)usartxbase  |= itmask;
 539              		.loc 1 425 0
 540 01be 0368     		ldr	r3, [r0]	@ D.6998,* usartxbase
 423:Libraries/STM32F10x_StdPeriph_Driver/src/stm32f10x_usart.c ****   {
 541              		.loc 1 423 0
 542 01c0 0AB1     		cbz	r2, .L31	@ NewState,
 543              		.loc 1 425 0
 544 01c2 1943     		orrs	r1, r1, r3	@, D.6998, itmask, D.6998
 545              	.LVL58:
 546 01c4 01E0     		b	.L33	@
 547              	.LVL59:
 548              	.L31:
 426:Libraries/STM32F10x_StdPeriph_Driver/src/stm32f10x_usart.c ****   }
 427:Libraries/STM32F10x_StdPeriph_Driver/src/stm32f10x_usart.c ****   else
 428:Libraries/STM32F10x_StdPeriph_Driver/src/stm32f10x_usart.c ****   {
 429:Libraries/STM32F10x_StdPeriph_Driver/src/stm32f10x_usart.c ****     *(__IO uint32_t*)usartxbase &= ~itmask;
 549              		.loc 1 429 0
 550 01c6 23EA0101 		bic	r1, r3, r1	@ D.6998, D.6998, itmask
 551              	.LVL60:
 552              	.L33:
 553 01ca 0160     		str	r1, [r0]	@ D.6998,* usartxbase
 554 01cc 10BD     		pop	{r4, pc}	@
 555              		.cfi_endproc
 556              	.LFE35:
 557              		.size	USART_ITConfig, .-USART_ITConfig
 558              		.align	1
 559              		.global	USART_DMACmd
 560              		.thumb
 561              		.thumb_func
 562              		.type	USART_DMACmd, %function
 563              	USART_DMACmd:
 564              	.LFB36:
 430:Libraries/STM32F10x_StdPeriph_Driver/src/stm32f10x_usart.c ****   }
 431:Libraries/STM32F10x_StdPeriph_Driver/src/stm32f10x_usart.c **** }
ARM GAS  /var/folders/lp/0dm50ddn51vc39svyzv_6fp00000gn/T//ccLUgEfv.s 			page 19


 432:Libraries/STM32F10x_StdPeriph_Driver/src/stm32f10x_usart.c **** 
 433:Libraries/STM32F10x_StdPeriph_Driver/src/stm32f10x_usart.c **** /**
 434:Libraries/STM32F10x_StdPeriph_Driver/src/stm32f10x_usart.c ****   * @brief  Enables or disables the USARTs DMA interface.
 435:Libraries/STM32F10x_StdPeriph_Driver/src/stm32f10x_usart.c ****   * @param  USARTx: Select the USART or the UART peripheral. 
 436:Libraries/STM32F10x_StdPeriph_Driver/src/stm32f10x_usart.c ****   *   This parameter can be one of the following values:
 437:Libraries/STM32F10x_StdPeriph_Driver/src/stm32f10x_usart.c ****   *   USART1, USART2, USART3, UART4 or UART5.
 438:Libraries/STM32F10x_StdPeriph_Driver/src/stm32f10x_usart.c ****   * @param  USART_DMAReq: specifies the DMA request.
 439:Libraries/STM32F10x_StdPeriph_Driver/src/stm32f10x_usart.c ****   *   This parameter can be any combination of the following values:
 440:Libraries/STM32F10x_StdPeriph_Driver/src/stm32f10x_usart.c ****   *     @arg USART_DMAReq_Tx: USART DMA transmit request
 441:Libraries/STM32F10x_StdPeriph_Driver/src/stm32f10x_usart.c ****   *     @arg USART_DMAReq_Rx: USART DMA receive request
 442:Libraries/STM32F10x_StdPeriph_Driver/src/stm32f10x_usart.c ****   * @param  NewState: new state of the DMA Request sources.
 443:Libraries/STM32F10x_StdPeriph_Driver/src/stm32f10x_usart.c ****   *   This parameter can be: ENABLE or DISABLE.
 444:Libraries/STM32F10x_StdPeriph_Driver/src/stm32f10x_usart.c ****   * @note The DMA mode is not available for UART5 except in the STM32
 445:Libraries/STM32F10x_StdPeriph_Driver/src/stm32f10x_usart.c ****   *       High density value line devices(STM32F10X_HD_VL).  
 446:Libraries/STM32F10x_StdPeriph_Driver/src/stm32f10x_usart.c ****   * @retval None
 447:Libraries/STM32F10x_StdPeriph_Driver/src/stm32f10x_usart.c ****   */
 448:Libraries/STM32F10x_StdPeriph_Driver/src/stm32f10x_usart.c **** void USART_DMACmd(USART_TypeDef* USARTx, uint16_t USART_DMAReq, FunctionalState NewState)
 449:Libraries/STM32F10x_StdPeriph_Driver/src/stm32f10x_usart.c **** {
 565              		.loc 1 449 0
 566              		.cfi_startproc
 567              		@ args = 0, pretend = 0, frame = 0
 568              		@ frame_needed = 0, uses_anonymous_args = 0
 569              		@ link register save eliminated.
 570              	.LVL61:
 450:Libraries/STM32F10x_StdPeriph_Driver/src/stm32f10x_usart.c ****   /* Check the parameters */
 451:Libraries/STM32F10x_StdPeriph_Driver/src/stm32f10x_usart.c ****   assert_param(IS_USART_ALL_PERIPH(USARTx));
 452:Libraries/STM32F10x_StdPeriph_Driver/src/stm32f10x_usart.c ****   assert_param(IS_USART_DMAREQ(USART_DMAReq));  
 453:Libraries/STM32F10x_StdPeriph_Driver/src/stm32f10x_usart.c ****   assert_param(IS_FUNCTIONAL_STATE(NewState)); 
 454:Libraries/STM32F10x_StdPeriph_Driver/src/stm32f10x_usart.c ****   if (NewState != DISABLE)
 455:Libraries/STM32F10x_StdPeriph_Driver/src/stm32f10x_usart.c ****   {
 456:Libraries/STM32F10x_StdPeriph_Driver/src/stm32f10x_usart.c ****     /* Enable the DMA transfer for selected requests by setting the DMAT and/or
 457:Libraries/STM32F10x_StdPeriph_Driver/src/stm32f10x_usart.c ****        DMAR bits in the USART CR3 register */
 458:Libraries/STM32F10x_StdPeriph_Driver/src/stm32f10x_usart.c ****     USARTx->CR3 |= USART_DMAReq;
 571              		.loc 1 458 0
 572 01ce 838A     		ldrh	r3, [r0, #20]	@,
 573 01d0 9BB2     		uxth	r3, r3	@ D.7001, USARTx_4(D)->CR3
 454:Libraries/STM32F10x_StdPeriph_Driver/src/stm32f10x_usart.c ****   {
 574              		.loc 1 454 0
 575 01d2 0AB1     		cbz	r2, .L35	@ NewState,
 576              		.loc 1 458 0
 577 01d4 1943     		orrs	r1, r1, r3	@, D.7001, USART_DMAReq, D.7001
 578              	.LVL62:
 579 01d6 01E0     		b	.L37	@
 580              	.LVL63:
 581              	.L35:
 459:Libraries/STM32F10x_StdPeriph_Driver/src/stm32f10x_usart.c ****   }
 460:Libraries/STM32F10x_StdPeriph_Driver/src/stm32f10x_usart.c ****   else
 461:Libraries/STM32F10x_StdPeriph_Driver/src/stm32f10x_usart.c ****   {
 462:Libraries/STM32F10x_StdPeriph_Driver/src/stm32f10x_usart.c ****     /* Disable the DMA transfer for selected requests by clearing the DMAT and/or
 463:Libraries/STM32F10x_StdPeriph_Driver/src/stm32f10x_usart.c ****        DMAR bits in the USART CR3 register */
 464:Libraries/STM32F10x_StdPeriph_Driver/src/stm32f10x_usart.c ****     USARTx->CR3 &= (uint16_t)~USART_DMAReq;
 582              		.loc 1 464 0
 583 01d8 23EA0101 		bic	r1, r3, r1	@ D.7001, D.7001, USART_DMAReq
 584              	.LVL64:
 585              	.L37:
 586 01dc 8182     		strh	r1, [r0, #20]	@ movhi	@ D.7001,
 587 01de 7047     		bx	lr	@
ARM GAS  /var/folders/lp/0dm50ddn51vc39svyzv_6fp00000gn/T//ccLUgEfv.s 			page 20


 588              		.cfi_endproc
 589              	.LFE36:
 590              		.size	USART_DMACmd, .-USART_DMACmd
 591              		.align	1
 592              		.global	USART_SetAddress
 593              		.thumb
 594              		.thumb_func
 595              		.type	USART_SetAddress, %function
 596              	USART_SetAddress:
 597              	.LFB37:
 465:Libraries/STM32F10x_StdPeriph_Driver/src/stm32f10x_usart.c ****   }
 466:Libraries/STM32F10x_StdPeriph_Driver/src/stm32f10x_usart.c **** }
 467:Libraries/STM32F10x_StdPeriph_Driver/src/stm32f10x_usart.c **** 
 468:Libraries/STM32F10x_StdPeriph_Driver/src/stm32f10x_usart.c **** /**
 469:Libraries/STM32F10x_StdPeriph_Driver/src/stm32f10x_usart.c ****   * @brief  Sets the address of the USART node.
 470:Libraries/STM32F10x_StdPeriph_Driver/src/stm32f10x_usart.c ****   * @param  USARTx: Select the USART or the UART peripheral. 
 471:Libraries/STM32F10x_StdPeriph_Driver/src/stm32f10x_usart.c ****   *   This parameter can be one of the following values:
 472:Libraries/STM32F10x_StdPeriph_Driver/src/stm32f10x_usart.c ****   *   USART1, USART2, USART3, UART4 or UART5.
 473:Libraries/STM32F10x_StdPeriph_Driver/src/stm32f10x_usart.c ****   * @param  USART_Address: Indicates the address of the USART node.
 474:Libraries/STM32F10x_StdPeriph_Driver/src/stm32f10x_usart.c ****   * @retval None
 475:Libraries/STM32F10x_StdPeriph_Driver/src/stm32f10x_usart.c ****   */
 476:Libraries/STM32F10x_StdPeriph_Driver/src/stm32f10x_usart.c **** void USART_SetAddress(USART_TypeDef* USARTx, uint8_t USART_Address)
 477:Libraries/STM32F10x_StdPeriph_Driver/src/stm32f10x_usart.c **** {
 598              		.loc 1 477 0
 599              		.cfi_startproc
 600              		@ args = 0, pretend = 0, frame = 0
 601              		@ frame_needed = 0, uses_anonymous_args = 0
 602              		@ link register save eliminated.
 603              	.LVL65:
 478:Libraries/STM32F10x_StdPeriph_Driver/src/stm32f10x_usart.c ****   /* Check the parameters */
 479:Libraries/STM32F10x_StdPeriph_Driver/src/stm32f10x_usart.c ****   assert_param(IS_USART_ALL_PERIPH(USARTx));
 480:Libraries/STM32F10x_StdPeriph_Driver/src/stm32f10x_usart.c ****   assert_param(IS_USART_ADDRESS(USART_Address)); 
 481:Libraries/STM32F10x_StdPeriph_Driver/src/stm32f10x_usart.c ****     
 482:Libraries/STM32F10x_StdPeriph_Driver/src/stm32f10x_usart.c ****   /* Clear the USART address */
 483:Libraries/STM32F10x_StdPeriph_Driver/src/stm32f10x_usart.c ****   USARTx->CR2 &= CR2_Address_Mask;
 604              		.loc 1 483 0
 605 01e0 038A     		ldrh	r3, [r0, #16]	@, USARTx_2(D)->CR2
 606 01e2 23F00F03 		bic	r3, r3, #15	@ D.7004, USARTx_2(D)->CR2,
 607 01e6 1B04     		lsls	r3, r3, #16	@ D.7004, D.7004,
 608 01e8 1B0C     		lsrs	r3, r3, #16	@ D.7004, D.7004,
 609 01ea 0382     		strh	r3, [r0, #16]	@ movhi	@ D.7004, USARTx_2(D)->CR2
 484:Libraries/STM32F10x_StdPeriph_Driver/src/stm32f10x_usart.c ****   /* Set the USART address node */
 485:Libraries/STM32F10x_StdPeriph_Driver/src/stm32f10x_usart.c ****   USARTx->CR2 |= USART_Address;
 610              		.loc 1 485 0
 611 01ec 038A     		ldrh	r3, [r0, #16]	@, USARTx_2(D)->CR2
 612 01ee 9BB2     		uxth	r3, r3	@ D.7004, USARTx_2(D)->CR2
 613 01f0 1943     		orrs	r1, r1, r3	@, D.7004, USART_Address, D.7004
 614              	.LVL66:
 615 01f2 0182     		strh	r1, [r0, #16]	@ movhi	@ D.7004, USARTx_2(D)->CR2
 616 01f4 7047     		bx	lr	@
 617              		.cfi_endproc
 618              	.LFE37:
 619              		.size	USART_SetAddress, .-USART_SetAddress
 620              		.align	1
 621              		.global	USART_WakeUpConfig
 622              		.thumb
 623              		.thumb_func
ARM GAS  /var/folders/lp/0dm50ddn51vc39svyzv_6fp00000gn/T//ccLUgEfv.s 			page 21


 624              		.type	USART_WakeUpConfig, %function
 625              	USART_WakeUpConfig:
 626              	.LFB38:
 486:Libraries/STM32F10x_StdPeriph_Driver/src/stm32f10x_usart.c **** }
 487:Libraries/STM32F10x_StdPeriph_Driver/src/stm32f10x_usart.c **** 
 488:Libraries/STM32F10x_StdPeriph_Driver/src/stm32f10x_usart.c **** /**
 489:Libraries/STM32F10x_StdPeriph_Driver/src/stm32f10x_usart.c ****   * @brief  Selects the USART WakeUp method.
 490:Libraries/STM32F10x_StdPeriph_Driver/src/stm32f10x_usart.c ****   * @param  USARTx: Select the USART or the UART peripheral. 
 491:Libraries/STM32F10x_StdPeriph_Driver/src/stm32f10x_usart.c ****   *   This parameter can be one of the following values:
 492:Libraries/STM32F10x_StdPeriph_Driver/src/stm32f10x_usart.c ****   *   USART1, USART2, USART3, UART4 or UART5.
 493:Libraries/STM32F10x_StdPeriph_Driver/src/stm32f10x_usart.c ****   * @param  USART_WakeUp: specifies the USART wakeup method.
 494:Libraries/STM32F10x_StdPeriph_Driver/src/stm32f10x_usart.c ****   *   This parameter can be one of the following values:
 495:Libraries/STM32F10x_StdPeriph_Driver/src/stm32f10x_usart.c ****   *     @arg USART_WakeUp_IdleLine: WakeUp by an idle line detection
 496:Libraries/STM32F10x_StdPeriph_Driver/src/stm32f10x_usart.c ****   *     @arg USART_WakeUp_AddressMark: WakeUp by an address mark
 497:Libraries/STM32F10x_StdPeriph_Driver/src/stm32f10x_usart.c ****   * @retval None
 498:Libraries/STM32F10x_StdPeriph_Driver/src/stm32f10x_usart.c ****   */
 499:Libraries/STM32F10x_StdPeriph_Driver/src/stm32f10x_usart.c **** void USART_WakeUpConfig(USART_TypeDef* USARTx, uint16_t USART_WakeUp)
 500:Libraries/STM32F10x_StdPeriph_Driver/src/stm32f10x_usart.c **** {
 627              		.loc 1 500 0
 628              		.cfi_startproc
 629              		@ args = 0, pretend = 0, frame = 0
 630              		@ frame_needed = 0, uses_anonymous_args = 0
 631              		@ link register save eliminated.
 632              	.LVL67:
 501:Libraries/STM32F10x_StdPeriph_Driver/src/stm32f10x_usart.c ****   /* Check the parameters */
 502:Libraries/STM32F10x_StdPeriph_Driver/src/stm32f10x_usart.c ****   assert_param(IS_USART_ALL_PERIPH(USARTx));
 503:Libraries/STM32F10x_StdPeriph_Driver/src/stm32f10x_usart.c ****   assert_param(IS_USART_WAKEUP(USART_WakeUp));
 504:Libraries/STM32F10x_StdPeriph_Driver/src/stm32f10x_usart.c ****   
 505:Libraries/STM32F10x_StdPeriph_Driver/src/stm32f10x_usart.c ****   USARTx->CR1 &= CR1_WAKE_Mask;
 633              		.loc 1 505 0
 634 01f6 8389     		ldrh	r3, [r0, #12]	@, USARTx_2(D)->CR1
 635 01f8 23F40063 		bic	r3, r3, #2048	@ D.7007, USARTx_2(D)->CR1,
 636 01fc 1B04     		lsls	r3, r3, #16	@ D.7007, D.7007,
 637 01fe 1B0C     		lsrs	r3, r3, #16	@ D.7007, D.7007,
 638 0200 8381     		strh	r3, [r0, #12]	@ movhi	@ D.7007, USARTx_2(D)->CR1
 506:Libraries/STM32F10x_StdPeriph_Driver/src/stm32f10x_usart.c ****   USARTx->CR1 |= USART_WakeUp;
 639              		.loc 1 506 0
 640 0202 8389     		ldrh	r3, [r0, #12]	@, USARTx_2(D)->CR1
 641 0204 9BB2     		uxth	r3, r3	@ D.7007, USARTx_2(D)->CR1
 642 0206 1943     		orrs	r1, r1, r3	@, D.7007, USART_WakeUp, D.7007
 643              	.LVL68:
 644 0208 8181     		strh	r1, [r0, #12]	@ movhi	@ D.7007, USARTx_2(D)->CR1
 645 020a 7047     		bx	lr	@
 646              		.cfi_endproc
 647              	.LFE38:
 648              		.size	USART_WakeUpConfig, .-USART_WakeUpConfig
 649              		.align	1
 650              		.global	USART_ReceiverWakeUpCmd
 651              		.thumb
 652              		.thumb_func
 653              		.type	USART_ReceiverWakeUpCmd, %function
 654              	USART_ReceiverWakeUpCmd:
 655              	.LFB39:
 507:Libraries/STM32F10x_StdPeriph_Driver/src/stm32f10x_usart.c **** }
 508:Libraries/STM32F10x_StdPeriph_Driver/src/stm32f10x_usart.c **** 
 509:Libraries/STM32F10x_StdPeriph_Driver/src/stm32f10x_usart.c **** /**
 510:Libraries/STM32F10x_StdPeriph_Driver/src/stm32f10x_usart.c ****   * @brief  Determines if the USART is in mute mode or not.
ARM GAS  /var/folders/lp/0dm50ddn51vc39svyzv_6fp00000gn/T//ccLUgEfv.s 			page 22


 511:Libraries/STM32F10x_StdPeriph_Driver/src/stm32f10x_usart.c ****   * @param  USARTx: Select the USART or the UART peripheral. 
 512:Libraries/STM32F10x_StdPeriph_Driver/src/stm32f10x_usart.c ****   *   This parameter can be one of the following values:
 513:Libraries/STM32F10x_StdPeriph_Driver/src/stm32f10x_usart.c ****   *   USART1, USART2, USART3, UART4 or UART5.
 514:Libraries/STM32F10x_StdPeriph_Driver/src/stm32f10x_usart.c ****   * @param  NewState: new state of the USART mute mode.
 515:Libraries/STM32F10x_StdPeriph_Driver/src/stm32f10x_usart.c ****   *   This parameter can be: ENABLE or DISABLE.
 516:Libraries/STM32F10x_StdPeriph_Driver/src/stm32f10x_usart.c ****   * @retval None
 517:Libraries/STM32F10x_StdPeriph_Driver/src/stm32f10x_usart.c ****   */
 518:Libraries/STM32F10x_StdPeriph_Driver/src/stm32f10x_usart.c **** void USART_ReceiverWakeUpCmd(USART_TypeDef* USARTx, FunctionalState NewState)
 519:Libraries/STM32F10x_StdPeriph_Driver/src/stm32f10x_usart.c **** {
 656              		.loc 1 519 0
 657              		.cfi_startproc
 658              		@ args = 0, pretend = 0, frame = 0
 659              		@ frame_needed = 0, uses_anonymous_args = 0
 660              		@ link register save eliminated.
 661              	.LVL69:
 520:Libraries/STM32F10x_StdPeriph_Driver/src/stm32f10x_usart.c ****   /* Check the parameters */
 521:Libraries/STM32F10x_StdPeriph_Driver/src/stm32f10x_usart.c ****   assert_param(IS_USART_ALL_PERIPH(USARTx));
 522:Libraries/STM32F10x_StdPeriph_Driver/src/stm32f10x_usart.c ****   assert_param(IS_FUNCTIONAL_STATE(NewState)); 
 523:Libraries/STM32F10x_StdPeriph_Driver/src/stm32f10x_usart.c ****   
 524:Libraries/STM32F10x_StdPeriph_Driver/src/stm32f10x_usart.c ****   if (NewState != DISABLE)
 525:Libraries/STM32F10x_StdPeriph_Driver/src/stm32f10x_usart.c ****   {
 526:Libraries/STM32F10x_StdPeriph_Driver/src/stm32f10x_usart.c ****     /* Enable the USART mute mode  by setting the RWU bit in the CR1 register */
 527:Libraries/STM32F10x_StdPeriph_Driver/src/stm32f10x_usart.c ****     USARTx->CR1 |= CR1_RWU_Set;
 662              		.loc 1 527 0
 663 020c 8389     		ldrh	r3, [r0, #12]	@,
 524:Libraries/STM32F10x_StdPeriph_Driver/src/stm32f10x_usart.c ****   {
 664              		.loc 1 524 0
 665 020e 19B1     		cbz	r1, .L41	@ NewState,
 666              		.loc 1 527 0
 667 0210 9BB2     		uxth	r3, r3	@ D.7010, USARTx_4(D)->CR1
 668 0212 43F00203 		orr	r3, r3, #2	@ D.7010, D.7010,
 669 0216 03E0     		b	.L43	@
 670              	.L41:
 528:Libraries/STM32F10x_StdPeriph_Driver/src/stm32f10x_usart.c ****   }
 529:Libraries/STM32F10x_StdPeriph_Driver/src/stm32f10x_usart.c ****   else
 530:Libraries/STM32F10x_StdPeriph_Driver/src/stm32f10x_usart.c ****   {
 531:Libraries/STM32F10x_StdPeriph_Driver/src/stm32f10x_usart.c ****     /* Disable the USART mute mode by clearing the RWU bit in the CR1 register */
 532:Libraries/STM32F10x_StdPeriph_Driver/src/stm32f10x_usart.c ****     USARTx->CR1 &= CR1_RWU_Reset;
 671              		.loc 1 532 0
 672 0218 23F00203 		bic	r3, r3, #2	@ D.7010, USARTx_4(D)->CR1,
 673 021c 1B04     		lsls	r3, r3, #16	@ D.7010, D.7010,
 674 021e 1B0C     		lsrs	r3, r3, #16	@ D.7010, D.7010,
 675              	.L43:
 676 0220 8381     		strh	r3, [r0, #12]	@ movhi	@ D.7010,
 677 0222 7047     		bx	lr	@
 678              		.cfi_endproc
 679              	.LFE39:
 680              		.size	USART_ReceiverWakeUpCmd, .-USART_ReceiverWakeUpCmd
 681              		.align	1
 682              		.global	USART_LINBreakDetectLengthConfig
 683              		.thumb
 684              		.thumb_func
 685              		.type	USART_LINBreakDetectLengthConfig, %function
 686              	USART_LINBreakDetectLengthConfig:
 687              	.LFB40:
 533:Libraries/STM32F10x_StdPeriph_Driver/src/stm32f10x_usart.c ****   }
 534:Libraries/STM32F10x_StdPeriph_Driver/src/stm32f10x_usart.c **** }
ARM GAS  /var/folders/lp/0dm50ddn51vc39svyzv_6fp00000gn/T//ccLUgEfv.s 			page 23


 535:Libraries/STM32F10x_StdPeriph_Driver/src/stm32f10x_usart.c **** 
 536:Libraries/STM32F10x_StdPeriph_Driver/src/stm32f10x_usart.c **** /**
 537:Libraries/STM32F10x_StdPeriph_Driver/src/stm32f10x_usart.c ****   * @brief  Sets the USART LIN Break detection length.
 538:Libraries/STM32F10x_StdPeriph_Driver/src/stm32f10x_usart.c ****   * @param  USARTx: Select the USART or the UART peripheral. 
 539:Libraries/STM32F10x_StdPeriph_Driver/src/stm32f10x_usart.c ****   *   This parameter can be one of the following values:
 540:Libraries/STM32F10x_StdPeriph_Driver/src/stm32f10x_usart.c ****   *   USART1, USART2, USART3, UART4 or UART5.
 541:Libraries/STM32F10x_StdPeriph_Driver/src/stm32f10x_usart.c ****   * @param  USART_LINBreakDetectLength: specifies the LIN break detection length.
 542:Libraries/STM32F10x_StdPeriph_Driver/src/stm32f10x_usart.c ****   *   This parameter can be one of the following values:
 543:Libraries/STM32F10x_StdPeriph_Driver/src/stm32f10x_usart.c ****   *     @arg USART_LINBreakDetectLength_10b: 10-bit break detection
 544:Libraries/STM32F10x_StdPeriph_Driver/src/stm32f10x_usart.c ****   *     @arg USART_LINBreakDetectLength_11b: 11-bit break detection
 545:Libraries/STM32F10x_StdPeriph_Driver/src/stm32f10x_usart.c ****   * @retval None
 546:Libraries/STM32F10x_StdPeriph_Driver/src/stm32f10x_usart.c ****   */
 547:Libraries/STM32F10x_StdPeriph_Driver/src/stm32f10x_usart.c **** void USART_LINBreakDetectLengthConfig(USART_TypeDef* USARTx, uint16_t USART_LINBreakDetectLength)
 548:Libraries/STM32F10x_StdPeriph_Driver/src/stm32f10x_usart.c **** {
 688              		.loc 1 548 0
 689              		.cfi_startproc
 690              		@ args = 0, pretend = 0, frame = 0
 691              		@ frame_needed = 0, uses_anonymous_args = 0
 692              		@ link register save eliminated.
 693              	.LVL70:
 549:Libraries/STM32F10x_StdPeriph_Driver/src/stm32f10x_usart.c ****   /* Check the parameters */
 550:Libraries/STM32F10x_StdPeriph_Driver/src/stm32f10x_usart.c ****   assert_param(IS_USART_ALL_PERIPH(USARTx));
 551:Libraries/STM32F10x_StdPeriph_Driver/src/stm32f10x_usart.c ****   assert_param(IS_USART_LIN_BREAK_DETECT_LENGTH(USART_LINBreakDetectLength));
 552:Libraries/STM32F10x_StdPeriph_Driver/src/stm32f10x_usart.c ****   
 553:Libraries/STM32F10x_StdPeriph_Driver/src/stm32f10x_usart.c ****   USARTx->CR2 &= CR2_LBDL_Mask;
 694              		.loc 1 553 0
 695 0224 038A     		ldrh	r3, [r0, #16]	@, USARTx_2(D)->CR2
 696 0226 23F02003 		bic	r3, r3, #32	@ D.7013, USARTx_2(D)->CR2,
 697 022a 1B04     		lsls	r3, r3, #16	@ D.7013, D.7013,
 698 022c 1B0C     		lsrs	r3, r3, #16	@ D.7013, D.7013,
 699 022e 0382     		strh	r3, [r0, #16]	@ movhi	@ D.7013, USARTx_2(D)->CR2
 554:Libraries/STM32F10x_StdPeriph_Driver/src/stm32f10x_usart.c ****   USARTx->CR2 |= USART_LINBreakDetectLength;  
 700              		.loc 1 554 0
 701 0230 038A     		ldrh	r3, [r0, #16]	@, USARTx_2(D)->CR2
 702 0232 9BB2     		uxth	r3, r3	@ D.7013, USARTx_2(D)->CR2
 703 0234 1943     		orrs	r1, r1, r3	@, D.7013, USART_LINBreakDetectLength, D.7013
 704              	.LVL71:
 705 0236 0182     		strh	r1, [r0, #16]	@ movhi	@ D.7013, USARTx_2(D)->CR2
 706 0238 7047     		bx	lr	@
 707              		.cfi_endproc
 708              	.LFE40:
 709              		.size	USART_LINBreakDetectLengthConfig, .-USART_LINBreakDetectLengthConfig
 710              		.align	1
 711              		.global	USART_LINCmd
 712              		.thumb
 713              		.thumb_func
 714              		.type	USART_LINCmd, %function
 715              	USART_LINCmd:
 716              	.LFB41:
 555:Libraries/STM32F10x_StdPeriph_Driver/src/stm32f10x_usart.c **** }
 556:Libraries/STM32F10x_StdPeriph_Driver/src/stm32f10x_usart.c **** 
 557:Libraries/STM32F10x_StdPeriph_Driver/src/stm32f10x_usart.c **** /**
 558:Libraries/STM32F10x_StdPeriph_Driver/src/stm32f10x_usart.c ****   * @brief  Enables or disables the USARTs LIN mode.
 559:Libraries/STM32F10x_StdPeriph_Driver/src/stm32f10x_usart.c ****   * @param  USARTx: Select the USART or the UART peripheral. 
 560:Libraries/STM32F10x_StdPeriph_Driver/src/stm32f10x_usart.c ****   *   This parameter can be one of the following values:
 561:Libraries/STM32F10x_StdPeriph_Driver/src/stm32f10x_usart.c ****   *   USART1, USART2, USART3, UART4 or UART5.
 562:Libraries/STM32F10x_StdPeriph_Driver/src/stm32f10x_usart.c ****   * @param  NewState: new state of the USART LIN mode.
ARM GAS  /var/folders/lp/0dm50ddn51vc39svyzv_6fp00000gn/T//ccLUgEfv.s 			page 24


 563:Libraries/STM32F10x_StdPeriph_Driver/src/stm32f10x_usart.c ****   *   This parameter can be: ENABLE or DISABLE.
 564:Libraries/STM32F10x_StdPeriph_Driver/src/stm32f10x_usart.c ****   * @retval None
 565:Libraries/STM32F10x_StdPeriph_Driver/src/stm32f10x_usart.c ****   */
 566:Libraries/STM32F10x_StdPeriph_Driver/src/stm32f10x_usart.c **** void USART_LINCmd(USART_TypeDef* USARTx, FunctionalState NewState)
 567:Libraries/STM32F10x_StdPeriph_Driver/src/stm32f10x_usart.c **** {
 717              		.loc 1 567 0
 718              		.cfi_startproc
 719              		@ args = 0, pretend = 0, frame = 0
 720              		@ frame_needed = 0, uses_anonymous_args = 0
 721              		@ link register save eliminated.
 722              	.LVL72:
 568:Libraries/STM32F10x_StdPeriph_Driver/src/stm32f10x_usart.c ****   /* Check the parameters */
 569:Libraries/STM32F10x_StdPeriph_Driver/src/stm32f10x_usart.c ****   assert_param(IS_USART_ALL_PERIPH(USARTx));
 570:Libraries/STM32F10x_StdPeriph_Driver/src/stm32f10x_usart.c ****   assert_param(IS_FUNCTIONAL_STATE(NewState));
 571:Libraries/STM32F10x_StdPeriph_Driver/src/stm32f10x_usart.c ****   
 572:Libraries/STM32F10x_StdPeriph_Driver/src/stm32f10x_usart.c ****   if (NewState != DISABLE)
 573:Libraries/STM32F10x_StdPeriph_Driver/src/stm32f10x_usart.c ****   {
 574:Libraries/STM32F10x_StdPeriph_Driver/src/stm32f10x_usart.c ****     /* Enable the LIN mode by setting the LINEN bit in the CR2 register */
 575:Libraries/STM32F10x_StdPeriph_Driver/src/stm32f10x_usart.c ****     USARTx->CR2 |= CR2_LINEN_Set;
 723              		.loc 1 575 0
 724 023a 038A     		ldrh	r3, [r0, #16]	@,
 572:Libraries/STM32F10x_StdPeriph_Driver/src/stm32f10x_usart.c ****   {
 725              		.loc 1 572 0
 726 023c 19B1     		cbz	r1, .L46	@ NewState,
 727              		.loc 1 575 0
 728 023e 9BB2     		uxth	r3, r3	@ D.7016, USARTx_4(D)->CR2
 729 0240 43F48043 		orr	r3, r3, #16384	@ D.7016, D.7016,
 730 0244 03E0     		b	.L48	@
 731              	.L46:
 576:Libraries/STM32F10x_StdPeriph_Driver/src/stm32f10x_usart.c ****   }
 577:Libraries/STM32F10x_StdPeriph_Driver/src/stm32f10x_usart.c ****   else
 578:Libraries/STM32F10x_StdPeriph_Driver/src/stm32f10x_usart.c ****   {
 579:Libraries/STM32F10x_StdPeriph_Driver/src/stm32f10x_usart.c ****     /* Disable the LIN mode by clearing the LINEN bit in the CR2 register */
 580:Libraries/STM32F10x_StdPeriph_Driver/src/stm32f10x_usart.c ****     USARTx->CR2 &= CR2_LINEN_Reset;
 732              		.loc 1 580 0
 733 0246 23F48043 		bic	r3, r3, #16384	@ D.7016, USARTx_4(D)->CR2,
 734 024a 1B04     		lsls	r3, r3, #16	@ D.7016, D.7016,
 735 024c 1B0C     		lsrs	r3, r3, #16	@ D.7016, D.7016,
 736              	.L48:
 737 024e 0382     		strh	r3, [r0, #16]	@ movhi	@ D.7016,
 738 0250 7047     		bx	lr	@
 739              		.cfi_endproc
 740              	.LFE41:
 741              		.size	USART_LINCmd, .-USART_LINCmd
 742              		.align	1
 743              		.global	USART_SendData
 744              		.thumb
 745              		.thumb_func
 746              		.type	USART_SendData, %function
 747              	USART_SendData:
 748              	.LFB42:
 581:Libraries/STM32F10x_StdPeriph_Driver/src/stm32f10x_usart.c ****   }
 582:Libraries/STM32F10x_StdPeriph_Driver/src/stm32f10x_usart.c **** }
 583:Libraries/STM32F10x_StdPeriph_Driver/src/stm32f10x_usart.c **** 
 584:Libraries/STM32F10x_StdPeriph_Driver/src/stm32f10x_usart.c **** /**
 585:Libraries/STM32F10x_StdPeriph_Driver/src/stm32f10x_usart.c ****   * @brief  Transmits single data through the USARTx peripheral.
 586:Libraries/STM32F10x_StdPeriph_Driver/src/stm32f10x_usart.c ****   * @param  USARTx: Select the USART or the UART peripheral. 
ARM GAS  /var/folders/lp/0dm50ddn51vc39svyzv_6fp00000gn/T//ccLUgEfv.s 			page 25


 587:Libraries/STM32F10x_StdPeriph_Driver/src/stm32f10x_usart.c ****   *   This parameter can be one of the following values:
 588:Libraries/STM32F10x_StdPeriph_Driver/src/stm32f10x_usart.c ****   *   USART1, USART2, USART3, UART4 or UART5.
 589:Libraries/STM32F10x_StdPeriph_Driver/src/stm32f10x_usart.c ****   * @param  Data: the data to transmit.
 590:Libraries/STM32F10x_StdPeriph_Driver/src/stm32f10x_usart.c ****   * @retval None
 591:Libraries/STM32F10x_StdPeriph_Driver/src/stm32f10x_usart.c ****   */
 592:Libraries/STM32F10x_StdPeriph_Driver/src/stm32f10x_usart.c **** void USART_SendData(USART_TypeDef* USARTx, uint16_t Data)
 593:Libraries/STM32F10x_StdPeriph_Driver/src/stm32f10x_usart.c **** {
 749              		.loc 1 593 0
 750              		.cfi_startproc
 751              		@ args = 0, pretend = 0, frame = 0
 752              		@ frame_needed = 0, uses_anonymous_args = 0
 753              		@ link register save eliminated.
 754              	.LVL73:
 594:Libraries/STM32F10x_StdPeriph_Driver/src/stm32f10x_usart.c ****   /* Check the parameters */
 595:Libraries/STM32F10x_StdPeriph_Driver/src/stm32f10x_usart.c ****   assert_param(IS_USART_ALL_PERIPH(USARTx));
 596:Libraries/STM32F10x_StdPeriph_Driver/src/stm32f10x_usart.c ****   assert_param(IS_USART_DATA(Data)); 
 597:Libraries/STM32F10x_StdPeriph_Driver/src/stm32f10x_usart.c ****     
 598:Libraries/STM32F10x_StdPeriph_Driver/src/stm32f10x_usart.c ****   /* Transmit Data */
 599:Libraries/STM32F10x_StdPeriph_Driver/src/stm32f10x_usart.c ****   USARTx->DR = (Data & (uint16_t)0x01FF);
 755              		.loc 1 599 0
 756 0252 C1F30801 		ubfx	r1, r1, #0, #9	@ D.7019, Data,,
 757              	.LVL74:
 758 0256 8180     		strh	r1, [r0, #4]	@ movhi	@ D.7019, USARTx_4(D)->DR
 759 0258 7047     		bx	lr	@
 760              		.cfi_endproc
 761              	.LFE42:
 762              		.size	USART_SendData, .-USART_SendData
 763              		.align	1
 764              		.global	USART_ReceiveData
 765              		.thumb
 766              		.thumb_func
 767              		.type	USART_ReceiveData, %function
 768              	USART_ReceiveData:
 769              	.LFB43:
 600:Libraries/STM32F10x_StdPeriph_Driver/src/stm32f10x_usart.c **** }
 601:Libraries/STM32F10x_StdPeriph_Driver/src/stm32f10x_usart.c **** 
 602:Libraries/STM32F10x_StdPeriph_Driver/src/stm32f10x_usart.c **** /**
 603:Libraries/STM32F10x_StdPeriph_Driver/src/stm32f10x_usart.c ****   * @brief  Returns the most recent received data by the USARTx peripheral.
 604:Libraries/STM32F10x_StdPeriph_Driver/src/stm32f10x_usart.c ****   * @param  USARTx: Select the USART or the UART peripheral. 
 605:Libraries/STM32F10x_StdPeriph_Driver/src/stm32f10x_usart.c ****   *   This parameter can be one of the following values:
 606:Libraries/STM32F10x_StdPeriph_Driver/src/stm32f10x_usart.c ****   *   USART1, USART2, USART3, UART4 or UART5.
 607:Libraries/STM32F10x_StdPeriph_Driver/src/stm32f10x_usart.c ****   * @retval The received data.
 608:Libraries/STM32F10x_StdPeriph_Driver/src/stm32f10x_usart.c ****   */
 609:Libraries/STM32F10x_StdPeriph_Driver/src/stm32f10x_usart.c **** uint16_t USART_ReceiveData(USART_TypeDef* USARTx)
 610:Libraries/STM32F10x_StdPeriph_Driver/src/stm32f10x_usart.c **** {
 770              		.loc 1 610 0
 771              		.cfi_startproc
 772              		@ args = 0, pretend = 0, frame = 0
 773              		@ frame_needed = 0, uses_anonymous_args = 0
 774              		@ link register save eliminated.
 775              	.LVL75:
 611:Libraries/STM32F10x_StdPeriph_Driver/src/stm32f10x_usart.c ****   /* Check the parameters */
 612:Libraries/STM32F10x_StdPeriph_Driver/src/stm32f10x_usart.c ****   assert_param(IS_USART_ALL_PERIPH(USARTx));
 613:Libraries/STM32F10x_StdPeriph_Driver/src/stm32f10x_usart.c ****   
 614:Libraries/STM32F10x_StdPeriph_Driver/src/stm32f10x_usart.c ****   /* Receive Data */
 615:Libraries/STM32F10x_StdPeriph_Driver/src/stm32f10x_usart.c ****   return (uint16_t)(USARTx->DR & (uint16_t)0x01FF);
 776              		.loc 1 615 0
ARM GAS  /var/folders/lp/0dm50ddn51vc39svyzv_6fp00000gn/T//ccLUgEfv.s 			page 26


 777 025a 8088     		ldrh	r0, [r0, #4]	@, USARTx_2(D)->DR
 778              	.LVL76:
 616:Libraries/STM32F10x_StdPeriph_Driver/src/stm32f10x_usart.c **** }
 779              		.loc 1 616 0
 780 025c C0F30800 		ubfx	r0, r0, #0, #9	@, USARTx_2(D)->DR,,
 781 0260 7047     		bx	lr	@
 782              		.cfi_endproc
 783              	.LFE43:
 784              		.size	USART_ReceiveData, .-USART_ReceiveData
 785              		.align	1
 786              		.global	USART_SendBreak
 787              		.thumb
 788              		.thumb_func
 789              		.type	USART_SendBreak, %function
 790              	USART_SendBreak:
 791              	.LFB44:
 617:Libraries/STM32F10x_StdPeriph_Driver/src/stm32f10x_usart.c **** 
 618:Libraries/STM32F10x_StdPeriph_Driver/src/stm32f10x_usart.c **** /**
 619:Libraries/STM32F10x_StdPeriph_Driver/src/stm32f10x_usart.c ****   * @brief  Transmits break characters.
 620:Libraries/STM32F10x_StdPeriph_Driver/src/stm32f10x_usart.c ****   * @param  USARTx: Select the USART or the UART peripheral. 
 621:Libraries/STM32F10x_StdPeriph_Driver/src/stm32f10x_usart.c ****   *   This parameter can be one of the following values:
 622:Libraries/STM32F10x_StdPeriph_Driver/src/stm32f10x_usart.c ****   *   USART1, USART2, USART3, UART4 or UART5.
 623:Libraries/STM32F10x_StdPeriph_Driver/src/stm32f10x_usart.c ****   * @retval None
 624:Libraries/STM32F10x_StdPeriph_Driver/src/stm32f10x_usart.c ****   */
 625:Libraries/STM32F10x_StdPeriph_Driver/src/stm32f10x_usart.c **** void USART_SendBreak(USART_TypeDef* USARTx)
 626:Libraries/STM32F10x_StdPeriph_Driver/src/stm32f10x_usart.c **** {
 792              		.loc 1 626 0
 793              		.cfi_startproc
 794              		@ args = 0, pretend = 0, frame = 0
 795              		@ frame_needed = 0, uses_anonymous_args = 0
 796              		@ link register save eliminated.
 797              	.LVL77:
 627:Libraries/STM32F10x_StdPeriph_Driver/src/stm32f10x_usart.c ****   /* Check the parameters */
 628:Libraries/STM32F10x_StdPeriph_Driver/src/stm32f10x_usart.c ****   assert_param(IS_USART_ALL_PERIPH(USARTx));
 629:Libraries/STM32F10x_StdPeriph_Driver/src/stm32f10x_usart.c ****   
 630:Libraries/STM32F10x_StdPeriph_Driver/src/stm32f10x_usart.c ****   /* Send break characters */
 631:Libraries/STM32F10x_StdPeriph_Driver/src/stm32f10x_usart.c ****   USARTx->CR1 |= CR1_SBK_Set;
 798              		.loc 1 631 0
 799 0262 8389     		ldrh	r3, [r0, #12]	@, USARTx_2(D)->CR1
 800 0264 9BB2     		uxth	r3, r3	@ D.7026, USARTx_2(D)->CR1
 801 0266 43F00103 		orr	r3, r3, #1	@ D.7026, D.7026,
 802 026a 8381     		strh	r3, [r0, #12]	@ movhi	@ D.7026, USARTx_2(D)->CR1
 803 026c 7047     		bx	lr	@
 804              		.cfi_endproc
 805              	.LFE44:
 806              		.size	USART_SendBreak, .-USART_SendBreak
 807              		.align	1
 808              		.global	USART_SetGuardTime
 809              		.thumb
 810              		.thumb_func
 811              		.type	USART_SetGuardTime, %function
 812              	USART_SetGuardTime:
 813              	.LFB45:
 632:Libraries/STM32F10x_StdPeriph_Driver/src/stm32f10x_usart.c **** }
 633:Libraries/STM32F10x_StdPeriph_Driver/src/stm32f10x_usart.c **** 
 634:Libraries/STM32F10x_StdPeriph_Driver/src/stm32f10x_usart.c **** /**
 635:Libraries/STM32F10x_StdPeriph_Driver/src/stm32f10x_usart.c ****   * @brief  Sets the specified USART guard time.
ARM GAS  /var/folders/lp/0dm50ddn51vc39svyzv_6fp00000gn/T//ccLUgEfv.s 			page 27


 636:Libraries/STM32F10x_StdPeriph_Driver/src/stm32f10x_usart.c ****   * @param  USARTx: where x can be 1, 2 or 3 to select the USART peripheral.
 637:Libraries/STM32F10x_StdPeriph_Driver/src/stm32f10x_usart.c ****   * @param  USART_GuardTime: specifies the guard time.
 638:Libraries/STM32F10x_StdPeriph_Driver/src/stm32f10x_usart.c ****   * @note The guard time bits are not available for UART4 and UART5.   
 639:Libraries/STM32F10x_StdPeriph_Driver/src/stm32f10x_usart.c ****   * @retval None
 640:Libraries/STM32F10x_StdPeriph_Driver/src/stm32f10x_usart.c ****   */
 641:Libraries/STM32F10x_StdPeriph_Driver/src/stm32f10x_usart.c **** void USART_SetGuardTime(USART_TypeDef* USARTx, uint8_t USART_GuardTime)
 642:Libraries/STM32F10x_StdPeriph_Driver/src/stm32f10x_usart.c **** {    
 814              		.loc 1 642 0
 815              		.cfi_startproc
 816              		@ args = 0, pretend = 0, frame = 0
 817              		@ frame_needed = 0, uses_anonymous_args = 0
 818              		@ link register save eliminated.
 819              	.LVL78:
 643:Libraries/STM32F10x_StdPeriph_Driver/src/stm32f10x_usart.c ****   /* Check the parameters */
 644:Libraries/STM32F10x_StdPeriph_Driver/src/stm32f10x_usart.c ****   assert_param(IS_USART_123_PERIPH(USARTx));
 645:Libraries/STM32F10x_StdPeriph_Driver/src/stm32f10x_usart.c ****   
 646:Libraries/STM32F10x_StdPeriph_Driver/src/stm32f10x_usart.c ****   /* Clear the USART Guard time */
 647:Libraries/STM32F10x_StdPeriph_Driver/src/stm32f10x_usart.c ****   USARTx->GTPR &= GTPR_LSB_Mask;
 820              		.loc 1 647 0
 821 026e 038B     		ldrh	r3, [r0, #24]	@, USARTx_2(D)->GTPR
 822 0270 DBB2     		uxtb	r3, r3	@ D.7029, USARTx_2(D)->GTPR
 823 0272 0383     		strh	r3, [r0, #24]	@ movhi	@ D.7029, USARTx_2(D)->GTPR
 648:Libraries/STM32F10x_StdPeriph_Driver/src/stm32f10x_usart.c ****   /* Set the USART guard time */
 649:Libraries/STM32F10x_StdPeriph_Driver/src/stm32f10x_usart.c ****   USARTx->GTPR |= (uint16_t)((uint16_t)USART_GuardTime << 0x08);
 824              		.loc 1 649 0
 825 0274 038B     		ldrh	r3, [r0, #24]	@, USARTx_2(D)->GTPR
 826 0276 9BB2     		uxth	r3, r3	@ D.7029, USARTx_2(D)->GTPR
 827 0278 43EA0121 		orr	r1, r3, r1, lsl #8	@ D.7029, D.7029, USART_GuardTime,
 828              	.LVL79:
 829 027c 0183     		strh	r1, [r0, #24]	@ movhi	@ D.7029, USARTx_2(D)->GTPR
 830 027e 7047     		bx	lr	@
 831              		.cfi_endproc
 832              	.LFE45:
 833              		.size	USART_SetGuardTime, .-USART_SetGuardTime
 834              		.align	1
 835              		.global	USART_SetPrescaler
 836              		.thumb
 837              		.thumb_func
 838              		.type	USART_SetPrescaler, %function
 839              	USART_SetPrescaler:
 840              	.LFB46:
 650:Libraries/STM32F10x_StdPeriph_Driver/src/stm32f10x_usart.c **** }
 651:Libraries/STM32F10x_StdPeriph_Driver/src/stm32f10x_usart.c **** 
 652:Libraries/STM32F10x_StdPeriph_Driver/src/stm32f10x_usart.c **** /**
 653:Libraries/STM32F10x_StdPeriph_Driver/src/stm32f10x_usart.c ****   * @brief  Sets the system clock prescaler.
 654:Libraries/STM32F10x_StdPeriph_Driver/src/stm32f10x_usart.c ****   * @param  USARTx: Select the USART or the UART peripheral. 
 655:Libraries/STM32F10x_StdPeriph_Driver/src/stm32f10x_usart.c ****   *   This parameter can be one of the following values:
 656:Libraries/STM32F10x_StdPeriph_Driver/src/stm32f10x_usart.c ****   *   USART1, USART2, USART3, UART4 or UART5.
 657:Libraries/STM32F10x_StdPeriph_Driver/src/stm32f10x_usart.c ****   * @param  USART_Prescaler: specifies the prescaler clock.  
 658:Libraries/STM32F10x_StdPeriph_Driver/src/stm32f10x_usart.c ****   * @note   The function is used for IrDA mode with UART4 and UART5.
 659:Libraries/STM32F10x_StdPeriph_Driver/src/stm32f10x_usart.c ****   * @retval None
 660:Libraries/STM32F10x_StdPeriph_Driver/src/stm32f10x_usart.c ****   */
 661:Libraries/STM32F10x_StdPeriph_Driver/src/stm32f10x_usart.c **** void USART_SetPrescaler(USART_TypeDef* USARTx, uint8_t USART_Prescaler)
 662:Libraries/STM32F10x_StdPeriph_Driver/src/stm32f10x_usart.c **** { 
 841              		.loc 1 662 0
 842              		.cfi_startproc
 843              		@ args = 0, pretend = 0, frame = 0
ARM GAS  /var/folders/lp/0dm50ddn51vc39svyzv_6fp00000gn/T//ccLUgEfv.s 			page 28


 844              		@ frame_needed = 0, uses_anonymous_args = 0
 845              		@ link register save eliminated.
 846              	.LVL80:
 663:Libraries/STM32F10x_StdPeriph_Driver/src/stm32f10x_usart.c ****   /* Check the parameters */
 664:Libraries/STM32F10x_StdPeriph_Driver/src/stm32f10x_usart.c ****   assert_param(IS_USART_ALL_PERIPH(USARTx));
 665:Libraries/STM32F10x_StdPeriph_Driver/src/stm32f10x_usart.c ****   
 666:Libraries/STM32F10x_StdPeriph_Driver/src/stm32f10x_usart.c ****   /* Clear the USART prescaler */
 667:Libraries/STM32F10x_StdPeriph_Driver/src/stm32f10x_usart.c ****   USARTx->GTPR &= GTPR_MSB_Mask;
 847              		.loc 1 667 0
 848 0280 038B     		ldrh	r3, [r0, #24]	@, USARTx_2(D)->GTPR
 849 0282 03F47F43 		and	r3, r3, #65280	@ D.7032, USARTx_2(D)->GTPR,
 850 0286 0383     		strh	r3, [r0, #24]	@ movhi	@ D.7032, USARTx_2(D)->GTPR
 668:Libraries/STM32F10x_StdPeriph_Driver/src/stm32f10x_usart.c ****   /* Set the USART prescaler */
 669:Libraries/STM32F10x_StdPeriph_Driver/src/stm32f10x_usart.c ****   USARTx->GTPR |= USART_Prescaler;
 851              		.loc 1 669 0
 852 0288 038B     		ldrh	r3, [r0, #24]	@, USARTx_2(D)->GTPR
 853 028a 9BB2     		uxth	r3, r3	@ D.7032, USARTx_2(D)->GTPR
 854 028c 1943     		orrs	r1, r1, r3	@, D.7032, USART_Prescaler, D.7032
 855              	.LVL81:
 856 028e 0183     		strh	r1, [r0, #24]	@ movhi	@ D.7032, USARTx_2(D)->GTPR
 857 0290 7047     		bx	lr	@
 858              		.cfi_endproc
 859              	.LFE46:
 860              		.size	USART_SetPrescaler, .-USART_SetPrescaler
 861              		.align	1
 862              		.global	USART_SmartCardCmd
 863              		.thumb
 864              		.thumb_func
 865              		.type	USART_SmartCardCmd, %function
 866              	USART_SmartCardCmd:
 867              	.LFB47:
 670:Libraries/STM32F10x_StdPeriph_Driver/src/stm32f10x_usart.c **** }
 671:Libraries/STM32F10x_StdPeriph_Driver/src/stm32f10x_usart.c **** 
 672:Libraries/STM32F10x_StdPeriph_Driver/src/stm32f10x_usart.c **** /**
 673:Libraries/STM32F10x_StdPeriph_Driver/src/stm32f10x_usart.c ****   * @brief  Enables or disables the USARTs Smart Card mode.
 674:Libraries/STM32F10x_StdPeriph_Driver/src/stm32f10x_usart.c ****   * @param  USARTx: where x can be 1, 2 or 3 to select the USART peripheral.
 675:Libraries/STM32F10x_StdPeriph_Driver/src/stm32f10x_usart.c ****   * @param  NewState: new state of the Smart Card mode.
 676:Libraries/STM32F10x_StdPeriph_Driver/src/stm32f10x_usart.c ****   *   This parameter can be: ENABLE or DISABLE.     
 677:Libraries/STM32F10x_StdPeriph_Driver/src/stm32f10x_usart.c ****   * @note The Smart Card mode is not available for UART4 and UART5. 
 678:Libraries/STM32F10x_StdPeriph_Driver/src/stm32f10x_usart.c ****   * @retval None
 679:Libraries/STM32F10x_StdPeriph_Driver/src/stm32f10x_usart.c ****   */
 680:Libraries/STM32F10x_StdPeriph_Driver/src/stm32f10x_usart.c **** void USART_SmartCardCmd(USART_TypeDef* USARTx, FunctionalState NewState)
 681:Libraries/STM32F10x_StdPeriph_Driver/src/stm32f10x_usart.c **** {
 868              		.loc 1 681 0
 869              		.cfi_startproc
 870              		@ args = 0, pretend = 0, frame = 0
 871              		@ frame_needed = 0, uses_anonymous_args = 0
 872              		@ link register save eliminated.
 873              	.LVL82:
 682:Libraries/STM32F10x_StdPeriph_Driver/src/stm32f10x_usart.c ****   /* Check the parameters */
 683:Libraries/STM32F10x_StdPeriph_Driver/src/stm32f10x_usart.c ****   assert_param(IS_USART_123_PERIPH(USARTx));
 684:Libraries/STM32F10x_StdPeriph_Driver/src/stm32f10x_usart.c ****   assert_param(IS_FUNCTIONAL_STATE(NewState));
 685:Libraries/STM32F10x_StdPeriph_Driver/src/stm32f10x_usart.c ****   if (NewState != DISABLE)
 686:Libraries/STM32F10x_StdPeriph_Driver/src/stm32f10x_usart.c ****   {
 687:Libraries/STM32F10x_StdPeriph_Driver/src/stm32f10x_usart.c ****     /* Enable the SC mode by setting the SCEN bit in the CR3 register */
 688:Libraries/STM32F10x_StdPeriph_Driver/src/stm32f10x_usart.c ****     USARTx->CR3 |= CR3_SCEN_Set;
 874              		.loc 1 688 0
ARM GAS  /var/folders/lp/0dm50ddn51vc39svyzv_6fp00000gn/T//ccLUgEfv.s 			page 29


 875 0292 838A     		ldrh	r3, [r0, #20]	@,
 685:Libraries/STM32F10x_StdPeriph_Driver/src/stm32f10x_usart.c ****   {
 876              		.loc 1 685 0
 877 0294 19B1     		cbz	r1, .L55	@ NewState,
 878              		.loc 1 688 0
 879 0296 9BB2     		uxth	r3, r3	@ D.7035, USARTx_4(D)->CR3
 880 0298 43F02003 		orr	r3, r3, #32	@ D.7035, D.7035,
 881 029c 03E0     		b	.L57	@
 882              	.L55:
 689:Libraries/STM32F10x_StdPeriph_Driver/src/stm32f10x_usart.c ****   }
 690:Libraries/STM32F10x_StdPeriph_Driver/src/stm32f10x_usart.c ****   else
 691:Libraries/STM32F10x_StdPeriph_Driver/src/stm32f10x_usart.c ****   {
 692:Libraries/STM32F10x_StdPeriph_Driver/src/stm32f10x_usart.c ****     /* Disable the SC mode by clearing the SCEN bit in the CR3 register */
 693:Libraries/STM32F10x_StdPeriph_Driver/src/stm32f10x_usart.c ****     USARTx->CR3 &= CR3_SCEN_Reset;
 883              		.loc 1 693 0
 884 029e 23F02003 		bic	r3, r3, #32	@ D.7035, USARTx_4(D)->CR3,
 885 02a2 1B04     		lsls	r3, r3, #16	@ D.7035, D.7035,
 886 02a4 1B0C     		lsrs	r3, r3, #16	@ D.7035, D.7035,
 887              	.L57:
 888 02a6 8382     		strh	r3, [r0, #20]	@ movhi	@ D.7035,
 889 02a8 7047     		bx	lr	@
 890              		.cfi_endproc
 891              	.LFE47:
 892              		.size	USART_SmartCardCmd, .-USART_SmartCardCmd
 893              		.align	1
 894              		.global	USART_SmartCardNACKCmd
 895              		.thumb
 896              		.thumb_func
 897              		.type	USART_SmartCardNACKCmd, %function
 898              	USART_SmartCardNACKCmd:
 899              	.LFB48:
 694:Libraries/STM32F10x_StdPeriph_Driver/src/stm32f10x_usart.c ****   }
 695:Libraries/STM32F10x_StdPeriph_Driver/src/stm32f10x_usart.c **** }
 696:Libraries/STM32F10x_StdPeriph_Driver/src/stm32f10x_usart.c **** 
 697:Libraries/STM32F10x_StdPeriph_Driver/src/stm32f10x_usart.c **** /**
 698:Libraries/STM32F10x_StdPeriph_Driver/src/stm32f10x_usart.c ****   * @brief  Enables or disables NACK transmission.
 699:Libraries/STM32F10x_StdPeriph_Driver/src/stm32f10x_usart.c ****   * @param  USARTx: where x can be 1, 2 or 3 to select the USART peripheral. 
 700:Libraries/STM32F10x_StdPeriph_Driver/src/stm32f10x_usart.c ****   * @param  NewState: new state of the NACK transmission.
 701:Libraries/STM32F10x_StdPeriph_Driver/src/stm32f10x_usart.c ****   *   This parameter can be: ENABLE or DISABLE.  
 702:Libraries/STM32F10x_StdPeriph_Driver/src/stm32f10x_usart.c ****   * @note The Smart Card mode is not available for UART4 and UART5.
 703:Libraries/STM32F10x_StdPeriph_Driver/src/stm32f10x_usart.c ****   * @retval None
 704:Libraries/STM32F10x_StdPeriph_Driver/src/stm32f10x_usart.c ****   */
 705:Libraries/STM32F10x_StdPeriph_Driver/src/stm32f10x_usart.c **** void USART_SmartCardNACKCmd(USART_TypeDef* USARTx, FunctionalState NewState)
 706:Libraries/STM32F10x_StdPeriph_Driver/src/stm32f10x_usart.c **** {
 900              		.loc 1 706 0
 901              		.cfi_startproc
 902              		@ args = 0, pretend = 0, frame = 0
 903              		@ frame_needed = 0, uses_anonymous_args = 0
 904              		@ link register save eliminated.
 905              	.LVL83:
 707:Libraries/STM32F10x_StdPeriph_Driver/src/stm32f10x_usart.c ****   /* Check the parameters */
 708:Libraries/STM32F10x_StdPeriph_Driver/src/stm32f10x_usart.c ****   assert_param(IS_USART_123_PERIPH(USARTx));  
 709:Libraries/STM32F10x_StdPeriph_Driver/src/stm32f10x_usart.c ****   assert_param(IS_FUNCTIONAL_STATE(NewState));
 710:Libraries/STM32F10x_StdPeriph_Driver/src/stm32f10x_usart.c ****   if (NewState != DISABLE)
 711:Libraries/STM32F10x_StdPeriph_Driver/src/stm32f10x_usart.c ****   {
 712:Libraries/STM32F10x_StdPeriph_Driver/src/stm32f10x_usart.c ****     /* Enable the NACK transmission by setting the NACK bit in the CR3 register */
 713:Libraries/STM32F10x_StdPeriph_Driver/src/stm32f10x_usart.c ****     USARTx->CR3 |= CR3_NACK_Set;
ARM GAS  /var/folders/lp/0dm50ddn51vc39svyzv_6fp00000gn/T//ccLUgEfv.s 			page 30


 906              		.loc 1 713 0
 907 02aa 838A     		ldrh	r3, [r0, #20]	@,
 710:Libraries/STM32F10x_StdPeriph_Driver/src/stm32f10x_usart.c ****   {
 908              		.loc 1 710 0
 909 02ac 19B1     		cbz	r1, .L59	@ NewState,
 910              		.loc 1 713 0
 911 02ae 9BB2     		uxth	r3, r3	@ D.7038, USARTx_4(D)->CR3
 912 02b0 43F01003 		orr	r3, r3, #16	@ D.7038, D.7038,
 913 02b4 03E0     		b	.L61	@
 914              	.L59:
 714:Libraries/STM32F10x_StdPeriph_Driver/src/stm32f10x_usart.c ****   }
 715:Libraries/STM32F10x_StdPeriph_Driver/src/stm32f10x_usart.c ****   else
 716:Libraries/STM32F10x_StdPeriph_Driver/src/stm32f10x_usart.c ****   {
 717:Libraries/STM32F10x_StdPeriph_Driver/src/stm32f10x_usart.c ****     /* Disable the NACK transmission by clearing the NACK bit in the CR3 register */
 718:Libraries/STM32F10x_StdPeriph_Driver/src/stm32f10x_usart.c ****     USARTx->CR3 &= CR3_NACK_Reset;
 915              		.loc 1 718 0
 916 02b6 23F01003 		bic	r3, r3, #16	@ D.7038, USARTx_4(D)->CR3,
 917 02ba 1B04     		lsls	r3, r3, #16	@ D.7038, D.7038,
 918 02bc 1B0C     		lsrs	r3, r3, #16	@ D.7038, D.7038,
 919              	.L61:
 920 02be 8382     		strh	r3, [r0, #20]	@ movhi	@ D.7038,
 921 02c0 7047     		bx	lr	@
 922              		.cfi_endproc
 923              	.LFE48:
 924              		.size	USART_SmartCardNACKCmd, .-USART_SmartCardNACKCmd
 925              		.align	1
 926              		.global	USART_HalfDuplexCmd
 927              		.thumb
 928              		.thumb_func
 929              		.type	USART_HalfDuplexCmd, %function
 930              	USART_HalfDuplexCmd:
 931              	.LFB49:
 719:Libraries/STM32F10x_StdPeriph_Driver/src/stm32f10x_usart.c ****   }
 720:Libraries/STM32F10x_StdPeriph_Driver/src/stm32f10x_usart.c **** }
 721:Libraries/STM32F10x_StdPeriph_Driver/src/stm32f10x_usart.c **** 
 722:Libraries/STM32F10x_StdPeriph_Driver/src/stm32f10x_usart.c **** /**
 723:Libraries/STM32F10x_StdPeriph_Driver/src/stm32f10x_usart.c ****   * @brief  Enables or disables the USARTs Half Duplex communication.
 724:Libraries/STM32F10x_StdPeriph_Driver/src/stm32f10x_usart.c ****   * @param  USARTx: Select the USART or the UART peripheral. 
 725:Libraries/STM32F10x_StdPeriph_Driver/src/stm32f10x_usart.c ****   *   This parameter can be one of the following values:
 726:Libraries/STM32F10x_StdPeriph_Driver/src/stm32f10x_usart.c ****   *   USART1, USART2, USART3, UART4 or UART5.
 727:Libraries/STM32F10x_StdPeriph_Driver/src/stm32f10x_usart.c ****   * @param  NewState: new state of the USART Communication.
 728:Libraries/STM32F10x_StdPeriph_Driver/src/stm32f10x_usart.c ****   *   This parameter can be: ENABLE or DISABLE.
 729:Libraries/STM32F10x_StdPeriph_Driver/src/stm32f10x_usart.c ****   * @retval None
 730:Libraries/STM32F10x_StdPeriph_Driver/src/stm32f10x_usart.c ****   */
 731:Libraries/STM32F10x_StdPeriph_Driver/src/stm32f10x_usart.c **** void USART_HalfDuplexCmd(USART_TypeDef* USARTx, FunctionalState NewState)
 732:Libraries/STM32F10x_StdPeriph_Driver/src/stm32f10x_usart.c **** {
 932              		.loc 1 732 0
 933              		.cfi_startproc
 934              		@ args = 0, pretend = 0, frame = 0
 935              		@ frame_needed = 0, uses_anonymous_args = 0
 936              		@ link register save eliminated.
 937              	.LVL84:
 733:Libraries/STM32F10x_StdPeriph_Driver/src/stm32f10x_usart.c ****   /* Check the parameters */
 734:Libraries/STM32F10x_StdPeriph_Driver/src/stm32f10x_usart.c ****   assert_param(IS_USART_ALL_PERIPH(USARTx));
 735:Libraries/STM32F10x_StdPeriph_Driver/src/stm32f10x_usart.c ****   assert_param(IS_FUNCTIONAL_STATE(NewState));
 736:Libraries/STM32F10x_StdPeriph_Driver/src/stm32f10x_usart.c ****   
 737:Libraries/STM32F10x_StdPeriph_Driver/src/stm32f10x_usart.c ****   if (NewState != DISABLE)
ARM GAS  /var/folders/lp/0dm50ddn51vc39svyzv_6fp00000gn/T//ccLUgEfv.s 			page 31


 738:Libraries/STM32F10x_StdPeriph_Driver/src/stm32f10x_usart.c ****   {
 739:Libraries/STM32F10x_StdPeriph_Driver/src/stm32f10x_usart.c ****     /* Enable the Half-Duplex mode by setting the HDSEL bit in the CR3 register */
 740:Libraries/STM32F10x_StdPeriph_Driver/src/stm32f10x_usart.c ****     USARTx->CR3 |= CR3_HDSEL_Set;
 938              		.loc 1 740 0
 939 02c2 838A     		ldrh	r3, [r0, #20]	@,
 737:Libraries/STM32F10x_StdPeriph_Driver/src/stm32f10x_usart.c ****   {
 940              		.loc 1 737 0
 941 02c4 19B1     		cbz	r1, .L63	@ NewState,
 942              		.loc 1 740 0
 943 02c6 9BB2     		uxth	r3, r3	@ D.7041, USARTx_4(D)->CR3
 944 02c8 43F00803 		orr	r3, r3, #8	@ D.7041, D.7041,
 945 02cc 03E0     		b	.L65	@
 946              	.L63:
 741:Libraries/STM32F10x_StdPeriph_Driver/src/stm32f10x_usart.c ****   }
 742:Libraries/STM32F10x_StdPeriph_Driver/src/stm32f10x_usart.c ****   else
 743:Libraries/STM32F10x_StdPeriph_Driver/src/stm32f10x_usart.c ****   {
 744:Libraries/STM32F10x_StdPeriph_Driver/src/stm32f10x_usart.c ****     /* Disable the Half-Duplex mode by clearing the HDSEL bit in the CR3 register */
 745:Libraries/STM32F10x_StdPeriph_Driver/src/stm32f10x_usart.c ****     USARTx->CR3 &= CR3_HDSEL_Reset;
 947              		.loc 1 745 0
 948 02ce 23F00803 		bic	r3, r3, #8	@ D.7041, USARTx_4(D)->CR3,
 949 02d2 1B04     		lsls	r3, r3, #16	@ D.7041, D.7041,
 950 02d4 1B0C     		lsrs	r3, r3, #16	@ D.7041, D.7041,
 951              	.L65:
 952 02d6 8382     		strh	r3, [r0, #20]	@ movhi	@ D.7041,
 953 02d8 7047     		bx	lr	@
 954              		.cfi_endproc
 955              	.LFE49:
 956              		.size	USART_HalfDuplexCmd, .-USART_HalfDuplexCmd
 957              		.align	1
 958              		.global	USART_OverSampling8Cmd
 959              		.thumb
 960              		.thumb_func
 961              		.type	USART_OverSampling8Cmd, %function
 962              	USART_OverSampling8Cmd:
 963              	.LFB50:
 746:Libraries/STM32F10x_StdPeriph_Driver/src/stm32f10x_usart.c ****   }
 747:Libraries/STM32F10x_StdPeriph_Driver/src/stm32f10x_usart.c **** }
 748:Libraries/STM32F10x_StdPeriph_Driver/src/stm32f10x_usart.c **** 
 749:Libraries/STM32F10x_StdPeriph_Driver/src/stm32f10x_usart.c **** 
 750:Libraries/STM32F10x_StdPeriph_Driver/src/stm32f10x_usart.c **** /**
 751:Libraries/STM32F10x_StdPeriph_Driver/src/stm32f10x_usart.c ****   * @brief  Enables or disables the USART's 8x oversampling mode.
 752:Libraries/STM32F10x_StdPeriph_Driver/src/stm32f10x_usart.c ****   * @param  USARTx: Select the USART or the UART peripheral.
 753:Libraries/STM32F10x_StdPeriph_Driver/src/stm32f10x_usart.c ****   *   This parameter can be one of the following values:
 754:Libraries/STM32F10x_StdPeriph_Driver/src/stm32f10x_usart.c ****   *   USART1, USART2, USART3, UART4 or UART5.
 755:Libraries/STM32F10x_StdPeriph_Driver/src/stm32f10x_usart.c ****   * @param  NewState: new state of the USART one bit sampling method.
 756:Libraries/STM32F10x_StdPeriph_Driver/src/stm32f10x_usart.c ****   *   This parameter can be: ENABLE or DISABLE.
 757:Libraries/STM32F10x_StdPeriph_Driver/src/stm32f10x_usart.c ****   * @note
 758:Libraries/STM32F10x_StdPeriph_Driver/src/stm32f10x_usart.c ****   *     This function has to be called before calling USART_Init()
 759:Libraries/STM32F10x_StdPeriph_Driver/src/stm32f10x_usart.c ****   *     function in order to have correct baudrate Divider value.   
 760:Libraries/STM32F10x_StdPeriph_Driver/src/stm32f10x_usart.c ****   * @retval None
 761:Libraries/STM32F10x_StdPeriph_Driver/src/stm32f10x_usart.c ****   */
 762:Libraries/STM32F10x_StdPeriph_Driver/src/stm32f10x_usart.c **** void USART_OverSampling8Cmd(USART_TypeDef* USARTx, FunctionalState NewState)
 763:Libraries/STM32F10x_StdPeriph_Driver/src/stm32f10x_usart.c **** {
 964              		.loc 1 763 0
 965              		.cfi_startproc
 966              		@ args = 0, pretend = 0, frame = 0
 967              		@ frame_needed = 0, uses_anonymous_args = 0
ARM GAS  /var/folders/lp/0dm50ddn51vc39svyzv_6fp00000gn/T//ccLUgEfv.s 			page 32


 968              		@ link register save eliminated.
 969              	.LVL85:
 764:Libraries/STM32F10x_StdPeriph_Driver/src/stm32f10x_usart.c ****   /* Check the parameters */
 765:Libraries/STM32F10x_StdPeriph_Driver/src/stm32f10x_usart.c ****   assert_param(IS_USART_ALL_PERIPH(USARTx));
 766:Libraries/STM32F10x_StdPeriph_Driver/src/stm32f10x_usart.c ****   assert_param(IS_FUNCTIONAL_STATE(NewState));
 767:Libraries/STM32F10x_StdPeriph_Driver/src/stm32f10x_usart.c ****   
 768:Libraries/STM32F10x_StdPeriph_Driver/src/stm32f10x_usart.c ****   if (NewState != DISABLE)
 769:Libraries/STM32F10x_StdPeriph_Driver/src/stm32f10x_usart.c ****   {
 770:Libraries/STM32F10x_StdPeriph_Driver/src/stm32f10x_usart.c ****     /* Enable the 8x Oversampling mode by setting the OVER8 bit in the CR1 register */
 771:Libraries/STM32F10x_StdPeriph_Driver/src/stm32f10x_usart.c ****     USARTx->CR1 |= CR1_OVER8_Set;
 970              		.loc 1 771 0
 971 02da 8389     		ldrh	r3, [r0, #12]	@,
 768:Libraries/STM32F10x_StdPeriph_Driver/src/stm32f10x_usart.c ****   {
 972              		.loc 1 768 0
 973 02dc 29B1     		cbz	r1, .L67	@ NewState,
 974              		.loc 1 771 0
 975 02de 6FEA4343 		mvn	r3, r3, lsl #17	@ tmp118, USARTx_4(D)->CR1,
 976 02e2 6FEA5343 		mvn	r3, r3, lsr #17	@ tmp118, tmp118,
 977 02e6 9BB2     		uxth	r3, r3	@ D.7044, tmp118
 978 02e8 01E0     		b	.L69	@
 979              	.L67:
 772:Libraries/STM32F10x_StdPeriph_Driver/src/stm32f10x_usart.c ****   }
 773:Libraries/STM32F10x_StdPeriph_Driver/src/stm32f10x_usart.c ****   else
 774:Libraries/STM32F10x_StdPeriph_Driver/src/stm32f10x_usart.c ****   {
 775:Libraries/STM32F10x_StdPeriph_Driver/src/stm32f10x_usart.c ****     /* Disable the 8x Oversampling mode by clearing the OVER8 bit in the CR1 register */
 776:Libraries/STM32F10x_StdPeriph_Driver/src/stm32f10x_usart.c ****     USARTx->CR1 &= CR1_OVER8_Reset;
 980              		.loc 1 776 0
 981 02ea C3F30E03 		ubfx	r3, r3, #0, #15	@ D.7044, USARTx_4(D)->CR1,,
 982              	.L69:
 983 02ee 8381     		strh	r3, [r0, #12]	@ movhi	@ D.7044,
 984 02f0 7047     		bx	lr	@
 985              		.cfi_endproc
 986              	.LFE50:
 987              		.size	USART_OverSampling8Cmd, .-USART_OverSampling8Cmd
 988              		.align	1
 989              		.global	USART_OneBitMethodCmd
 990              		.thumb
 991              		.thumb_func
 992              		.type	USART_OneBitMethodCmd, %function
 993              	USART_OneBitMethodCmd:
 994              	.LFB51:
 777:Libraries/STM32F10x_StdPeriph_Driver/src/stm32f10x_usart.c ****   }
 778:Libraries/STM32F10x_StdPeriph_Driver/src/stm32f10x_usart.c **** }
 779:Libraries/STM32F10x_StdPeriph_Driver/src/stm32f10x_usart.c **** 
 780:Libraries/STM32F10x_StdPeriph_Driver/src/stm32f10x_usart.c **** /**
 781:Libraries/STM32F10x_StdPeriph_Driver/src/stm32f10x_usart.c ****   * @brief  Enables or disables the USART's one bit sampling method.
 782:Libraries/STM32F10x_StdPeriph_Driver/src/stm32f10x_usart.c ****   * @param  USARTx: Select the USART or the UART peripheral.
 783:Libraries/STM32F10x_StdPeriph_Driver/src/stm32f10x_usart.c ****   *   This parameter can be one of the following values:
 784:Libraries/STM32F10x_StdPeriph_Driver/src/stm32f10x_usart.c ****   *   USART1, USART2, USART3, UART4 or UART5.
 785:Libraries/STM32F10x_StdPeriph_Driver/src/stm32f10x_usart.c ****   * @param  NewState: new state of the USART one bit sampling method.
 786:Libraries/STM32F10x_StdPeriph_Driver/src/stm32f10x_usart.c ****   *   This parameter can be: ENABLE or DISABLE.
 787:Libraries/STM32F10x_StdPeriph_Driver/src/stm32f10x_usart.c ****   * @retval None
 788:Libraries/STM32F10x_StdPeriph_Driver/src/stm32f10x_usart.c ****   */
 789:Libraries/STM32F10x_StdPeriph_Driver/src/stm32f10x_usart.c **** void USART_OneBitMethodCmd(USART_TypeDef* USARTx, FunctionalState NewState)
 790:Libraries/STM32F10x_StdPeriph_Driver/src/stm32f10x_usart.c **** {
 995              		.loc 1 790 0
 996              		.cfi_startproc
ARM GAS  /var/folders/lp/0dm50ddn51vc39svyzv_6fp00000gn/T//ccLUgEfv.s 			page 33


 997              		@ args = 0, pretend = 0, frame = 0
 998              		@ frame_needed = 0, uses_anonymous_args = 0
 999              		@ link register save eliminated.
 1000              	.LVL86:
 791:Libraries/STM32F10x_StdPeriph_Driver/src/stm32f10x_usart.c ****   /* Check the parameters */
 792:Libraries/STM32F10x_StdPeriph_Driver/src/stm32f10x_usart.c ****   assert_param(IS_USART_ALL_PERIPH(USARTx));
 793:Libraries/STM32F10x_StdPeriph_Driver/src/stm32f10x_usart.c ****   assert_param(IS_FUNCTIONAL_STATE(NewState));
 794:Libraries/STM32F10x_StdPeriph_Driver/src/stm32f10x_usart.c ****   
 795:Libraries/STM32F10x_StdPeriph_Driver/src/stm32f10x_usart.c ****   if (NewState != DISABLE)
 796:Libraries/STM32F10x_StdPeriph_Driver/src/stm32f10x_usart.c ****   {
 797:Libraries/STM32F10x_StdPeriph_Driver/src/stm32f10x_usart.c ****     /* Enable the one bit method by setting the ONEBITE bit in the CR3 register */
 798:Libraries/STM32F10x_StdPeriph_Driver/src/stm32f10x_usart.c ****     USARTx->CR3 |= CR3_ONEBITE_Set;
 1001              		.loc 1 798 0
 1002 02f2 838A     		ldrh	r3, [r0, #20]	@,
 795:Libraries/STM32F10x_StdPeriph_Driver/src/stm32f10x_usart.c ****   {
 1003              		.loc 1 795 0
 1004 02f4 19B1     		cbz	r1, .L71	@ NewState,
 1005              		.loc 1 798 0
 1006 02f6 9BB2     		uxth	r3, r3	@ D.7047, USARTx_4(D)->CR3
 1007 02f8 43F40063 		orr	r3, r3, #2048	@ D.7047, D.7047,
 1008 02fc 03E0     		b	.L73	@
 1009              	.L71:
 799:Libraries/STM32F10x_StdPeriph_Driver/src/stm32f10x_usart.c ****   }
 800:Libraries/STM32F10x_StdPeriph_Driver/src/stm32f10x_usart.c ****   else
 801:Libraries/STM32F10x_StdPeriph_Driver/src/stm32f10x_usart.c ****   {
 802:Libraries/STM32F10x_StdPeriph_Driver/src/stm32f10x_usart.c ****     /* Disable tthe one bit method by clearing the ONEBITE bit in the CR3 register */
 803:Libraries/STM32F10x_StdPeriph_Driver/src/stm32f10x_usart.c ****     USARTx->CR3 &= CR3_ONEBITE_Reset;
 1010              		.loc 1 803 0
 1011 02fe 23F40063 		bic	r3, r3, #2048	@ D.7047, USARTx_4(D)->CR3,
 1012 0302 1B04     		lsls	r3, r3, #16	@ D.7047, D.7047,
 1013 0304 1B0C     		lsrs	r3, r3, #16	@ D.7047, D.7047,
 1014              	.L73:
 1015 0306 8382     		strh	r3, [r0, #20]	@ movhi	@ D.7047,
 1016 0308 7047     		bx	lr	@
 1017              		.cfi_endproc
 1018              	.LFE51:
 1019              		.size	USART_OneBitMethodCmd, .-USART_OneBitMethodCmd
 1020              		.align	1
 1021              		.global	USART_IrDAConfig
 1022              		.thumb
 1023              		.thumb_func
 1024              		.type	USART_IrDAConfig, %function
 1025              	USART_IrDAConfig:
 1026              	.LFB52:
 804:Libraries/STM32F10x_StdPeriph_Driver/src/stm32f10x_usart.c ****   }
 805:Libraries/STM32F10x_StdPeriph_Driver/src/stm32f10x_usart.c **** }
 806:Libraries/STM32F10x_StdPeriph_Driver/src/stm32f10x_usart.c **** 
 807:Libraries/STM32F10x_StdPeriph_Driver/src/stm32f10x_usart.c **** /**
 808:Libraries/STM32F10x_StdPeriph_Driver/src/stm32f10x_usart.c ****   * @brief  Configures the USART's IrDA interface.
 809:Libraries/STM32F10x_StdPeriph_Driver/src/stm32f10x_usart.c ****   * @param  USARTx: Select the USART or the UART peripheral. 
 810:Libraries/STM32F10x_StdPeriph_Driver/src/stm32f10x_usart.c ****   *   This parameter can be one of the following values:
 811:Libraries/STM32F10x_StdPeriph_Driver/src/stm32f10x_usart.c ****   *   USART1, USART2, USART3, UART4 or UART5.
 812:Libraries/STM32F10x_StdPeriph_Driver/src/stm32f10x_usart.c ****   * @param  USART_IrDAMode: specifies the IrDA mode.
 813:Libraries/STM32F10x_StdPeriph_Driver/src/stm32f10x_usart.c ****   *   This parameter can be one of the following values:
 814:Libraries/STM32F10x_StdPeriph_Driver/src/stm32f10x_usart.c ****   *     @arg USART_IrDAMode_LowPower
 815:Libraries/STM32F10x_StdPeriph_Driver/src/stm32f10x_usart.c ****   *     @arg USART_IrDAMode_Normal
 816:Libraries/STM32F10x_StdPeriph_Driver/src/stm32f10x_usart.c ****   * @retval None
ARM GAS  /var/folders/lp/0dm50ddn51vc39svyzv_6fp00000gn/T//ccLUgEfv.s 			page 34


 817:Libraries/STM32F10x_StdPeriph_Driver/src/stm32f10x_usart.c ****   */
 818:Libraries/STM32F10x_StdPeriph_Driver/src/stm32f10x_usart.c **** void USART_IrDAConfig(USART_TypeDef* USARTx, uint16_t USART_IrDAMode)
 819:Libraries/STM32F10x_StdPeriph_Driver/src/stm32f10x_usart.c **** {
 1027              		.loc 1 819 0
 1028              		.cfi_startproc
 1029              		@ args = 0, pretend = 0, frame = 0
 1030              		@ frame_needed = 0, uses_anonymous_args = 0
 1031              		@ link register save eliminated.
 1032              	.LVL87:
 820:Libraries/STM32F10x_StdPeriph_Driver/src/stm32f10x_usart.c ****   /* Check the parameters */
 821:Libraries/STM32F10x_StdPeriph_Driver/src/stm32f10x_usart.c ****   assert_param(IS_USART_ALL_PERIPH(USARTx));
 822:Libraries/STM32F10x_StdPeriph_Driver/src/stm32f10x_usart.c ****   assert_param(IS_USART_IRDA_MODE(USART_IrDAMode));
 823:Libraries/STM32F10x_StdPeriph_Driver/src/stm32f10x_usart.c ****     
 824:Libraries/STM32F10x_StdPeriph_Driver/src/stm32f10x_usart.c ****   USARTx->CR3 &= CR3_IRLP_Mask;
 1033              		.loc 1 824 0
 1034 030a 838A     		ldrh	r3, [r0, #20]	@, USARTx_2(D)->CR3
 1035 030c 23F00403 		bic	r3, r3, #4	@ D.7050, USARTx_2(D)->CR3,
 1036 0310 1B04     		lsls	r3, r3, #16	@ D.7050, D.7050,
 1037 0312 1B0C     		lsrs	r3, r3, #16	@ D.7050, D.7050,
 1038 0314 8382     		strh	r3, [r0, #20]	@ movhi	@ D.7050, USARTx_2(D)->CR3
 825:Libraries/STM32F10x_StdPeriph_Driver/src/stm32f10x_usart.c ****   USARTx->CR3 |= USART_IrDAMode;
 1039              		.loc 1 825 0
 1040 0316 838A     		ldrh	r3, [r0, #20]	@, USARTx_2(D)->CR3
 1041 0318 9BB2     		uxth	r3, r3	@ D.7050, USARTx_2(D)->CR3
 1042 031a 1943     		orrs	r1, r1, r3	@, D.7050, USART_IrDAMode, D.7050
 1043              	.LVL88:
 1044 031c 8182     		strh	r1, [r0, #20]	@ movhi	@ D.7050, USARTx_2(D)->CR3
 1045 031e 7047     		bx	lr	@
 1046              		.cfi_endproc
 1047              	.LFE52:
 1048              		.size	USART_IrDAConfig, .-USART_IrDAConfig
 1049              		.align	1
 1050              		.global	USART_IrDACmd
 1051              		.thumb
 1052              		.thumb_func
 1053              		.type	USART_IrDACmd, %function
 1054              	USART_IrDACmd:
 1055              	.LFB53:
 826:Libraries/STM32F10x_StdPeriph_Driver/src/stm32f10x_usart.c **** }
 827:Libraries/STM32F10x_StdPeriph_Driver/src/stm32f10x_usart.c **** 
 828:Libraries/STM32F10x_StdPeriph_Driver/src/stm32f10x_usart.c **** /**
 829:Libraries/STM32F10x_StdPeriph_Driver/src/stm32f10x_usart.c ****   * @brief  Enables or disables the USART's IrDA interface.
 830:Libraries/STM32F10x_StdPeriph_Driver/src/stm32f10x_usart.c ****   * @param  USARTx: Select the USART or the UART peripheral. 
 831:Libraries/STM32F10x_StdPeriph_Driver/src/stm32f10x_usart.c ****   *   This parameter can be one of the following values:
 832:Libraries/STM32F10x_StdPeriph_Driver/src/stm32f10x_usart.c ****   *   USART1, USART2, USART3, UART4 or UART5.
 833:Libraries/STM32F10x_StdPeriph_Driver/src/stm32f10x_usart.c ****   * @param  NewState: new state of the IrDA mode.
 834:Libraries/STM32F10x_StdPeriph_Driver/src/stm32f10x_usart.c ****   *   This parameter can be: ENABLE or DISABLE.
 835:Libraries/STM32F10x_StdPeriph_Driver/src/stm32f10x_usart.c ****   * @retval None
 836:Libraries/STM32F10x_StdPeriph_Driver/src/stm32f10x_usart.c ****   */
 837:Libraries/STM32F10x_StdPeriph_Driver/src/stm32f10x_usart.c **** void USART_IrDACmd(USART_TypeDef* USARTx, FunctionalState NewState)
 838:Libraries/STM32F10x_StdPeriph_Driver/src/stm32f10x_usart.c **** {
 1056              		.loc 1 838 0
 1057              		.cfi_startproc
 1058              		@ args = 0, pretend = 0, frame = 0
 1059              		@ frame_needed = 0, uses_anonymous_args = 0
 1060              		@ link register save eliminated.
 1061              	.LVL89:
ARM GAS  /var/folders/lp/0dm50ddn51vc39svyzv_6fp00000gn/T//ccLUgEfv.s 			page 35


 839:Libraries/STM32F10x_StdPeriph_Driver/src/stm32f10x_usart.c ****   /* Check the parameters */
 840:Libraries/STM32F10x_StdPeriph_Driver/src/stm32f10x_usart.c ****   assert_param(IS_USART_ALL_PERIPH(USARTx));
 841:Libraries/STM32F10x_StdPeriph_Driver/src/stm32f10x_usart.c ****   assert_param(IS_FUNCTIONAL_STATE(NewState));
 842:Libraries/STM32F10x_StdPeriph_Driver/src/stm32f10x_usart.c ****     
 843:Libraries/STM32F10x_StdPeriph_Driver/src/stm32f10x_usart.c ****   if (NewState != DISABLE)
 844:Libraries/STM32F10x_StdPeriph_Driver/src/stm32f10x_usart.c ****   {
 845:Libraries/STM32F10x_StdPeriph_Driver/src/stm32f10x_usart.c ****     /* Enable the IrDA mode by setting the IREN bit in the CR3 register */
 846:Libraries/STM32F10x_StdPeriph_Driver/src/stm32f10x_usart.c ****     USARTx->CR3 |= CR3_IREN_Set;
 1062              		.loc 1 846 0
 1063 0320 838A     		ldrh	r3, [r0, #20]	@,
 843:Libraries/STM32F10x_StdPeriph_Driver/src/stm32f10x_usart.c ****   {
 1064              		.loc 1 843 0
 1065 0322 19B1     		cbz	r1, .L76	@ NewState,
 1066              		.loc 1 846 0
 1067 0324 9BB2     		uxth	r3, r3	@ D.7053, USARTx_4(D)->CR3
 1068 0326 43F00203 		orr	r3, r3, #2	@ D.7053, D.7053,
 1069 032a 03E0     		b	.L78	@
 1070              	.L76:
 847:Libraries/STM32F10x_StdPeriph_Driver/src/stm32f10x_usart.c ****   }
 848:Libraries/STM32F10x_StdPeriph_Driver/src/stm32f10x_usart.c ****   else
 849:Libraries/STM32F10x_StdPeriph_Driver/src/stm32f10x_usart.c ****   {
 850:Libraries/STM32F10x_StdPeriph_Driver/src/stm32f10x_usart.c ****     /* Disable the IrDA mode by clearing the IREN bit in the CR3 register */
 851:Libraries/STM32F10x_StdPeriph_Driver/src/stm32f10x_usart.c ****     USARTx->CR3 &= CR3_IREN_Reset;
 1071              		.loc 1 851 0
 1072 032c 23F00203 		bic	r3, r3, #2	@ D.7053, USARTx_4(D)->CR3,
 1073 0330 1B04     		lsls	r3, r3, #16	@ D.7053, D.7053,
 1074 0332 1B0C     		lsrs	r3, r3, #16	@ D.7053, D.7053,
 1075              	.L78:
 1076 0334 8382     		strh	r3, [r0, #20]	@ movhi	@ D.7053,
 1077 0336 7047     		bx	lr	@
 1078              		.cfi_endproc
 1079              	.LFE53:
 1080              		.size	USART_IrDACmd, .-USART_IrDACmd
 1081              		.align	1
 1082              		.global	USART_GetFlagStatus
 1083              		.thumb
 1084              		.thumb_func
 1085              		.type	USART_GetFlagStatus, %function
 1086              	USART_GetFlagStatus:
 1087              	.LFB54:
 852:Libraries/STM32F10x_StdPeriph_Driver/src/stm32f10x_usart.c ****   }
 853:Libraries/STM32F10x_StdPeriph_Driver/src/stm32f10x_usart.c **** }
 854:Libraries/STM32F10x_StdPeriph_Driver/src/stm32f10x_usart.c **** 
 855:Libraries/STM32F10x_StdPeriph_Driver/src/stm32f10x_usart.c **** /**
 856:Libraries/STM32F10x_StdPeriph_Driver/src/stm32f10x_usart.c ****   * @brief  Checks whether the specified USART flag is set or not.
 857:Libraries/STM32F10x_StdPeriph_Driver/src/stm32f10x_usart.c ****   * @param  USARTx: Select the USART or the UART peripheral. 
 858:Libraries/STM32F10x_StdPeriph_Driver/src/stm32f10x_usart.c ****   *   This parameter can be one of the following values:
 859:Libraries/STM32F10x_StdPeriph_Driver/src/stm32f10x_usart.c ****   *   USART1, USART2, USART3, UART4 or UART5.
 860:Libraries/STM32F10x_StdPeriph_Driver/src/stm32f10x_usart.c ****   * @param  USART_FLAG: specifies the flag to check.
 861:Libraries/STM32F10x_StdPeriph_Driver/src/stm32f10x_usart.c ****   *   This parameter can be one of the following values:
 862:Libraries/STM32F10x_StdPeriph_Driver/src/stm32f10x_usart.c ****   *     @arg USART_FLAG_CTS:  CTS Change flag (not available for UART4 and UART5)
 863:Libraries/STM32F10x_StdPeriph_Driver/src/stm32f10x_usart.c ****   *     @arg USART_FLAG_LBD:  LIN Break detection flag
 864:Libraries/STM32F10x_StdPeriph_Driver/src/stm32f10x_usart.c ****   *     @arg USART_FLAG_TXE:  Transmit data register empty flag
 865:Libraries/STM32F10x_StdPeriph_Driver/src/stm32f10x_usart.c ****   *     @arg USART_FLAG_TC:   Transmission Complete flag
 866:Libraries/STM32F10x_StdPeriph_Driver/src/stm32f10x_usart.c ****   *     @arg USART_FLAG_RXNE: Receive data register not empty flag
 867:Libraries/STM32F10x_StdPeriph_Driver/src/stm32f10x_usart.c ****   *     @arg USART_FLAG_IDLE: Idle Line detection flag
 868:Libraries/STM32F10x_StdPeriph_Driver/src/stm32f10x_usart.c ****   *     @arg USART_FLAG_ORE:  OverRun Error flag
ARM GAS  /var/folders/lp/0dm50ddn51vc39svyzv_6fp00000gn/T//ccLUgEfv.s 			page 36


 869:Libraries/STM32F10x_StdPeriph_Driver/src/stm32f10x_usart.c ****   *     @arg USART_FLAG_NE:   Noise Error flag
 870:Libraries/STM32F10x_StdPeriph_Driver/src/stm32f10x_usart.c ****   *     @arg USART_FLAG_FE:   Framing Error flag
 871:Libraries/STM32F10x_StdPeriph_Driver/src/stm32f10x_usart.c ****   *     @arg USART_FLAG_PE:   Parity Error flag
 872:Libraries/STM32F10x_StdPeriph_Driver/src/stm32f10x_usart.c ****   * @retval The new state of USART_FLAG (SET or RESET).
 873:Libraries/STM32F10x_StdPeriph_Driver/src/stm32f10x_usart.c ****   */
 874:Libraries/STM32F10x_StdPeriph_Driver/src/stm32f10x_usart.c **** FlagStatus USART_GetFlagStatus(USART_TypeDef* USARTx, uint16_t USART_FLAG)
 875:Libraries/STM32F10x_StdPeriph_Driver/src/stm32f10x_usart.c **** {
 1088              		.loc 1 875 0
 1089              		.cfi_startproc
 1090              		@ args = 0, pretend = 0, frame = 0
 1091              		@ frame_needed = 0, uses_anonymous_args = 0
 1092              		@ link register save eliminated.
 1093              	.LVL90:
 876:Libraries/STM32F10x_StdPeriph_Driver/src/stm32f10x_usart.c ****   FlagStatus bitstatus = RESET;
 877:Libraries/STM32F10x_StdPeriph_Driver/src/stm32f10x_usart.c ****   /* Check the parameters */
 878:Libraries/STM32F10x_StdPeriph_Driver/src/stm32f10x_usart.c ****   assert_param(IS_USART_ALL_PERIPH(USARTx));
 879:Libraries/STM32F10x_StdPeriph_Driver/src/stm32f10x_usart.c ****   assert_param(IS_USART_FLAG(USART_FLAG));
 880:Libraries/STM32F10x_StdPeriph_Driver/src/stm32f10x_usart.c ****   /* The CTS flag is not available for UART4 and UART5 */
 881:Libraries/STM32F10x_StdPeriph_Driver/src/stm32f10x_usart.c ****   if (USART_FLAG == USART_FLAG_CTS)
 882:Libraries/STM32F10x_StdPeriph_Driver/src/stm32f10x_usart.c ****   {
 883:Libraries/STM32F10x_StdPeriph_Driver/src/stm32f10x_usart.c ****     assert_param(IS_USART_123_PERIPH(USARTx));
 884:Libraries/STM32F10x_StdPeriph_Driver/src/stm32f10x_usart.c ****   }  
 885:Libraries/STM32F10x_StdPeriph_Driver/src/stm32f10x_usart.c ****   
 886:Libraries/STM32F10x_StdPeriph_Driver/src/stm32f10x_usart.c ****   if ((USARTx->SR & USART_FLAG) != (uint16_t)RESET)
 1094              		.loc 1 886 0
 1095 0338 0388     		ldrh	r3, [r0]	@, USARTx_3(D)->SR
 1096              	.LVL91:
 887:Libraries/STM32F10x_StdPeriph_Driver/src/stm32f10x_usart.c ****   {
 888:Libraries/STM32F10x_StdPeriph_Driver/src/stm32f10x_usart.c ****     bitstatus = SET;
 889:Libraries/STM32F10x_StdPeriph_Driver/src/stm32f10x_usart.c ****   }
 890:Libraries/STM32F10x_StdPeriph_Driver/src/stm32f10x_usart.c ****   else
 891:Libraries/STM32F10x_StdPeriph_Driver/src/stm32f10x_usart.c ****   {
 892:Libraries/STM32F10x_StdPeriph_Driver/src/stm32f10x_usart.c ****     bitstatus = RESET;
 893:Libraries/STM32F10x_StdPeriph_Driver/src/stm32f10x_usart.c ****   }
 894:Libraries/STM32F10x_StdPeriph_Driver/src/stm32f10x_usart.c ****   return bitstatus;
 1097              		.loc 1 894 0
 1098 033a 1942     		tst	r1, r3	@ USART_FLAG, USARTx_3(D)->SR
 895:Libraries/STM32F10x_StdPeriph_Driver/src/stm32f10x_usart.c **** }
 1099              		.loc 1 895 0
 1100 033c 14BF     		ite	ne
 1101 033e 0120     		movne	r0, #1	@,
 1102              	.LVL92:
 1103 0340 0020     		moveq	r0, #0	@,
 1104 0342 7047     		bx	lr	@
 1105              		.cfi_endproc
 1106              	.LFE54:
 1107              		.size	USART_GetFlagStatus, .-USART_GetFlagStatus
 1108              		.align	1
 1109              		.global	USART_ClearFlag
 1110              		.thumb
 1111              		.thumb_func
 1112              		.type	USART_ClearFlag, %function
 1113              	USART_ClearFlag:
 1114              	.LFB55:
 896:Libraries/STM32F10x_StdPeriph_Driver/src/stm32f10x_usart.c **** 
 897:Libraries/STM32F10x_StdPeriph_Driver/src/stm32f10x_usart.c **** /**
 898:Libraries/STM32F10x_StdPeriph_Driver/src/stm32f10x_usart.c ****   * @brief  Clears the USARTx's pending flags.
ARM GAS  /var/folders/lp/0dm50ddn51vc39svyzv_6fp00000gn/T//ccLUgEfv.s 			page 37


 899:Libraries/STM32F10x_StdPeriph_Driver/src/stm32f10x_usart.c ****   * @param  USARTx: Select the USART or the UART peripheral. 
 900:Libraries/STM32F10x_StdPeriph_Driver/src/stm32f10x_usart.c ****   *   This parameter can be one of the following values:
 901:Libraries/STM32F10x_StdPeriph_Driver/src/stm32f10x_usart.c ****   *   USART1, USART2, USART3, UART4 or UART5.
 902:Libraries/STM32F10x_StdPeriph_Driver/src/stm32f10x_usart.c ****   * @param  USART_FLAG: specifies the flag to clear.
 903:Libraries/STM32F10x_StdPeriph_Driver/src/stm32f10x_usart.c ****   *   This parameter can be any combination of the following values:
 904:Libraries/STM32F10x_StdPeriph_Driver/src/stm32f10x_usart.c ****   *     @arg USART_FLAG_CTS:  CTS Change flag (not available for UART4 and UART5).
 905:Libraries/STM32F10x_StdPeriph_Driver/src/stm32f10x_usart.c ****   *     @arg USART_FLAG_LBD:  LIN Break detection flag.
 906:Libraries/STM32F10x_StdPeriph_Driver/src/stm32f10x_usart.c ****   *     @arg USART_FLAG_TC:   Transmission Complete flag.
 907:Libraries/STM32F10x_StdPeriph_Driver/src/stm32f10x_usart.c ****   *     @arg USART_FLAG_RXNE: Receive data register not empty flag.
 908:Libraries/STM32F10x_StdPeriph_Driver/src/stm32f10x_usart.c ****   *   
 909:Libraries/STM32F10x_StdPeriph_Driver/src/stm32f10x_usart.c ****   * @note
 910:Libraries/STM32F10x_StdPeriph_Driver/src/stm32f10x_usart.c ****   *   - PE (Parity error), FE (Framing error), NE (Noise error), ORE (OverRun 
 911:Libraries/STM32F10x_StdPeriph_Driver/src/stm32f10x_usart.c ****   *     error) and IDLE (Idle line detected) flags are cleared by software 
 912:Libraries/STM32F10x_StdPeriph_Driver/src/stm32f10x_usart.c ****   *     sequence: a read operation to USART_SR register (USART_GetFlagStatus()) 
 913:Libraries/STM32F10x_StdPeriph_Driver/src/stm32f10x_usart.c ****   *     followed by a read operation to USART_DR register (USART_ReceiveData()).
 914:Libraries/STM32F10x_StdPeriph_Driver/src/stm32f10x_usart.c ****   *   - RXNE flag can be also cleared by a read to the USART_DR register 
 915:Libraries/STM32F10x_StdPeriph_Driver/src/stm32f10x_usart.c ****   *     (USART_ReceiveData()).
 916:Libraries/STM32F10x_StdPeriph_Driver/src/stm32f10x_usart.c ****   *   - TC flag can be also cleared by software sequence: a read operation to 
 917:Libraries/STM32F10x_StdPeriph_Driver/src/stm32f10x_usart.c ****   *     USART_SR register (USART_GetFlagStatus()) followed by a write operation
 918:Libraries/STM32F10x_StdPeriph_Driver/src/stm32f10x_usart.c ****   *     to USART_DR register (USART_SendData()).
 919:Libraries/STM32F10x_StdPeriph_Driver/src/stm32f10x_usart.c ****   *   - TXE flag is cleared only by a write to the USART_DR register 
 920:Libraries/STM32F10x_StdPeriph_Driver/src/stm32f10x_usart.c ****   *     (USART_SendData()).
 921:Libraries/STM32F10x_StdPeriph_Driver/src/stm32f10x_usart.c ****   * @retval None
 922:Libraries/STM32F10x_StdPeriph_Driver/src/stm32f10x_usart.c ****   */
 923:Libraries/STM32F10x_StdPeriph_Driver/src/stm32f10x_usart.c **** void USART_ClearFlag(USART_TypeDef* USARTx, uint16_t USART_FLAG)
 924:Libraries/STM32F10x_StdPeriph_Driver/src/stm32f10x_usart.c **** {
 1115              		.loc 1 924 0
 1116              		.cfi_startproc
 1117              		@ args = 0, pretend = 0, frame = 0
 1118              		@ frame_needed = 0, uses_anonymous_args = 0
 1119              		@ link register save eliminated.
 1120              	.LVL93:
 925:Libraries/STM32F10x_StdPeriph_Driver/src/stm32f10x_usart.c ****   /* Check the parameters */
 926:Libraries/STM32F10x_StdPeriph_Driver/src/stm32f10x_usart.c ****   assert_param(IS_USART_ALL_PERIPH(USARTx));
 927:Libraries/STM32F10x_StdPeriph_Driver/src/stm32f10x_usart.c ****   assert_param(IS_USART_CLEAR_FLAG(USART_FLAG));
 928:Libraries/STM32F10x_StdPeriph_Driver/src/stm32f10x_usart.c ****   /* The CTS flag is not available for UART4 and UART5 */
 929:Libraries/STM32F10x_StdPeriph_Driver/src/stm32f10x_usart.c ****   if ((USART_FLAG & USART_FLAG_CTS) == USART_FLAG_CTS)
 930:Libraries/STM32F10x_StdPeriph_Driver/src/stm32f10x_usart.c ****   {
 931:Libraries/STM32F10x_StdPeriph_Driver/src/stm32f10x_usart.c ****     assert_param(IS_USART_123_PERIPH(USARTx));
 932:Libraries/STM32F10x_StdPeriph_Driver/src/stm32f10x_usart.c ****   } 
 933:Libraries/STM32F10x_StdPeriph_Driver/src/stm32f10x_usart.c ****    
 934:Libraries/STM32F10x_StdPeriph_Driver/src/stm32f10x_usart.c ****   USARTx->SR = (uint16_t)~USART_FLAG;
 1121              		.loc 1 934 0
 1122 0344 C943     		mvns	r1, r1	@ tmp113, USART_FLAG
 1123              	.LVL94:
 1124 0346 89B2     		uxth	r1, r1	@ D.7061, tmp113
 1125 0348 0180     		strh	r1, [r0]	@ movhi	@ D.7061, USARTx_4(D)->SR
 1126 034a 7047     		bx	lr	@
 1127              		.cfi_endproc
 1128              	.LFE55:
 1129              		.size	USART_ClearFlag, .-USART_ClearFlag
 1130              		.align	1
 1131              		.global	USART_GetITStatus
 1132              		.thumb
 1133              		.thumb_func
 1134              		.type	USART_GetITStatus, %function
 1135              	USART_GetITStatus:
ARM GAS  /var/folders/lp/0dm50ddn51vc39svyzv_6fp00000gn/T//ccLUgEfv.s 			page 38


 1136              	.LFB56:
 935:Libraries/STM32F10x_StdPeriph_Driver/src/stm32f10x_usart.c **** }
 936:Libraries/STM32F10x_StdPeriph_Driver/src/stm32f10x_usart.c **** 
 937:Libraries/STM32F10x_StdPeriph_Driver/src/stm32f10x_usart.c **** /**
 938:Libraries/STM32F10x_StdPeriph_Driver/src/stm32f10x_usart.c ****   * @brief  Checks whether the specified USART interrupt has occurred or not.
 939:Libraries/STM32F10x_StdPeriph_Driver/src/stm32f10x_usart.c ****   * @param  USARTx: Select the USART or the UART peripheral. 
 940:Libraries/STM32F10x_StdPeriph_Driver/src/stm32f10x_usart.c ****   *   This parameter can be one of the following values:
 941:Libraries/STM32F10x_StdPeriph_Driver/src/stm32f10x_usart.c ****   *   USART1, USART2, USART3, UART4 or UART5.
 942:Libraries/STM32F10x_StdPeriph_Driver/src/stm32f10x_usart.c ****   * @param  USART_IT: specifies the USART interrupt source to check.
 943:Libraries/STM32F10x_StdPeriph_Driver/src/stm32f10x_usart.c ****   *   This parameter can be one of the following values:
 944:Libraries/STM32F10x_StdPeriph_Driver/src/stm32f10x_usart.c ****   *     @arg USART_IT_CTS:  CTS change interrupt (not available for UART4 and UART5)
 945:Libraries/STM32F10x_StdPeriph_Driver/src/stm32f10x_usart.c ****   *     @arg USART_IT_LBD:  LIN Break detection interrupt
 946:Libraries/STM32F10x_StdPeriph_Driver/src/stm32f10x_usart.c ****   *     @arg USART_IT_TXE:  Tansmit Data Register empty interrupt
 947:Libraries/STM32F10x_StdPeriph_Driver/src/stm32f10x_usart.c ****   *     @arg USART_IT_TC:   Transmission complete interrupt
 948:Libraries/STM32F10x_StdPeriph_Driver/src/stm32f10x_usart.c ****   *     @arg USART_IT_RXNE: Receive Data register not empty interrupt
 949:Libraries/STM32F10x_StdPeriph_Driver/src/stm32f10x_usart.c ****   *     @arg USART_IT_IDLE: Idle line detection interrupt
 950:Libraries/STM32F10x_StdPeriph_Driver/src/stm32f10x_usart.c ****   *     @arg USART_IT_ORE:  OverRun Error interrupt
 951:Libraries/STM32F10x_StdPeriph_Driver/src/stm32f10x_usart.c ****   *     @arg USART_IT_NE:   Noise Error interrupt
 952:Libraries/STM32F10x_StdPeriph_Driver/src/stm32f10x_usart.c ****   *     @arg USART_IT_FE:   Framing Error interrupt
 953:Libraries/STM32F10x_StdPeriph_Driver/src/stm32f10x_usart.c ****   *     @arg USART_IT_PE:   Parity Error interrupt
 954:Libraries/STM32F10x_StdPeriph_Driver/src/stm32f10x_usart.c ****   * @retval The new state of USART_IT (SET or RESET).
 955:Libraries/STM32F10x_StdPeriph_Driver/src/stm32f10x_usart.c ****   */
 956:Libraries/STM32F10x_StdPeriph_Driver/src/stm32f10x_usart.c **** ITStatus USART_GetITStatus(USART_TypeDef* USARTx, uint16_t USART_IT)
 957:Libraries/STM32F10x_StdPeriph_Driver/src/stm32f10x_usart.c **** {
 1137              		.loc 1 957 0
 1138              		.cfi_startproc
 1139              		@ args = 0, pretend = 0, frame = 0
 1140              		@ frame_needed = 0, uses_anonymous_args = 0
 1141              	.LVL95:
 958:Libraries/STM32F10x_StdPeriph_Driver/src/stm32f10x_usart.c ****   uint32_t bitpos = 0x00, itmask = 0x00, usartreg = 0x00;
 959:Libraries/STM32F10x_StdPeriph_Driver/src/stm32f10x_usart.c ****   ITStatus bitstatus = RESET;
 960:Libraries/STM32F10x_StdPeriph_Driver/src/stm32f10x_usart.c ****   /* Check the parameters */
 961:Libraries/STM32F10x_StdPeriph_Driver/src/stm32f10x_usart.c ****   assert_param(IS_USART_ALL_PERIPH(USARTx));
 962:Libraries/STM32F10x_StdPeriph_Driver/src/stm32f10x_usart.c ****   assert_param(IS_USART_GET_IT(USART_IT));
 963:Libraries/STM32F10x_StdPeriph_Driver/src/stm32f10x_usart.c ****   /* The CTS interrupt is not available for UART4 and UART5 */ 
 964:Libraries/STM32F10x_StdPeriph_Driver/src/stm32f10x_usart.c ****   if (USART_IT == USART_IT_CTS)
 965:Libraries/STM32F10x_StdPeriph_Driver/src/stm32f10x_usart.c ****   {
 966:Libraries/STM32F10x_StdPeriph_Driver/src/stm32f10x_usart.c ****     assert_param(IS_USART_123_PERIPH(USARTx));
 967:Libraries/STM32F10x_StdPeriph_Driver/src/stm32f10x_usart.c ****   }   
 968:Libraries/STM32F10x_StdPeriph_Driver/src/stm32f10x_usart.c ****   
 969:Libraries/STM32F10x_StdPeriph_Driver/src/stm32f10x_usart.c ****   /* Get the USART register index */
 970:Libraries/STM32F10x_StdPeriph_Driver/src/stm32f10x_usart.c ****   usartreg = (((uint8_t)USART_IT) >> 0x05);
 971:Libraries/STM32F10x_StdPeriph_Driver/src/stm32f10x_usart.c ****   /* Get the interrupt position */
 972:Libraries/STM32F10x_StdPeriph_Driver/src/stm32f10x_usart.c ****   itmask = USART_IT & IT_Mask;
 973:Libraries/STM32F10x_StdPeriph_Driver/src/stm32f10x_usart.c ****   itmask = (uint32_t)0x01 << itmask;
 1142              		.loc 1 973 0
 1143 034c 0123     		movs	r3, #1	@ tmp136,
 957:Libraries/STM32F10x_StdPeriph_Driver/src/stm32f10x_usart.c ****   uint32_t bitpos = 0x00, itmask = 0x00, usartreg = 0x00;
 1144              		.loc 1 957 0
 1145 034e 10B5     		push	{r4, lr}	@
 1146              	.LCFI10:
 1147              		.cfi_def_cfa_offset 8
 1148              		.cfi_offset 4, -8
 1149              		.cfi_offset 14, -4
 970:Libraries/STM32F10x_StdPeriph_Driver/src/stm32f10x_usart.c ****   /* Get the interrupt position */
 1150              		.loc 1 970 0
 1151 0350 C1F34214 		ubfx	r4, r1, #5, #3	@ D.7065, USART_IT,,
ARM GAS  /var/folders/lp/0dm50ddn51vc39svyzv_6fp00000gn/T//ccLUgEfv.s 			page 39


 1152              	.LVL96:
 972:Libraries/STM32F10x_StdPeriph_Driver/src/stm32f10x_usart.c ****   itmask = (uint32_t)0x01 << itmask;
 1153              		.loc 1 972 0
 1154 0354 01F01F02 		and	r2, r1, #31	@ itmask, USART_IT,
 1155              	.LVL97:
 974:Libraries/STM32F10x_StdPeriph_Driver/src/stm32f10x_usart.c ****   
 975:Libraries/STM32F10x_StdPeriph_Driver/src/stm32f10x_usart.c ****   if (usartreg == 0x01) /* The IT  is in CR1 register */
 1156              		.loc 1 975 0
 1157 0358 9C42     		cmp	r4, r3	@ D.7065,
 973:Libraries/STM32F10x_StdPeriph_Driver/src/stm32f10x_usart.c ****   
 1158              		.loc 1 973 0
 1159 035a 03FA02F2 		lsl	r2, r3, r2	@ itmask, tmp136, itmask
 1160              	.LVL98:
 1161              		.loc 1 975 0
 1162 035e 01D1     		bne	.L82	@,
 976:Libraries/STM32F10x_StdPeriph_Driver/src/stm32f10x_usart.c ****   {
 977:Libraries/STM32F10x_StdPeriph_Driver/src/stm32f10x_usart.c ****     itmask &= USARTx->CR1;
 1163              		.loc 1 977 0
 1164 0360 8389     		ldrh	r3, [r0, #12]	@, USARTx_11(D)->CR1
 1165 0362 03E0     		b	.L87	@
 1166              	.L82:
 978:Libraries/STM32F10x_StdPeriph_Driver/src/stm32f10x_usart.c ****   }
 979:Libraries/STM32F10x_StdPeriph_Driver/src/stm32f10x_usart.c ****   else if (usartreg == 0x02) /* The IT  is in CR2 register */
 1167              		.loc 1 979 0
 1168 0364 022C     		cmp	r4, #2	@ D.7065,
 980:Libraries/STM32F10x_StdPeriph_Driver/src/stm32f10x_usart.c ****   {
 981:Libraries/STM32F10x_StdPeriph_Driver/src/stm32f10x_usart.c ****     itmask &= USARTx->CR2;
 1169              		.loc 1 981 0
 1170 0366 0CBF     		ite	eq
 1171 0368 038A     		ldrheq	r3, [r0, #16]	@, USARTx_11(D)->CR2
 982:Libraries/STM32F10x_StdPeriph_Driver/src/stm32f10x_usart.c ****   }
 983:Libraries/STM32F10x_StdPeriph_Driver/src/stm32f10x_usart.c ****   else /* The IT  is in CR3 register */
 984:Libraries/STM32F10x_StdPeriph_Driver/src/stm32f10x_usart.c ****   {
 985:Libraries/STM32F10x_StdPeriph_Driver/src/stm32f10x_usart.c ****     itmask &= USARTx->CR3;
 1172              		.loc 1 985 0
 1173 036a 838A     		ldrhne	r3, [r0, #20]	@, USARTx_11(D)->CR3
 1174              	.L87:
 1175 036c 9BB2     		uxth	r3, r3	@ D.7066, USARTx_11(D)->CR3
 1176 036e 1340     		ands	r3, r3, r2	@, itmask, D.7066, itmask
 1177              	.LVL99:
 986:Libraries/STM32F10x_StdPeriph_Driver/src/stm32f10x_usart.c ****   }
 987:Libraries/STM32F10x_StdPeriph_Driver/src/stm32f10x_usart.c ****   
 988:Libraries/STM32F10x_StdPeriph_Driver/src/stm32f10x_usart.c ****   bitpos = USART_IT >> 0x08;
 989:Libraries/STM32F10x_StdPeriph_Driver/src/stm32f10x_usart.c ****   bitpos = (uint32_t)0x01 << bitpos;
 990:Libraries/STM32F10x_StdPeriph_Driver/src/stm32f10x_usart.c ****   bitpos &= USARTx->SR;
 1178              		.loc 1 990 0
 1179 0370 0288     		ldrh	r2, [r0]	@, USARTx_11(D)->SR
 1180 0372 92B2     		uxth	r2, r2	@ D.7066, USARTx_11(D)->SR
 1181              	.LVL100:
 991:Libraries/STM32F10x_StdPeriph_Driver/src/stm32f10x_usart.c ****   if ((itmask != (uint16_t)RESET)&&(bitpos != (uint16_t)RESET))
 1182              		.loc 1 991 0
 1183 0374 43B1     		cbz	r3, .L86	@ itmask,
 989:Libraries/STM32F10x_StdPeriph_Driver/src/stm32f10x_usart.c ****   bitpos &= USARTx->SR;
 1184              		.loc 1 989 0 discriminator 1
 1185 0376 0123     		movs	r3, #1	@ tmp145,
 1186              	.LVL101:
 988:Libraries/STM32F10x_StdPeriph_Driver/src/stm32f10x_usart.c ****   bitpos = (uint32_t)0x01 << bitpos;
ARM GAS  /var/folders/lp/0dm50ddn51vc39svyzv_6fp00000gn/T//ccLUgEfv.s 			page 40


 1187              		.loc 1 988 0 discriminator 1
 1188 0378 090A     		lsrs	r1, r1, #8	@ bitpos, USART_IT,
 1189              	.LVL102:
 989:Libraries/STM32F10x_StdPeriph_Driver/src/stm32f10x_usart.c ****   bitpos &= USARTx->SR;
 1190              		.loc 1 989 0 discriminator 1
 1191 037a 03FA01F1 		lsl	r1, r3, r1	@ bitpos, tmp145, bitpos
 992:Libraries/STM32F10x_StdPeriph_Driver/src/stm32f10x_usart.c ****   {
 993:Libraries/STM32F10x_StdPeriph_Driver/src/stm32f10x_usart.c ****     bitstatus = SET;
 1192              		.loc 1 993 0 discriminator 1
 1193 037e 0A42     		tst	r2, r1	@ D.7066, bitpos
 1194 0380 14BF     		ite	ne
 1195 0382 1846     		movne	r0, r3	@ bitstatus,
 1196              	.LVL103:
 1197 0384 0020     		moveq	r0, #0	@ bitstatus,
 1198 0386 10BD     		pop	{r4, pc}	@
 1199              	.LVL104:
 1200              	.L86:
 994:Libraries/STM32F10x_StdPeriph_Driver/src/stm32f10x_usart.c ****   }
 995:Libraries/STM32F10x_StdPeriph_Driver/src/stm32f10x_usart.c ****   else
 996:Libraries/STM32F10x_StdPeriph_Driver/src/stm32f10x_usart.c ****   {
 997:Libraries/STM32F10x_StdPeriph_Driver/src/stm32f10x_usart.c ****     bitstatus = RESET;
 1201              		.loc 1 997 0
 1202 0388 1846     		mov	r0, r3	@ bitstatus, itmask
 1203              	.LVL105:
 998:Libraries/STM32F10x_StdPeriph_Driver/src/stm32f10x_usart.c ****   }
 999:Libraries/STM32F10x_StdPeriph_Driver/src/stm32f10x_usart.c ****   
1000:Libraries/STM32F10x_StdPeriph_Driver/src/stm32f10x_usart.c ****   return bitstatus;  
1001:Libraries/STM32F10x_StdPeriph_Driver/src/stm32f10x_usart.c **** }
 1204              		.loc 1 1001 0
 1205 038a 10BD     		pop	{r4, pc}	@
 1206              		.cfi_endproc
 1207              	.LFE56:
 1208              		.size	USART_GetITStatus, .-USART_GetITStatus
 1209              		.align	1
 1210              		.global	USART_ClearITPendingBit
 1211              		.thumb
 1212              		.thumb_func
 1213              		.type	USART_ClearITPendingBit, %function
 1214              	USART_ClearITPendingBit:
 1215              	.LFB57:
1002:Libraries/STM32F10x_StdPeriph_Driver/src/stm32f10x_usart.c **** 
1003:Libraries/STM32F10x_StdPeriph_Driver/src/stm32f10x_usart.c **** /**
1004:Libraries/STM32F10x_StdPeriph_Driver/src/stm32f10x_usart.c ****   * @brief  Clears the USARTx's interrupt pending bits.
1005:Libraries/STM32F10x_StdPeriph_Driver/src/stm32f10x_usart.c ****   * @param  USARTx: Select the USART or the UART peripheral. 
1006:Libraries/STM32F10x_StdPeriph_Driver/src/stm32f10x_usart.c ****   *   This parameter can be one of the following values:
1007:Libraries/STM32F10x_StdPeriph_Driver/src/stm32f10x_usart.c ****   *   USART1, USART2, USART3, UART4 or UART5.
1008:Libraries/STM32F10x_StdPeriph_Driver/src/stm32f10x_usart.c ****   * @param  USART_IT: specifies the interrupt pending bit to clear.
1009:Libraries/STM32F10x_StdPeriph_Driver/src/stm32f10x_usart.c ****   *   This parameter can be one of the following values:
1010:Libraries/STM32F10x_StdPeriph_Driver/src/stm32f10x_usart.c ****   *     @arg USART_IT_CTS:  CTS change interrupt (not available for UART4 and UART5)
1011:Libraries/STM32F10x_StdPeriph_Driver/src/stm32f10x_usart.c ****   *     @arg USART_IT_LBD:  LIN Break detection interrupt
1012:Libraries/STM32F10x_StdPeriph_Driver/src/stm32f10x_usart.c ****   *     @arg USART_IT_TC:   Transmission complete interrupt. 
1013:Libraries/STM32F10x_StdPeriph_Driver/src/stm32f10x_usart.c ****   *     @arg USART_IT_RXNE: Receive Data register not empty interrupt.
1014:Libraries/STM32F10x_StdPeriph_Driver/src/stm32f10x_usart.c ****   *   
1015:Libraries/STM32F10x_StdPeriph_Driver/src/stm32f10x_usart.c ****   * @note
1016:Libraries/STM32F10x_StdPeriph_Driver/src/stm32f10x_usart.c ****   *   - PE (Parity error), FE (Framing error), NE (Noise error), ORE (OverRun 
1017:Libraries/STM32F10x_StdPeriph_Driver/src/stm32f10x_usart.c ****   *     error) and IDLE (Idle line detected) pending bits are cleared by 
1018:Libraries/STM32F10x_StdPeriph_Driver/src/stm32f10x_usart.c ****   *     software sequence: a read operation to USART_SR register 
ARM GAS  /var/folders/lp/0dm50ddn51vc39svyzv_6fp00000gn/T//ccLUgEfv.s 			page 41


1019:Libraries/STM32F10x_StdPeriph_Driver/src/stm32f10x_usart.c ****   *     (USART_GetITStatus()) followed by a read operation to USART_DR register 
1020:Libraries/STM32F10x_StdPeriph_Driver/src/stm32f10x_usart.c ****   *     (USART_ReceiveData()).
1021:Libraries/STM32F10x_StdPeriph_Driver/src/stm32f10x_usart.c ****   *   - RXNE pending bit can be also cleared by a read to the USART_DR register 
1022:Libraries/STM32F10x_StdPeriph_Driver/src/stm32f10x_usart.c ****   *     (USART_ReceiveData()).
1023:Libraries/STM32F10x_StdPeriph_Driver/src/stm32f10x_usart.c ****   *   - TC pending bit can be also cleared by software sequence: a read 
1024:Libraries/STM32F10x_StdPeriph_Driver/src/stm32f10x_usart.c ****   *     operation to USART_SR register (USART_GetITStatus()) followed by a write 
1025:Libraries/STM32F10x_StdPeriph_Driver/src/stm32f10x_usart.c ****   *     operation to USART_DR register (USART_SendData()).
1026:Libraries/STM32F10x_StdPeriph_Driver/src/stm32f10x_usart.c ****   *   - TXE pending bit is cleared only by a write to the USART_DR register 
1027:Libraries/STM32F10x_StdPeriph_Driver/src/stm32f10x_usart.c ****   *     (USART_SendData()).
1028:Libraries/STM32F10x_StdPeriph_Driver/src/stm32f10x_usart.c ****   * @retval None
1029:Libraries/STM32F10x_StdPeriph_Driver/src/stm32f10x_usart.c ****   */
1030:Libraries/STM32F10x_StdPeriph_Driver/src/stm32f10x_usart.c **** void USART_ClearITPendingBit(USART_TypeDef* USARTx, uint16_t USART_IT)
1031:Libraries/STM32F10x_StdPeriph_Driver/src/stm32f10x_usart.c **** {
 1216              		.loc 1 1031 0
 1217              		.cfi_startproc
 1218              		@ args = 0, pretend = 0, frame = 0
 1219              		@ frame_needed = 0, uses_anonymous_args = 0
 1220              		@ link register save eliminated.
 1221              	.LVL106:
1032:Libraries/STM32F10x_StdPeriph_Driver/src/stm32f10x_usart.c ****   uint16_t bitpos = 0x00, itmask = 0x00;
1033:Libraries/STM32F10x_StdPeriph_Driver/src/stm32f10x_usart.c ****   /* Check the parameters */
1034:Libraries/STM32F10x_StdPeriph_Driver/src/stm32f10x_usart.c ****   assert_param(IS_USART_ALL_PERIPH(USARTx));
1035:Libraries/STM32F10x_StdPeriph_Driver/src/stm32f10x_usart.c ****   assert_param(IS_USART_CLEAR_IT(USART_IT));
1036:Libraries/STM32F10x_StdPeriph_Driver/src/stm32f10x_usart.c ****   /* The CTS interrupt is not available for UART4 and UART5 */
1037:Libraries/STM32F10x_StdPeriph_Driver/src/stm32f10x_usart.c ****   if (USART_IT == USART_IT_CTS)
1038:Libraries/STM32F10x_StdPeriph_Driver/src/stm32f10x_usart.c ****   {
1039:Libraries/STM32F10x_StdPeriph_Driver/src/stm32f10x_usart.c ****     assert_param(IS_USART_123_PERIPH(USARTx));
1040:Libraries/STM32F10x_StdPeriph_Driver/src/stm32f10x_usart.c ****   }   
1041:Libraries/STM32F10x_StdPeriph_Driver/src/stm32f10x_usart.c ****   
1042:Libraries/STM32F10x_StdPeriph_Driver/src/stm32f10x_usart.c ****   bitpos = USART_IT >> 0x08;
1043:Libraries/STM32F10x_StdPeriph_Driver/src/stm32f10x_usart.c ****   itmask = ((uint16_t)0x01 << (uint16_t)bitpos);
1044:Libraries/STM32F10x_StdPeriph_Driver/src/stm32f10x_usart.c ****   USARTx->SR = (uint16_t)~itmask;
 1222              		.loc 1 1044 0
 1223 038c 090A     		lsrs	r1, r1, #8	@ D.7071, USART_IT,
 1224              	.LVL107:
 1225 038e 0123     		movs	r3, #1	@ tmp120,
 1226 0390 03FA01F1 		lsl	r1, r3, r1	@ D.7071, tmp120, D.7071
 1227 0394 C943     		mvns	r1, r1	@ tmp122, D.7071
 1228 0396 89B2     		uxth	r1, r1	@ D.7072, tmp122
 1229 0398 0180     		strh	r1, [r0]	@ movhi	@ D.7072, USARTx_8(D)->SR
 1230 039a 7047     		bx	lr	@
 1231              		.cfi_endproc
 1232              	.LFE57:
 1233              		.size	USART_ClearITPendingBit, .-USART_ClearITPendingBit
 1234              	.Letext0:
 1235              		.file 2 "/usr/local/share/gcc-arm-none-eabi-5_4-2016q3/arm-none-eabi/include/machine/_default_type
 1236              		.file 3 "/usr/local/share/gcc-arm-none-eabi-5_4-2016q3/arm-none-eabi/include/sys/_stdint.h"
 1237              		.file 4 "./Libraries/CMSIS/CM3/DeviceSupport/ST/STM32F10x/stm32f10x.h"
 1238              		.file 5 "./Libraries/STM32F10x_StdPeriph_Driver/inc/stm32f10x_rcc.h"
 1239              		.file 6 "./Libraries/STM32F10x_StdPeriph_Driver/inc/stm32f10x_usart.h"
 1240              		.file 7 "./Libraries/CMSIS/CM3/CoreSupport/core_cm3.h"