ARM GAS  /var/folders/lp/0dm50ddn51vc39svyzv_6fp00000gn/T//cc0MZB2B.s 			page 1


   1              		.syntax unified
   2              		.cpu cortex-m3
   3              		.fpu softvfp
   4              		.eabi_attribute 20, 1	@ Tag_ABI_FP_denormal
   5              		.eabi_attribute 21, 1	@ Tag_ABI_FP_exceptions
   6              		.eabi_attribute 23, 3	@ Tag_ABI_FP_number_model
   7              		.eabi_attribute 24, 1	@ Tag_ABI_align8_needed
   8              		.eabi_attribute 25, 1	@ Tag_ABI_align8_preserved
   9              		.eabi_attribute 26, 1	@ Tag_ABI_enum_size
  10              		.eabi_attribute 30, 4	@ Tag_ABI_optimization_goals
  11              		.eabi_attribute 34, 1	@ Tag_CPU_unaligned_access
  12              		.eabi_attribute 18, 4	@ Tag_ABI_PCS_wchar_t
  13              		.file	"stm32f10x_gpio.c"
  14              	@ GNU C11 (GNU Tools for ARM Embedded Processors) version 5.4.1 20160919 (release) [ARM/embedded-5-
  15              	@	compiled by GNU C version 4.2.1 (Based on Apple Inc. build 5658) (LLVM build 2336.9.00), GMP vers
  16              	@ GGC heuristics: --param ggc-min-expand=100 --param ggc-min-heapsize=131072
  17              	@ options passed:  -I . -I ./user -I ./Libraries/CMSIS/CM3/CoreSupport
  18              	@ -I ./Libraries/CMSIS/CM3/DeviceSupport/ST/STM32F10x
  19              	@ -I ./Libraries/STM32F10x_StdPeriph_Driver/inc
  20              	@ -I ./Libraries/STM32F10x_StdPeriph_Driver -imultilib armv7-m
  21              	@ -iprefix /usr/local/share/gcc-arm-none-eabi-5_4-2016q3/bin/../lib/gcc/arm-none-eabi/5.4.1/
  22              	@ -isysroot /usr/local/share/gcc-arm-none-eabi-5_4-2016q3/bin/../arm-none-eabi
  23              	@ -D__USES_INITFINI__ -D STM32F10X_MD_VL -D USE_STDPERIPH_DRIVER
  24              	@ -D HSE_VALUE=8000000 -D RUN_FROM_FLASH=1
  25              	@ Libraries/STM32F10x_StdPeriph_Driver/src/stm32f10x_gpio.c -mcpu=cortex-m3
  26              	@ -mthumb
  27              	@ -auxbase-strip Libraries/STM32F10x_StdPeriph_Driver/src/stm32f10x_gpio.o
  28              	@ -g -gdwarf-2 -Os -Wall -fomit-frame-pointer -fverbose-asm
  29              	@ options enabled:  -faggressive-loop-optimizations -falign-functions
  30              	@ -falign-jumps -falign-labels -falign-loops -fauto-inc-dec
  31              	@ -fbranch-count-reg -fcaller-saves -fchkp-check-incomplete-type
  32              	@ -fchkp-check-read -fchkp-check-write -fchkp-instrument-calls
  33              	@ -fchkp-narrow-bounds -fchkp-optimize -fchkp-store-bounds
  34              	@ -fchkp-use-static-bounds -fchkp-use-static-const-bounds
  35              	@ -fchkp-use-wrappers -fcombine-stack-adjustments -fcommon -fcompare-elim
  36              	@ -fcprop-registers -fcrossjumping -fcse-follow-jumps -fdefer-pop
  37              	@ -fdelete-null-pointer-checks -fdevirtualize -fdevirtualize-speculatively
  38              	@ -fdwarf2-cfi-asm -fearly-inlining -feliminate-unused-debug-types
  39              	@ -fexpensive-optimizations -fforward-propagate -ffunction-cse -fgcse
  40              	@ -fgcse-lm -fgnu-runtime -fgnu-unique -fguess-branch-probability
  41              	@ -fhoist-adjacent-loads -fident -fif-conversion -fif-conversion2
  42              	@ -findirect-inlining -finline -finline-atomics -finline-functions
  43              	@ -finline-functions-called-once -finline-small-functions -fipa-cp
  44              	@ -fipa-cp-alignment -fipa-icf -fipa-icf-functions -fipa-icf-variables
  45              	@ -fipa-profile -fipa-pure-const -fipa-ra -fipa-reference -fipa-sra
  46              	@ -fira-hoist-pressure -fira-share-save-slots -fira-share-spill-slots
  47              	@ -fisolate-erroneous-paths-dereference -fivopts -fkeep-static-consts
  48              	@ -fleading-underscore -flifetime-dse -flra-remat -flto-odr-type-merging
  49              	@ -fmath-errno -fmerge-constants -fmerge-debug-strings
  50              	@ -fmove-loop-invariants -fomit-frame-pointer -foptimize-sibling-calls
  51              	@ -fpartial-inlining -fpeephole -fpeephole2 -fprefetch-loop-arrays
  52              	@ -freg-struct-return -freorder-blocks -freorder-functions
  53              	@ -frerun-cse-after-loop -fsched-critical-path-heuristic
  54              	@ -fsched-dep-count-heuristic -fsched-group-heuristic -fsched-interblock
  55              	@ -fsched-last-insn-heuristic -fsched-pressure -fsched-rank-heuristic
  56              	@ -fsched-spec -fsched-spec-insn-heuristic -fsched-stalled-insns-dep
  57              	@ -fschedule-insns2 -fsection-anchors -fsemantic-interposition
ARM GAS  /var/folders/lp/0dm50ddn51vc39svyzv_6fp00000gn/T//cc0MZB2B.s 			page 2


  58              	@ -fshow-column -fsigned-zeros -fsplit-ivs-in-unroller -fsplit-wide-types
  59              	@ -fssa-phiopt -fstdarg-opt -fstrict-aliasing -fstrict-overflow
  60              	@ -fstrict-volatile-bitfields -fsync-libcalls -fthread-jumps
  61              	@ -ftoplevel-reorder -ftrapping-math -ftree-bit-ccp -ftree-builtin-call-dce
  62              	@ -ftree-ccp -ftree-ch -ftree-coalesce-vars -ftree-copy-prop
  63              	@ -ftree-copyrename -ftree-cselim -ftree-dce -ftree-dominator-opts
  64              	@ -ftree-dse -ftree-forwprop -ftree-fre -ftree-loop-if-convert
  65              	@ -ftree-loop-im -ftree-loop-ivcanon -ftree-loop-optimize
  66              	@ -ftree-parallelize-loops= -ftree-phiprop -ftree-pre -ftree-pta
  67              	@ -ftree-reassoc -ftree-scev-cprop -ftree-sink -ftree-slsr -ftree-sra
  68              	@ -ftree-switch-conversion -ftree-tail-merge -ftree-ter -ftree-vrp
  69              	@ -funit-at-a-time -fvar-tracking -fvar-tracking-assignments -fverbose-asm
  70              	@ -fzero-initialized-in-bss -masm-syntax-unified -mfix-cortex-m3-ldrd
  71              	@ -mlittle-endian -mpic-data-is-text-relative -msched-prolog -mthumb
  72              	@ -munaligned-access -mvectorize-with-neon-quad
  73              	
  74              		.text
  75              	.Ltext0:
  76              		.cfi_sections	.debug_frame
  77              		.align	1
  78              		.global	GPIO_DeInit
  79              		.thumb
  80              		.thumb_func
  81              		.type	GPIO_DeInit, %function
  82              	GPIO_DeInit:
  83              	.LFB29:
  84              		.file 1 "Libraries/STM32F10x_StdPeriph_Driver/src/stm32f10x_gpio.c"
   1:Libraries/STM32F10x_StdPeriph_Driver/src/stm32f10x_gpio.c **** /**
   2:Libraries/STM32F10x_StdPeriph_Driver/src/stm32f10x_gpio.c ****   ******************************************************************************
   3:Libraries/STM32F10x_StdPeriph_Driver/src/stm32f10x_gpio.c ****   * @file    stm32f10x_gpio.c
   4:Libraries/STM32F10x_StdPeriph_Driver/src/stm32f10x_gpio.c ****   * @author  MCD Application Team
   5:Libraries/STM32F10x_StdPeriph_Driver/src/stm32f10x_gpio.c ****   * @version V3.5.0
   6:Libraries/STM32F10x_StdPeriph_Driver/src/stm32f10x_gpio.c ****   * @date    11-March-2011
   7:Libraries/STM32F10x_StdPeriph_Driver/src/stm32f10x_gpio.c ****   * @brief   This file provides all the GPIO firmware functions.
   8:Libraries/STM32F10x_StdPeriph_Driver/src/stm32f10x_gpio.c ****   ******************************************************************************
   9:Libraries/STM32F10x_StdPeriph_Driver/src/stm32f10x_gpio.c ****   * @attention
  10:Libraries/STM32F10x_StdPeriph_Driver/src/stm32f10x_gpio.c ****   *
  11:Libraries/STM32F10x_StdPeriph_Driver/src/stm32f10x_gpio.c ****   * THE PRESENT FIRMWARE WHICH IS FOR GUIDANCE ONLY AIMS AT PROVIDING CUSTOMERS
  12:Libraries/STM32F10x_StdPeriph_Driver/src/stm32f10x_gpio.c ****   * WITH CODING INFORMATION REGARDING THEIR PRODUCTS IN ORDER FOR THEM TO SAVE
  13:Libraries/STM32F10x_StdPeriph_Driver/src/stm32f10x_gpio.c ****   * TIME. AS A RESULT, STMICROELECTRONICS SHALL NOT BE HELD LIABLE FOR ANY
  14:Libraries/STM32F10x_StdPeriph_Driver/src/stm32f10x_gpio.c ****   * DIRECT, INDIRECT OR CONSEQUENTIAL DAMAGES WITH RESPECT TO ANY CLAIMS ARISING
  15:Libraries/STM32F10x_StdPeriph_Driver/src/stm32f10x_gpio.c ****   * FROM THE CONTENT OF SUCH FIRMWARE AND/OR THE USE MADE BY CUSTOMERS OF THE
  16:Libraries/STM32F10x_StdPeriph_Driver/src/stm32f10x_gpio.c ****   * CODING INFORMATION CONTAINED HEREIN IN CONNECTION WITH THEIR PRODUCTS.
  17:Libraries/STM32F10x_StdPeriph_Driver/src/stm32f10x_gpio.c ****   *
  18:Libraries/STM32F10x_StdPeriph_Driver/src/stm32f10x_gpio.c ****   * <h2><center>&copy; COPYRIGHT 2011 STMicroelectronics</center></h2>
  19:Libraries/STM32F10x_StdPeriph_Driver/src/stm32f10x_gpio.c ****   ******************************************************************************
  20:Libraries/STM32F10x_StdPeriph_Driver/src/stm32f10x_gpio.c ****   */
  21:Libraries/STM32F10x_StdPeriph_Driver/src/stm32f10x_gpio.c **** 
  22:Libraries/STM32F10x_StdPeriph_Driver/src/stm32f10x_gpio.c **** /* Includes ------------------------------------------------------------------*/
  23:Libraries/STM32F10x_StdPeriph_Driver/src/stm32f10x_gpio.c **** #include "stm32f10x_gpio.h"
  24:Libraries/STM32F10x_StdPeriph_Driver/src/stm32f10x_gpio.c **** #include "stm32f10x_rcc.h"
  25:Libraries/STM32F10x_StdPeriph_Driver/src/stm32f10x_gpio.c **** 
  26:Libraries/STM32F10x_StdPeriph_Driver/src/stm32f10x_gpio.c **** /** @addtogroup STM32F10x_StdPeriph_Driver
  27:Libraries/STM32F10x_StdPeriph_Driver/src/stm32f10x_gpio.c ****   * @{
  28:Libraries/STM32F10x_StdPeriph_Driver/src/stm32f10x_gpio.c ****   */
  29:Libraries/STM32F10x_StdPeriph_Driver/src/stm32f10x_gpio.c **** 
  30:Libraries/STM32F10x_StdPeriph_Driver/src/stm32f10x_gpio.c **** /** @defgroup GPIO 
ARM GAS  /var/folders/lp/0dm50ddn51vc39svyzv_6fp00000gn/T//cc0MZB2B.s 			page 3


  31:Libraries/STM32F10x_StdPeriph_Driver/src/stm32f10x_gpio.c ****   * @brief GPIO driver modules
  32:Libraries/STM32F10x_StdPeriph_Driver/src/stm32f10x_gpio.c ****   * @{
  33:Libraries/STM32F10x_StdPeriph_Driver/src/stm32f10x_gpio.c ****   */ 
  34:Libraries/STM32F10x_StdPeriph_Driver/src/stm32f10x_gpio.c **** 
  35:Libraries/STM32F10x_StdPeriph_Driver/src/stm32f10x_gpio.c **** /** @defgroup GPIO_Private_TypesDefinitions
  36:Libraries/STM32F10x_StdPeriph_Driver/src/stm32f10x_gpio.c ****   * @{
  37:Libraries/STM32F10x_StdPeriph_Driver/src/stm32f10x_gpio.c ****   */
  38:Libraries/STM32F10x_StdPeriph_Driver/src/stm32f10x_gpio.c **** 
  39:Libraries/STM32F10x_StdPeriph_Driver/src/stm32f10x_gpio.c **** /**
  40:Libraries/STM32F10x_StdPeriph_Driver/src/stm32f10x_gpio.c ****   * @}
  41:Libraries/STM32F10x_StdPeriph_Driver/src/stm32f10x_gpio.c ****   */
  42:Libraries/STM32F10x_StdPeriph_Driver/src/stm32f10x_gpio.c **** 
  43:Libraries/STM32F10x_StdPeriph_Driver/src/stm32f10x_gpio.c **** /** @defgroup GPIO_Private_Defines
  44:Libraries/STM32F10x_StdPeriph_Driver/src/stm32f10x_gpio.c ****   * @{
  45:Libraries/STM32F10x_StdPeriph_Driver/src/stm32f10x_gpio.c ****   */
  46:Libraries/STM32F10x_StdPeriph_Driver/src/stm32f10x_gpio.c **** 
  47:Libraries/STM32F10x_StdPeriph_Driver/src/stm32f10x_gpio.c **** /* ------------ RCC registers bit address in the alias region ----------------*/
  48:Libraries/STM32F10x_StdPeriph_Driver/src/stm32f10x_gpio.c **** #define AFIO_OFFSET                 (AFIO_BASE - PERIPH_BASE)
  49:Libraries/STM32F10x_StdPeriph_Driver/src/stm32f10x_gpio.c **** 
  50:Libraries/STM32F10x_StdPeriph_Driver/src/stm32f10x_gpio.c **** /* --- EVENTCR Register -----*/
  51:Libraries/STM32F10x_StdPeriph_Driver/src/stm32f10x_gpio.c **** 
  52:Libraries/STM32F10x_StdPeriph_Driver/src/stm32f10x_gpio.c **** /* Alias word address of EVOE bit */
  53:Libraries/STM32F10x_StdPeriph_Driver/src/stm32f10x_gpio.c **** #define EVCR_OFFSET                 (AFIO_OFFSET + 0x00)
  54:Libraries/STM32F10x_StdPeriph_Driver/src/stm32f10x_gpio.c **** #define EVOE_BitNumber              ((uint8_t)0x07)
  55:Libraries/STM32F10x_StdPeriph_Driver/src/stm32f10x_gpio.c **** #define EVCR_EVOE_BB                (PERIPH_BB_BASE + (EVCR_OFFSET * 32) + (EVOE_BitNumber * 4))
  56:Libraries/STM32F10x_StdPeriph_Driver/src/stm32f10x_gpio.c **** 
  57:Libraries/STM32F10x_StdPeriph_Driver/src/stm32f10x_gpio.c **** 
  58:Libraries/STM32F10x_StdPeriph_Driver/src/stm32f10x_gpio.c **** /* ---  MAPR Register ---*/ 
  59:Libraries/STM32F10x_StdPeriph_Driver/src/stm32f10x_gpio.c **** /* Alias word address of MII_RMII_SEL bit */ 
  60:Libraries/STM32F10x_StdPeriph_Driver/src/stm32f10x_gpio.c **** #define MAPR_OFFSET                 (AFIO_OFFSET + 0x04) 
  61:Libraries/STM32F10x_StdPeriph_Driver/src/stm32f10x_gpio.c **** #define MII_RMII_SEL_BitNumber      ((u8)0x17) 
  62:Libraries/STM32F10x_StdPeriph_Driver/src/stm32f10x_gpio.c **** #define MAPR_MII_RMII_SEL_BB        (PERIPH_BB_BASE + (MAPR_OFFSET * 32) + (MII_RMII_SEL_BitNumber 
  63:Libraries/STM32F10x_StdPeriph_Driver/src/stm32f10x_gpio.c **** 
  64:Libraries/STM32F10x_StdPeriph_Driver/src/stm32f10x_gpio.c **** 
  65:Libraries/STM32F10x_StdPeriph_Driver/src/stm32f10x_gpio.c **** #define EVCR_PORTPINCONFIG_MASK     ((uint16_t)0xFF80)
  66:Libraries/STM32F10x_StdPeriph_Driver/src/stm32f10x_gpio.c **** #define LSB_MASK                    ((uint16_t)0xFFFF)
  67:Libraries/STM32F10x_StdPeriph_Driver/src/stm32f10x_gpio.c **** #define DBGAFR_POSITION_MASK        ((uint32_t)0x000F0000)
  68:Libraries/STM32F10x_StdPeriph_Driver/src/stm32f10x_gpio.c **** #define DBGAFR_SWJCFG_MASK          ((uint32_t)0xF0FFFFFF)
  69:Libraries/STM32F10x_StdPeriph_Driver/src/stm32f10x_gpio.c **** #define DBGAFR_LOCATION_MASK        ((uint32_t)0x00200000)
  70:Libraries/STM32F10x_StdPeriph_Driver/src/stm32f10x_gpio.c **** #define DBGAFR_NUMBITS_MASK         ((uint32_t)0x00100000)
  71:Libraries/STM32F10x_StdPeriph_Driver/src/stm32f10x_gpio.c **** /**
  72:Libraries/STM32F10x_StdPeriph_Driver/src/stm32f10x_gpio.c ****   * @}
  73:Libraries/STM32F10x_StdPeriph_Driver/src/stm32f10x_gpio.c ****   */
  74:Libraries/STM32F10x_StdPeriph_Driver/src/stm32f10x_gpio.c **** 
  75:Libraries/STM32F10x_StdPeriph_Driver/src/stm32f10x_gpio.c **** /** @defgroup GPIO_Private_Macros
  76:Libraries/STM32F10x_StdPeriph_Driver/src/stm32f10x_gpio.c ****   * @{
  77:Libraries/STM32F10x_StdPeriph_Driver/src/stm32f10x_gpio.c ****   */
  78:Libraries/STM32F10x_StdPeriph_Driver/src/stm32f10x_gpio.c **** 
  79:Libraries/STM32F10x_StdPeriph_Driver/src/stm32f10x_gpio.c **** /**
  80:Libraries/STM32F10x_StdPeriph_Driver/src/stm32f10x_gpio.c ****   * @}
  81:Libraries/STM32F10x_StdPeriph_Driver/src/stm32f10x_gpio.c ****   */
  82:Libraries/STM32F10x_StdPeriph_Driver/src/stm32f10x_gpio.c **** 
  83:Libraries/STM32F10x_StdPeriph_Driver/src/stm32f10x_gpio.c **** /** @defgroup GPIO_Private_Variables
  84:Libraries/STM32F10x_StdPeriph_Driver/src/stm32f10x_gpio.c ****   * @{
  85:Libraries/STM32F10x_StdPeriph_Driver/src/stm32f10x_gpio.c ****   */
  86:Libraries/STM32F10x_StdPeriph_Driver/src/stm32f10x_gpio.c **** 
  87:Libraries/STM32F10x_StdPeriph_Driver/src/stm32f10x_gpio.c **** /**
ARM GAS  /var/folders/lp/0dm50ddn51vc39svyzv_6fp00000gn/T//cc0MZB2B.s 			page 4


  88:Libraries/STM32F10x_StdPeriph_Driver/src/stm32f10x_gpio.c ****   * @}
  89:Libraries/STM32F10x_StdPeriph_Driver/src/stm32f10x_gpio.c ****   */
  90:Libraries/STM32F10x_StdPeriph_Driver/src/stm32f10x_gpio.c **** 
  91:Libraries/STM32F10x_StdPeriph_Driver/src/stm32f10x_gpio.c **** /** @defgroup GPIO_Private_FunctionPrototypes
  92:Libraries/STM32F10x_StdPeriph_Driver/src/stm32f10x_gpio.c ****   * @{
  93:Libraries/STM32F10x_StdPeriph_Driver/src/stm32f10x_gpio.c ****   */
  94:Libraries/STM32F10x_StdPeriph_Driver/src/stm32f10x_gpio.c **** 
  95:Libraries/STM32F10x_StdPeriph_Driver/src/stm32f10x_gpio.c **** /**
  96:Libraries/STM32F10x_StdPeriph_Driver/src/stm32f10x_gpio.c ****   * @}
  97:Libraries/STM32F10x_StdPeriph_Driver/src/stm32f10x_gpio.c ****   */
  98:Libraries/STM32F10x_StdPeriph_Driver/src/stm32f10x_gpio.c **** 
  99:Libraries/STM32F10x_StdPeriph_Driver/src/stm32f10x_gpio.c **** /** @defgroup GPIO_Private_Functions
 100:Libraries/STM32F10x_StdPeriph_Driver/src/stm32f10x_gpio.c ****   * @{
 101:Libraries/STM32F10x_StdPeriph_Driver/src/stm32f10x_gpio.c ****   */
 102:Libraries/STM32F10x_StdPeriph_Driver/src/stm32f10x_gpio.c **** 
 103:Libraries/STM32F10x_StdPeriph_Driver/src/stm32f10x_gpio.c **** /**
 104:Libraries/STM32F10x_StdPeriph_Driver/src/stm32f10x_gpio.c ****   * @brief  Deinitializes the GPIOx peripheral registers to their default reset values.
 105:Libraries/STM32F10x_StdPeriph_Driver/src/stm32f10x_gpio.c ****   * @param  GPIOx: where x can be (A..G) to select the GPIO peripheral.
 106:Libraries/STM32F10x_StdPeriph_Driver/src/stm32f10x_gpio.c ****   * @retval None
 107:Libraries/STM32F10x_StdPeriph_Driver/src/stm32f10x_gpio.c ****   */
 108:Libraries/STM32F10x_StdPeriph_Driver/src/stm32f10x_gpio.c **** void GPIO_DeInit(GPIO_TypeDef* GPIOx)
 109:Libraries/STM32F10x_StdPeriph_Driver/src/stm32f10x_gpio.c **** {
  85              		.loc 1 109 0
  86              		.cfi_startproc
  87              		@ args = 0, pretend = 0, frame = 0
  88              		@ frame_needed = 0, uses_anonymous_args = 0
  89              	.LVL0:
  90 0000 08B5     		push	{r3, lr}	@
  91              	.LCFI0:
  92              		.cfi_def_cfa_offset 8
  93              		.cfi_offset 3, -8
  94              		.cfi_offset 14, -4
 110:Libraries/STM32F10x_StdPeriph_Driver/src/stm32f10x_gpio.c ****   /* Check the parameters */
 111:Libraries/STM32F10x_StdPeriph_Driver/src/stm32f10x_gpio.c ****   assert_param(IS_GPIO_ALL_PERIPH(GPIOx));
 112:Libraries/STM32F10x_StdPeriph_Driver/src/stm32f10x_gpio.c ****   
 113:Libraries/STM32F10x_StdPeriph_Driver/src/stm32f10x_gpio.c ****   if (GPIOx == GPIOA)
  95              		.loc 1 113 0
  96 0002 264B     		ldr	r3, .L11	@ tmp111,
  97 0004 9842     		cmp	r0, r3	@ GPIOx, tmp111
  98 0006 06D1     		bne	.L2	@,
 114:Libraries/STM32F10x_StdPeriph_Driver/src/stm32f10x_gpio.c ****   {
 115:Libraries/STM32F10x_StdPeriph_Driver/src/stm32f10x_gpio.c ****     RCC_APB2PeriphResetCmd(RCC_APB2Periph_GPIOA, ENABLE);
  99              		.loc 1 115 0
 100 0008 0121     		movs	r1, #1	@,
 101 000a 0420     		movs	r0, #4	@,
 102              	.LVL1:
 103 000c FFF7FEFF 		bl	RCC_APB2PeriphResetCmd	@
 104              	.LVL2:
 116:Libraries/STM32F10x_StdPeriph_Driver/src/stm32f10x_gpio.c ****     RCC_APB2PeriphResetCmd(RCC_APB2Periph_GPIOA, DISABLE);
 105              		.loc 1 116 0
 106 0010 0021     		movs	r1, #0	@,
 107 0012 0420     		movs	r0, #4	@,
 108 0014 3CE0     		b	.L9	@
 109              	.LVL3:
 110              	.L2:
 117:Libraries/STM32F10x_StdPeriph_Driver/src/stm32f10x_gpio.c ****   }
 118:Libraries/STM32F10x_StdPeriph_Driver/src/stm32f10x_gpio.c ****   else if (GPIOx == GPIOB)
ARM GAS  /var/folders/lp/0dm50ddn51vc39svyzv_6fp00000gn/T//cc0MZB2B.s 			page 5


 111              		.loc 1 118 0
 112 0016 224B     		ldr	r3, .L11+4	@ tmp112,
 113 0018 9842     		cmp	r0, r3	@ GPIOx, tmp112
 114 001a 06D1     		bne	.L3	@,
 119:Libraries/STM32F10x_StdPeriph_Driver/src/stm32f10x_gpio.c ****   {
 120:Libraries/STM32F10x_StdPeriph_Driver/src/stm32f10x_gpio.c ****     RCC_APB2PeriphResetCmd(RCC_APB2Periph_GPIOB, ENABLE);
 115              		.loc 1 120 0
 116 001c 0121     		movs	r1, #1	@,
 117 001e 0820     		movs	r0, #8	@,
 118              	.LVL4:
 119 0020 FFF7FEFF 		bl	RCC_APB2PeriphResetCmd	@
 120              	.LVL5:
 121:Libraries/STM32F10x_StdPeriph_Driver/src/stm32f10x_gpio.c ****     RCC_APB2PeriphResetCmd(RCC_APB2Periph_GPIOB, DISABLE);
 121              		.loc 1 121 0
 122 0024 0021     		movs	r1, #0	@,
 123 0026 0820     		movs	r0, #8	@,
 124 0028 32E0     		b	.L9	@
 125              	.LVL6:
 126              	.L3:
 122:Libraries/STM32F10x_StdPeriph_Driver/src/stm32f10x_gpio.c ****   }
 123:Libraries/STM32F10x_StdPeriph_Driver/src/stm32f10x_gpio.c ****   else if (GPIOx == GPIOC)
 127              		.loc 1 123 0
 128 002a 1E4B     		ldr	r3, .L11+8	@ tmp113,
 129 002c 9842     		cmp	r0, r3	@ GPIOx, tmp113
 130 002e 06D1     		bne	.L4	@,
 124:Libraries/STM32F10x_StdPeriph_Driver/src/stm32f10x_gpio.c ****   {
 125:Libraries/STM32F10x_StdPeriph_Driver/src/stm32f10x_gpio.c ****     RCC_APB2PeriphResetCmd(RCC_APB2Periph_GPIOC, ENABLE);
 131              		.loc 1 125 0
 132 0030 0121     		movs	r1, #1	@,
 133 0032 1020     		movs	r0, #16	@,
 134              	.LVL7:
 135 0034 FFF7FEFF 		bl	RCC_APB2PeriphResetCmd	@
 136              	.LVL8:
 126:Libraries/STM32F10x_StdPeriph_Driver/src/stm32f10x_gpio.c ****     RCC_APB2PeriphResetCmd(RCC_APB2Periph_GPIOC, DISABLE);
 137              		.loc 1 126 0
 138 0038 0021     		movs	r1, #0	@,
 139 003a 1020     		movs	r0, #16	@,
 140 003c 28E0     		b	.L9	@
 141              	.LVL9:
 142              	.L4:
 127:Libraries/STM32F10x_StdPeriph_Driver/src/stm32f10x_gpio.c ****   }
 128:Libraries/STM32F10x_StdPeriph_Driver/src/stm32f10x_gpio.c ****   else if (GPIOx == GPIOD)
 143              		.loc 1 128 0
 144 003e 1A4B     		ldr	r3, .L11+12	@ tmp114,
 145 0040 9842     		cmp	r0, r3	@ GPIOx, tmp114
 146 0042 06D1     		bne	.L5	@,
 129:Libraries/STM32F10x_StdPeriph_Driver/src/stm32f10x_gpio.c ****   {
 130:Libraries/STM32F10x_StdPeriph_Driver/src/stm32f10x_gpio.c ****     RCC_APB2PeriphResetCmd(RCC_APB2Periph_GPIOD, ENABLE);
 147              		.loc 1 130 0
 148 0044 0121     		movs	r1, #1	@,
 149 0046 2020     		movs	r0, #32	@,
 150              	.LVL10:
 151 0048 FFF7FEFF 		bl	RCC_APB2PeriphResetCmd	@
 152              	.LVL11:
 131:Libraries/STM32F10x_StdPeriph_Driver/src/stm32f10x_gpio.c ****     RCC_APB2PeriphResetCmd(RCC_APB2Periph_GPIOD, DISABLE);
 153              		.loc 1 131 0
 154 004c 0021     		movs	r1, #0	@,
ARM GAS  /var/folders/lp/0dm50ddn51vc39svyzv_6fp00000gn/T//cc0MZB2B.s 			page 6


 155 004e 2020     		movs	r0, #32	@,
 156 0050 1EE0     		b	.L9	@
 157              	.LVL12:
 158              	.L5:
 132:Libraries/STM32F10x_StdPeriph_Driver/src/stm32f10x_gpio.c ****   }    
 133:Libraries/STM32F10x_StdPeriph_Driver/src/stm32f10x_gpio.c ****   else if (GPIOx == GPIOE)
 159              		.loc 1 133 0
 160 0052 164B     		ldr	r3, .L11+16	@ tmp115,
 161 0054 9842     		cmp	r0, r3	@ GPIOx, tmp115
 162 0056 06D1     		bne	.L6	@,
 134:Libraries/STM32F10x_StdPeriph_Driver/src/stm32f10x_gpio.c ****   {
 135:Libraries/STM32F10x_StdPeriph_Driver/src/stm32f10x_gpio.c ****     RCC_APB2PeriphResetCmd(RCC_APB2Periph_GPIOE, ENABLE);
 163              		.loc 1 135 0
 164 0058 0121     		movs	r1, #1	@,
 165 005a 4020     		movs	r0, #64	@,
 166              	.LVL13:
 167 005c FFF7FEFF 		bl	RCC_APB2PeriphResetCmd	@
 168              	.LVL14:
 136:Libraries/STM32F10x_StdPeriph_Driver/src/stm32f10x_gpio.c ****     RCC_APB2PeriphResetCmd(RCC_APB2Periph_GPIOE, DISABLE);
 169              		.loc 1 136 0
 170 0060 0021     		movs	r1, #0	@,
 171 0062 4020     		movs	r0, #64	@,
 172 0064 14E0     		b	.L9	@
 173              	.LVL15:
 174              	.L6:
 137:Libraries/STM32F10x_StdPeriph_Driver/src/stm32f10x_gpio.c ****   } 
 138:Libraries/STM32F10x_StdPeriph_Driver/src/stm32f10x_gpio.c ****   else if (GPIOx == GPIOF)
 175              		.loc 1 138 0
 176 0066 124B     		ldr	r3, .L11+20	@ tmp116,
 177 0068 9842     		cmp	r0, r3	@ GPIOx, tmp116
 178 006a 06D1     		bne	.L7	@,
 139:Libraries/STM32F10x_StdPeriph_Driver/src/stm32f10x_gpio.c ****   {
 140:Libraries/STM32F10x_StdPeriph_Driver/src/stm32f10x_gpio.c ****     RCC_APB2PeriphResetCmd(RCC_APB2Periph_GPIOF, ENABLE);
 179              		.loc 1 140 0
 180 006c 0121     		movs	r1, #1	@,
 181 006e 8020     		movs	r0, #128	@,
 182              	.LVL16:
 183 0070 FFF7FEFF 		bl	RCC_APB2PeriphResetCmd	@
 184              	.LVL17:
 141:Libraries/STM32F10x_StdPeriph_Driver/src/stm32f10x_gpio.c ****     RCC_APB2PeriphResetCmd(RCC_APB2Periph_GPIOF, DISABLE);
 185              		.loc 1 141 0
 186 0074 0021     		movs	r1, #0	@,
 187 0076 8020     		movs	r0, #128	@,
 188 0078 0AE0     		b	.L9	@
 189              	.LVL18:
 190              	.L7:
 142:Libraries/STM32F10x_StdPeriph_Driver/src/stm32f10x_gpio.c ****   }
 143:Libraries/STM32F10x_StdPeriph_Driver/src/stm32f10x_gpio.c ****   else
 144:Libraries/STM32F10x_StdPeriph_Driver/src/stm32f10x_gpio.c ****   {
 145:Libraries/STM32F10x_StdPeriph_Driver/src/stm32f10x_gpio.c ****     if (GPIOx == GPIOG)
 191              		.loc 1 145 0
 192 007a 0E4B     		ldr	r3, .L11+24	@ tmp117,
 193 007c 9842     		cmp	r0, r3	@ GPIOx, tmp117
 194 007e 0BD1     		bne	.L1	@,
 146:Libraries/STM32F10x_StdPeriph_Driver/src/stm32f10x_gpio.c ****     {
 147:Libraries/STM32F10x_StdPeriph_Driver/src/stm32f10x_gpio.c ****       RCC_APB2PeriphResetCmd(RCC_APB2Periph_GPIOG, ENABLE);
 195              		.loc 1 147 0
ARM GAS  /var/folders/lp/0dm50ddn51vc39svyzv_6fp00000gn/T//cc0MZB2B.s 			page 7


 196 0080 0121     		movs	r1, #1	@,
 197 0082 4FF48070 		mov	r0, #256	@,
 198              	.LVL19:
 199 0086 FFF7FEFF 		bl	RCC_APB2PeriphResetCmd	@
 200              	.LVL20:
 148:Libraries/STM32F10x_StdPeriph_Driver/src/stm32f10x_gpio.c ****       RCC_APB2PeriphResetCmd(RCC_APB2Periph_GPIOG, DISABLE);
 201              		.loc 1 148 0
 202 008a 0021     		movs	r1, #0	@,
 203 008c 4FF48070 		mov	r0, #256	@,
 204              	.L9:
 149:Libraries/STM32F10x_StdPeriph_Driver/src/stm32f10x_gpio.c ****     }
 150:Libraries/STM32F10x_StdPeriph_Driver/src/stm32f10x_gpio.c ****   }
 151:Libraries/STM32F10x_StdPeriph_Driver/src/stm32f10x_gpio.c **** }
 205              		.loc 1 151 0
 206 0090 BDE80840 		pop	{r3, lr}	@
 207              	.LCFI1:
 208              		.cfi_remember_state
 209              		.cfi_restore 14
 210              		.cfi_restore 3
 211              		.cfi_def_cfa_offset 0
 148:Libraries/STM32F10x_StdPeriph_Driver/src/stm32f10x_gpio.c ****       RCC_APB2PeriphResetCmd(RCC_APB2Periph_GPIOG, DISABLE);
 212              		.loc 1 148 0
 213 0094 FFF7FEBF 		b	RCC_APB2PeriphResetCmd	@
 214              	.LVL21:
 215              	.L1:
 216              	.LCFI2:
 217              		.cfi_restore_state
 218 0098 08BD     		pop	{r3, pc}	@
 219              	.L12:
 220 009a 00BF     		.align	2
 221              	.L11:
 222 009c 00080140 		.word	1073809408
 223 00a0 000C0140 		.word	1073810432
 224 00a4 00100140 		.word	1073811456
 225 00a8 00140140 		.word	1073812480
 226 00ac 00180140 		.word	1073813504
 227 00b0 001C0140 		.word	1073814528
 228 00b4 00200140 		.word	1073815552
 229              		.cfi_endproc
 230              	.LFE29:
 231              		.size	GPIO_DeInit, .-GPIO_DeInit
 232              		.align	1
 233              		.global	GPIO_AFIODeInit
 234              		.thumb
 235              		.thumb_func
 236              		.type	GPIO_AFIODeInit, %function
 237              	GPIO_AFIODeInit:
 238              	.LFB30:
 152:Libraries/STM32F10x_StdPeriph_Driver/src/stm32f10x_gpio.c **** 
 153:Libraries/STM32F10x_StdPeriph_Driver/src/stm32f10x_gpio.c **** /**
 154:Libraries/STM32F10x_StdPeriph_Driver/src/stm32f10x_gpio.c ****   * @brief  Deinitializes the Alternate Functions (remap, event control
 155:Libraries/STM32F10x_StdPeriph_Driver/src/stm32f10x_gpio.c ****   *   and EXTI configuration) registers to their default reset values.
 156:Libraries/STM32F10x_StdPeriph_Driver/src/stm32f10x_gpio.c ****   * @param  None
 157:Libraries/STM32F10x_StdPeriph_Driver/src/stm32f10x_gpio.c ****   * @retval None
 158:Libraries/STM32F10x_StdPeriph_Driver/src/stm32f10x_gpio.c ****   */
 159:Libraries/STM32F10x_StdPeriph_Driver/src/stm32f10x_gpio.c **** void GPIO_AFIODeInit(void)
 160:Libraries/STM32F10x_StdPeriph_Driver/src/stm32f10x_gpio.c **** {
ARM GAS  /var/folders/lp/0dm50ddn51vc39svyzv_6fp00000gn/T//cc0MZB2B.s 			page 8


 239              		.loc 1 160 0
 240              		.cfi_startproc
 241              		@ args = 0, pretend = 0, frame = 0
 242              		@ frame_needed = 0, uses_anonymous_args = 0
 243 00b8 08B5     		push	{r3, lr}	@
 244              	.LCFI3:
 245              		.cfi_def_cfa_offset 8
 246              		.cfi_offset 3, -8
 247              		.cfi_offset 14, -4
 161:Libraries/STM32F10x_StdPeriph_Driver/src/stm32f10x_gpio.c ****   RCC_APB2PeriphResetCmd(RCC_APB2Periph_AFIO, ENABLE);
 248              		.loc 1 161 0
 249 00ba 0121     		movs	r1, #1	@,
 250 00bc 0846     		mov	r0, r1	@,
 251 00be FFF7FEFF 		bl	RCC_APB2PeriphResetCmd	@
 252              	.LVL22:
 162:Libraries/STM32F10x_StdPeriph_Driver/src/stm32f10x_gpio.c ****   RCC_APB2PeriphResetCmd(RCC_APB2Periph_AFIO, DISABLE);
 163:Libraries/STM32F10x_StdPeriph_Driver/src/stm32f10x_gpio.c **** }
 253              		.loc 1 163 0
 254 00c2 BDE80840 		pop	{r3, lr}	@
 255              	.LCFI4:
 256              		.cfi_restore 14
 257              		.cfi_restore 3
 258              		.cfi_def_cfa_offset 0
 162:Libraries/STM32F10x_StdPeriph_Driver/src/stm32f10x_gpio.c ****   RCC_APB2PeriphResetCmd(RCC_APB2Periph_AFIO, DISABLE);
 259              		.loc 1 162 0
 260 00c6 0021     		movs	r1, #0	@,
 261 00c8 0120     		movs	r0, #1	@,
 262 00ca FFF7FEBF 		b	RCC_APB2PeriphResetCmd	@
 263              	.LVL23:
 264              		.cfi_endproc
 265              	.LFE30:
 266              		.size	GPIO_AFIODeInit, .-GPIO_AFIODeInit
 267              		.align	1
 268              		.global	GPIO_Init
 269              		.thumb
 270              		.thumb_func
 271              		.type	GPIO_Init, %function
 272              	GPIO_Init:
 273              	.LFB31:
 164:Libraries/STM32F10x_StdPeriph_Driver/src/stm32f10x_gpio.c **** 
 165:Libraries/STM32F10x_StdPeriph_Driver/src/stm32f10x_gpio.c **** /**
 166:Libraries/STM32F10x_StdPeriph_Driver/src/stm32f10x_gpio.c ****   * @brief  Initializes the GPIOx peripheral according to the specified
 167:Libraries/STM32F10x_StdPeriph_Driver/src/stm32f10x_gpio.c ****   *         parameters in the GPIO_InitStruct.
 168:Libraries/STM32F10x_StdPeriph_Driver/src/stm32f10x_gpio.c ****   * @param  GPIOx: where x can be (A..G) to select the GPIO peripheral.
 169:Libraries/STM32F10x_StdPeriph_Driver/src/stm32f10x_gpio.c ****   * @param  GPIO_InitStruct: pointer to a GPIO_InitTypeDef structure that
 170:Libraries/STM32F10x_StdPeriph_Driver/src/stm32f10x_gpio.c ****   *         contains the configuration information for the specified GPIO peripheral.
 171:Libraries/STM32F10x_StdPeriph_Driver/src/stm32f10x_gpio.c ****   * @retval None
 172:Libraries/STM32F10x_StdPeriph_Driver/src/stm32f10x_gpio.c ****   */
 173:Libraries/STM32F10x_StdPeriph_Driver/src/stm32f10x_gpio.c **** void GPIO_Init(GPIO_TypeDef* GPIOx, GPIO_InitTypeDef* GPIO_InitStruct)
 174:Libraries/STM32F10x_StdPeriph_Driver/src/stm32f10x_gpio.c **** {
 274              		.loc 1 174 0
 275              		.cfi_startproc
 276              		@ args = 0, pretend = 0, frame = 0
 277              		@ frame_needed = 0, uses_anonymous_args = 0
 278              	.LVL24:
 175:Libraries/STM32F10x_StdPeriph_Driver/src/stm32f10x_gpio.c ****   uint32_t currentmode = 0x00, currentpin = 0x00, pinpos = 0x00, pos = 0x00;
 176:Libraries/STM32F10x_StdPeriph_Driver/src/stm32f10x_gpio.c ****   uint32_t tmpreg = 0x00, pinmask = 0x00;
ARM GAS  /var/folders/lp/0dm50ddn51vc39svyzv_6fp00000gn/T//cc0MZB2B.s 			page 9


 177:Libraries/STM32F10x_StdPeriph_Driver/src/stm32f10x_gpio.c ****   /* Check the parameters */
 178:Libraries/STM32F10x_StdPeriph_Driver/src/stm32f10x_gpio.c ****   assert_param(IS_GPIO_ALL_PERIPH(GPIOx));
 179:Libraries/STM32F10x_StdPeriph_Driver/src/stm32f10x_gpio.c ****   assert_param(IS_GPIO_MODE(GPIO_InitStruct->GPIO_Mode));
 180:Libraries/STM32F10x_StdPeriph_Driver/src/stm32f10x_gpio.c ****   assert_param(IS_GPIO_PIN(GPIO_InitStruct->GPIO_Pin));  
 181:Libraries/STM32F10x_StdPeriph_Driver/src/stm32f10x_gpio.c ****   
 182:Libraries/STM32F10x_StdPeriph_Driver/src/stm32f10x_gpio.c **** /*---------------------------- GPIO Mode Configuration -----------------------*/
 183:Libraries/STM32F10x_StdPeriph_Driver/src/stm32f10x_gpio.c ****   currentmode = ((uint32_t)GPIO_InitStruct->GPIO_Mode) & ((uint32_t)0x0F);
 279              		.loc 1 183 0
 280 00ce CA78     		ldrb	r2, [r1, #3]	@ zero_extendqisi2	@ D.6820, GPIO_InitStruct_20(D)->GPIO_Mode
 174:Libraries/STM32F10x_StdPeriph_Driver/src/stm32f10x_gpio.c ****   uint32_t currentmode = 0x00, currentpin = 0x00, pinpos = 0x00, pos = 0x00;
 281              		.loc 1 174 0
 282 00d0 2DE9F041 		push	{r4, r5, r6, r7, r8, lr}	@
 283              	.LCFI5:
 284              		.cfi_def_cfa_offset 24
 285              		.cfi_offset 4, -24
 286              		.cfi_offset 5, -20
 287              		.cfi_offset 6, -16
 288              		.cfi_offset 7, -12
 289              		.cfi_offset 8, -8
 290              		.cfi_offset 14, -4
 184:Libraries/STM32F10x_StdPeriph_Driver/src/stm32f10x_gpio.c ****   if ((((uint32_t)GPIO_InitStruct->GPIO_Mode) & ((uint32_t)0x10)) != 0x00)
 291              		.loc 1 184 0
 292 00d4 D406     		lsls	r4, r2, #27	@, D.6820,
 185:Libraries/STM32F10x_StdPeriph_Driver/src/stm32f10x_gpio.c ****   { 
 186:Libraries/STM32F10x_StdPeriph_Driver/src/stm32f10x_gpio.c ****     /* Check the parameters */
 187:Libraries/STM32F10x_StdPeriph_Driver/src/stm32f10x_gpio.c ****     assert_param(IS_GPIO_SPEED(GPIO_InitStruct->GPIO_Speed));
 188:Libraries/STM32F10x_StdPeriph_Driver/src/stm32f10x_gpio.c ****     /* Output mode */
 189:Libraries/STM32F10x_StdPeriph_Driver/src/stm32f10x_gpio.c ****     currentmode |= (uint32_t)GPIO_InitStruct->GPIO_Speed;
 293              		.loc 1 189 0
 294 00d6 48BF     		it	mi
 295 00d8 8C78     		ldrbmi	r4, [r1, #2]	@ zero_extendqisi2	@ GPIO_InitStruct_20(D)->GPIO_Speed, GPIO_InitStruct_20(D)-
 190:Libraries/STM32F10x_StdPeriph_Driver/src/stm32f10x_gpio.c ****   }
 191:Libraries/STM32F10x_StdPeriph_Driver/src/stm32f10x_gpio.c **** /*---------------------------- GPIO CRL Configuration ------------------------*/
 192:Libraries/STM32F10x_StdPeriph_Driver/src/stm32f10x_gpio.c ****   /* Configure the eight low port pins */
 193:Libraries/STM32F10x_StdPeriph_Driver/src/stm32f10x_gpio.c ****   if (((uint32_t)GPIO_InitStruct->GPIO_Pin & ((uint32_t)0x00FF)) != 0x00)
 296              		.loc 1 193 0
 297 00da 0E88     		ldrh	r6, [r1]	@ D.6821, GPIO_InitStruct_20(D)->GPIO_Pin
 298 00dc 02F00F03 		and	r3, r2, #15	@ D.6820, D.6820,
 299              	.LVL25:
 189:Libraries/STM32F10x_StdPeriph_Driver/src/stm32f10x_gpio.c ****   }
 300              		.loc 1 189 0
 301 00e0 48BF     		it	mi
 302 00e2 2343     		orrmi	r3, r3, r4	@ currentmode, D.6820, GPIO_InitStruct_20(D)->GPIO_Speed
 303              	.LVL26:
 304              		.loc 1 193 0
 305 00e4 16F0FF0F 		tst	r6, #255	@ D.6821
 306 00e8 1ED0     		beq	.L17	@,
 194:Libraries/STM32F10x_StdPeriph_Driver/src/stm32f10x_gpio.c ****   {
 195:Libraries/STM32F10x_StdPeriph_Driver/src/stm32f10x_gpio.c ****     tmpreg = GPIOx->CRL;
 307              		.loc 1 195 0
 308 00ea 0168     		ldr	r1, [r0]	@ tmpreg, GPIOx_27(D)->CRL
 309              	.LVL27:
 196:Libraries/STM32F10x_StdPeriph_Driver/src/stm32f10x_gpio.c ****     for (pinpos = 0x00; pinpos < 0x08; pinpos++)
 310              		.loc 1 196 0
 311 00ec 0024     		movs	r4, #0	@ pinpos,
 197:Libraries/STM32F10x_StdPeriph_Driver/src/stm32f10x_gpio.c ****     {
 198:Libraries/STM32F10x_StdPeriph_Driver/src/stm32f10x_gpio.c ****       pos = ((uint32_t)0x01) << pinpos;
ARM GAS  /var/folders/lp/0dm50ddn51vc39svyzv_6fp00000gn/T//cc0MZB2B.s 			page 10


 312              		.loc 1 198 0
 313 00ee 4FF0010E 		mov	lr, #1	@ tmp166,
 199:Libraries/STM32F10x_StdPeriph_Driver/src/stm32f10x_gpio.c ****       /* Get the port pins position */
 200:Libraries/STM32F10x_StdPeriph_Driver/src/stm32f10x_gpio.c ****       currentpin = (GPIO_InitStruct->GPIO_Pin) & pos;
 201:Libraries/STM32F10x_StdPeriph_Driver/src/stm32f10x_gpio.c ****       if (currentpin == pos)
 202:Libraries/STM32F10x_StdPeriph_Driver/src/stm32f10x_gpio.c ****       {
 203:Libraries/STM32F10x_StdPeriph_Driver/src/stm32f10x_gpio.c ****         pos = pinpos << 2;
 204:Libraries/STM32F10x_StdPeriph_Driver/src/stm32f10x_gpio.c ****         /* Clear the corresponding low control register bits */
 205:Libraries/STM32F10x_StdPeriph_Driver/src/stm32f10x_gpio.c ****         pinmask = ((uint32_t)0x0F) << pos;
 206:Libraries/STM32F10x_StdPeriph_Driver/src/stm32f10x_gpio.c ****         tmpreg &= ~pinmask;
 314              		.loc 1 206 0
 315 00f2 4FF00F0C 		mov	ip, #15	@ tmp167,
 316              	.LVL28:
 317              	.L20:
 198:Libraries/STM32F10x_StdPeriph_Driver/src/stm32f10x_gpio.c ****       /* Get the port pins position */
 318              		.loc 1 198 0
 319 00f6 0EFA04F7 		lsl	r7, lr, r4	@ pos, tmp166, pinpos
 320              	.LVL29:
 201:Libraries/STM32F10x_StdPeriph_Driver/src/stm32f10x_gpio.c ****       {
 321              		.loc 1 201 0
 322 00fa 37EA0605 		bics	r5, r7, r6	@ tmp170, pos, D.6821
 323 00fe 0FD1     		bne	.L18	@,
 203:Libraries/STM32F10x_StdPeriph_Driver/src/stm32f10x_gpio.c ****         /* Clear the corresponding low control register bits */
 324              		.loc 1 203 0
 325 0100 A500     		lsls	r5, r4, #2	@ pos, pinpos,
 326              	.LVL30:
 327              		.loc 1 206 0
 328 0102 0CFA05F8 		lsl	r8, ip, r5	@ pinmask, tmp167, pos
 329 0106 21EA0801 		bic	r1, r1, r8	@ tmpreg, tmpreg, pinmask
 330              	.LVL31:
 207:Libraries/STM32F10x_StdPeriph_Driver/src/stm32f10x_gpio.c ****         /* Write the mode configuration in the corresponding bits */
 208:Libraries/STM32F10x_StdPeriph_Driver/src/stm32f10x_gpio.c ****         tmpreg |= (currentmode << pos);
 331              		.loc 1 208 0
 332 010a 03FA05F5 		lsl	r5, r3, r5	@ D.6819, currentmode, pos
 333              	.LVL32:
 209:Libraries/STM32F10x_StdPeriph_Driver/src/stm32f10x_gpio.c ****         /* Reset the corresponding ODR bit */
 210:Libraries/STM32F10x_StdPeriph_Driver/src/stm32f10x_gpio.c ****         if (GPIO_InitStruct->GPIO_Mode == GPIO_Mode_IPD)
 334              		.loc 1 210 0
 335 010e 282A     		cmp	r2, #40	@ D.6820,
 208:Libraries/STM32F10x_StdPeriph_Driver/src/stm32f10x_gpio.c ****         /* Reset the corresponding ODR bit */
 336              		.loc 1 208 0
 337 0110 41EA0501 		orr	r1, r1, r5	@ tmpreg, tmpreg, D.6819
 338              	.LVL33:
 339              		.loc 1 210 0
 340 0114 01D1     		bne	.L19	@,
 211:Libraries/STM32F10x_StdPeriph_Driver/src/stm32f10x_gpio.c ****         {
 212:Libraries/STM32F10x_StdPeriph_Driver/src/stm32f10x_gpio.c ****           GPIOx->BRR = (((uint32_t)0x01) << pinpos);
 341              		.loc 1 212 0
 342 0116 4761     		str	r7, [r0, #20]	@ pos, GPIOx_27(D)->BRR
 343 0118 02E0     		b	.L18	@
 344              	.L19:
 213:Libraries/STM32F10x_StdPeriph_Driver/src/stm32f10x_gpio.c ****         }
 214:Libraries/STM32F10x_StdPeriph_Driver/src/stm32f10x_gpio.c ****         else
 215:Libraries/STM32F10x_StdPeriph_Driver/src/stm32f10x_gpio.c ****         {
 216:Libraries/STM32F10x_StdPeriph_Driver/src/stm32f10x_gpio.c ****           /* Set the corresponding ODR bit */
 217:Libraries/STM32F10x_StdPeriph_Driver/src/stm32f10x_gpio.c ****           if (GPIO_InitStruct->GPIO_Mode == GPIO_Mode_IPU)
 345              		.loc 1 217 0
ARM GAS  /var/folders/lp/0dm50ddn51vc39svyzv_6fp00000gn/T//cc0MZB2B.s 			page 11


 346 011a 482A     		cmp	r2, #72	@ D.6820,
 218:Libraries/STM32F10x_StdPeriph_Driver/src/stm32f10x_gpio.c ****           {
 219:Libraries/STM32F10x_StdPeriph_Driver/src/stm32f10x_gpio.c ****             GPIOx->BSRR = (((uint32_t)0x01) << pinpos);
 347              		.loc 1 219 0
 348 011c 08BF     		it	eq
 349 011e 0761     		streq	r7, [r0, #16]	@ pos, GPIOx_27(D)->BSRR
 350              	.LVL34:
 351              	.L18:
 196:Libraries/STM32F10x_StdPeriph_Driver/src/stm32f10x_gpio.c ****     {
 352              		.loc 1 196 0 discriminator 2
 353 0120 0134     		adds	r4, r4, #1	@ pinpos, pinpos,
 354              	.LVL35:
 355 0122 082C     		cmp	r4, #8	@ pinpos,
 356 0124 E7D1     		bne	.L20	@,
 220:Libraries/STM32F10x_StdPeriph_Driver/src/stm32f10x_gpio.c ****           }
 221:Libraries/STM32F10x_StdPeriph_Driver/src/stm32f10x_gpio.c ****         }
 222:Libraries/STM32F10x_StdPeriph_Driver/src/stm32f10x_gpio.c ****       }
 223:Libraries/STM32F10x_StdPeriph_Driver/src/stm32f10x_gpio.c ****     }
 224:Libraries/STM32F10x_StdPeriph_Driver/src/stm32f10x_gpio.c ****     GPIOx->CRL = tmpreg;
 357              		.loc 1 224 0
 358 0126 0160     		str	r1, [r0]	@ tmpreg, GPIOx_27(D)->CRL
 359              	.LVL36:
 360              	.L17:
 225:Libraries/STM32F10x_StdPeriph_Driver/src/stm32f10x_gpio.c ****   }
 226:Libraries/STM32F10x_StdPeriph_Driver/src/stm32f10x_gpio.c **** /*---------------------------- GPIO CRH Configuration ------------------------*/
 227:Libraries/STM32F10x_StdPeriph_Driver/src/stm32f10x_gpio.c ****   /* Configure the eight high port pins */
 228:Libraries/STM32F10x_StdPeriph_Driver/src/stm32f10x_gpio.c ****   if (GPIO_InitStruct->GPIO_Pin > 0x00FF)
 361              		.loc 1 228 0
 362 0128 FF2E     		cmp	r6, #255	@ D.6821,
 363 012a 20D9     		bls	.L14	@,
 229:Libraries/STM32F10x_StdPeriph_Driver/src/stm32f10x_gpio.c ****   {
 230:Libraries/STM32F10x_StdPeriph_Driver/src/stm32f10x_gpio.c ****     tmpreg = GPIOx->CRH;
 364              		.loc 1 230 0
 365 012c 4168     		ldr	r1, [r0, #4]	@ tmpreg, GPIOx_27(D)->CRH
 366              	.LVL37:
 231:Libraries/STM32F10x_StdPeriph_Driver/src/stm32f10x_gpio.c ****     for (pinpos = 0x00; pinpos < 0x08; pinpos++)
 367              		.loc 1 231 0
 368 012e 0024     		movs	r4, #0	@ pinpos,
 232:Libraries/STM32F10x_StdPeriph_Driver/src/stm32f10x_gpio.c ****     {
 233:Libraries/STM32F10x_StdPeriph_Driver/src/stm32f10x_gpio.c ****       pos = (((uint32_t)0x01) << (pinpos + 0x08));
 369              		.loc 1 233 0
 370 0130 4FF0010E 		mov	lr, #1	@ tmp164,
 234:Libraries/STM32F10x_StdPeriph_Driver/src/stm32f10x_gpio.c ****       /* Get the port pins position */
 235:Libraries/STM32F10x_StdPeriph_Driver/src/stm32f10x_gpio.c ****       currentpin = ((GPIO_InitStruct->GPIO_Pin) & pos);
 236:Libraries/STM32F10x_StdPeriph_Driver/src/stm32f10x_gpio.c ****       if (currentpin == pos)
 237:Libraries/STM32F10x_StdPeriph_Driver/src/stm32f10x_gpio.c ****       {
 238:Libraries/STM32F10x_StdPeriph_Driver/src/stm32f10x_gpio.c ****         pos = pinpos << 2;
 239:Libraries/STM32F10x_StdPeriph_Driver/src/stm32f10x_gpio.c ****         /* Clear the corresponding high control register bits */
 240:Libraries/STM32F10x_StdPeriph_Driver/src/stm32f10x_gpio.c ****         pinmask = ((uint32_t)0x0F) << pos;
 241:Libraries/STM32F10x_StdPeriph_Driver/src/stm32f10x_gpio.c ****         tmpreg &= ~pinmask;
 371              		.loc 1 241 0
 372 0134 4FF00F0C 		mov	ip, #15	@ tmp165,
 373              	.LVL38:
 374              	.L24:
 233:Libraries/STM32F10x_StdPeriph_Driver/src/stm32f10x_gpio.c ****       /* Get the port pins position */
 375              		.loc 1 233 0
 376 0138 04F10805 		add	r5, r4, #8	@ D.6819, pinpos,
ARM GAS  /var/folders/lp/0dm50ddn51vc39svyzv_6fp00000gn/T//cc0MZB2B.s 			page 12


 377 013c 0EFA05F5 		lsl	r5, lr, r5	@ pos, tmp164, D.6819
 378              	.LVL39:
 236:Libraries/STM32F10x_StdPeriph_Driver/src/stm32f10x_gpio.c ****       {
 379              		.loc 1 236 0
 380 0140 35EA0607 		bics	r7, r5, r6	@ tmp171, pos, D.6821
 381 0144 0FD1     		bne	.L22	@,
 238:Libraries/STM32F10x_StdPeriph_Driver/src/stm32f10x_gpio.c ****         /* Clear the corresponding high control register bits */
 382              		.loc 1 238 0
 383 0146 A700     		lsls	r7, r4, #2	@ pos, pinpos,
 384              	.LVL40:
 385              		.loc 1 241 0
 386 0148 0CFA07F8 		lsl	r8, ip, r7	@ pinmask, tmp165, pos
 387 014c 21EA0801 		bic	r1, r1, r8	@ tmpreg, tmpreg, pinmask
 388              	.LVL41:
 242:Libraries/STM32F10x_StdPeriph_Driver/src/stm32f10x_gpio.c ****         /* Write the mode configuration in the corresponding bits */
 243:Libraries/STM32F10x_StdPeriph_Driver/src/stm32f10x_gpio.c ****         tmpreg |= (currentmode << pos);
 389              		.loc 1 243 0
 390 0150 03FA07F7 		lsl	r7, r3, r7	@ D.6819, currentmode, pos
 391              	.LVL42:
 244:Libraries/STM32F10x_StdPeriph_Driver/src/stm32f10x_gpio.c ****         /* Reset the corresponding ODR bit */
 245:Libraries/STM32F10x_StdPeriph_Driver/src/stm32f10x_gpio.c ****         if (GPIO_InitStruct->GPIO_Mode == GPIO_Mode_IPD)
 392              		.loc 1 245 0
 393 0154 282A     		cmp	r2, #40	@ D.6820,
 243:Libraries/STM32F10x_StdPeriph_Driver/src/stm32f10x_gpio.c ****         /* Reset the corresponding ODR bit */
 394              		.loc 1 243 0
 395 0156 41EA0701 		orr	r1, r1, r7	@ tmpreg, tmpreg, D.6819
 396              	.LVL43:
 397              		.loc 1 245 0
 398 015a 01D1     		bne	.L23	@,
 246:Libraries/STM32F10x_StdPeriph_Driver/src/stm32f10x_gpio.c ****         {
 247:Libraries/STM32F10x_StdPeriph_Driver/src/stm32f10x_gpio.c ****           GPIOx->BRR = (((uint32_t)0x01) << (pinpos + 0x08));
 399              		.loc 1 247 0
 400 015c 4561     		str	r5, [r0, #20]	@ pos, GPIOx_27(D)->BRR
 401 015e 02E0     		b	.L22	@
 402              	.L23:
 248:Libraries/STM32F10x_StdPeriph_Driver/src/stm32f10x_gpio.c ****         }
 249:Libraries/STM32F10x_StdPeriph_Driver/src/stm32f10x_gpio.c ****         /* Set the corresponding ODR bit */
 250:Libraries/STM32F10x_StdPeriph_Driver/src/stm32f10x_gpio.c ****         if (GPIO_InitStruct->GPIO_Mode == GPIO_Mode_IPU)
 403              		.loc 1 250 0
 404 0160 482A     		cmp	r2, #72	@ D.6820,
 251:Libraries/STM32F10x_StdPeriph_Driver/src/stm32f10x_gpio.c ****         {
 252:Libraries/STM32F10x_StdPeriph_Driver/src/stm32f10x_gpio.c ****           GPIOx->BSRR = (((uint32_t)0x01) << (pinpos + 0x08));
 405              		.loc 1 252 0
 406 0162 08BF     		it	eq
 407 0164 0561     		streq	r5, [r0, #16]	@ pos, GPIOx_27(D)->BSRR
 408              	.LVL44:
 409              	.L22:
 231:Libraries/STM32F10x_StdPeriph_Driver/src/stm32f10x_gpio.c ****     {
 410              		.loc 1 231 0 discriminator 2
 411 0166 0134     		adds	r4, r4, #1	@ pinpos, pinpos,
 412              	.LVL45:
 413 0168 082C     		cmp	r4, #8	@ pinpos,
 414 016a E5D1     		bne	.L24	@,
 253:Libraries/STM32F10x_StdPeriph_Driver/src/stm32f10x_gpio.c ****         }
 254:Libraries/STM32F10x_StdPeriph_Driver/src/stm32f10x_gpio.c ****       }
 255:Libraries/STM32F10x_StdPeriph_Driver/src/stm32f10x_gpio.c ****     }
 256:Libraries/STM32F10x_StdPeriph_Driver/src/stm32f10x_gpio.c ****     GPIOx->CRH = tmpreg;
ARM GAS  /var/folders/lp/0dm50ddn51vc39svyzv_6fp00000gn/T//cc0MZB2B.s 			page 13


 415              		.loc 1 256 0
 416 016c 4160     		str	r1, [r0, #4]	@ tmpreg, GPIOx_27(D)->CRH
 417              	.LVL46:
 418              	.L14:
 419 016e BDE8F081 		pop	{r4, r5, r6, r7, r8, pc}	@
 420              		.cfi_endproc
 421              	.LFE31:
 422              		.size	GPIO_Init, .-GPIO_Init
 423              		.align	1
 424              		.global	GPIO_StructInit
 425              		.thumb
 426              		.thumb_func
 427              		.type	GPIO_StructInit, %function
 428              	GPIO_StructInit:
 429              	.LFB32:
 257:Libraries/STM32F10x_StdPeriph_Driver/src/stm32f10x_gpio.c ****   }
 258:Libraries/STM32F10x_StdPeriph_Driver/src/stm32f10x_gpio.c **** }
 259:Libraries/STM32F10x_StdPeriph_Driver/src/stm32f10x_gpio.c **** 
 260:Libraries/STM32F10x_StdPeriph_Driver/src/stm32f10x_gpio.c **** /**
 261:Libraries/STM32F10x_StdPeriph_Driver/src/stm32f10x_gpio.c ****   * @brief  Fills each GPIO_InitStruct member with its default value.
 262:Libraries/STM32F10x_StdPeriph_Driver/src/stm32f10x_gpio.c ****   * @param  GPIO_InitStruct : pointer to a GPIO_InitTypeDef structure which will
 263:Libraries/STM32F10x_StdPeriph_Driver/src/stm32f10x_gpio.c ****   *         be initialized.
 264:Libraries/STM32F10x_StdPeriph_Driver/src/stm32f10x_gpio.c ****   * @retval None
 265:Libraries/STM32F10x_StdPeriph_Driver/src/stm32f10x_gpio.c ****   */
 266:Libraries/STM32F10x_StdPeriph_Driver/src/stm32f10x_gpio.c **** void GPIO_StructInit(GPIO_InitTypeDef* GPIO_InitStruct)
 267:Libraries/STM32F10x_StdPeriph_Driver/src/stm32f10x_gpio.c **** {
 430              		.loc 1 267 0
 431              		.cfi_startproc
 432              		@ args = 0, pretend = 0, frame = 0
 433              		@ frame_needed = 0, uses_anonymous_args = 0
 434              		@ link register save eliminated.
 435              	.LVL47:
 268:Libraries/STM32F10x_StdPeriph_Driver/src/stm32f10x_gpio.c ****   /* Reset GPIO init structure parameters values */
 269:Libraries/STM32F10x_StdPeriph_Driver/src/stm32f10x_gpio.c ****   GPIO_InitStruct->GPIO_Pin  = GPIO_Pin_All;
 436              		.loc 1 269 0
 437 0172 4FF6FF73 		movw	r3, #65535	@ tmp112,
 438 0176 0380     		strh	r3, [r0]	@ movhi	@ tmp112, GPIO_InitStruct_2(D)->GPIO_Pin
 270:Libraries/STM32F10x_StdPeriph_Driver/src/stm32f10x_gpio.c ****   GPIO_InitStruct->GPIO_Speed = GPIO_Speed_2MHz;
 439              		.loc 1 270 0
 440 0178 0223     		movs	r3, #2	@ tmp113,
 441 017a 8370     		strb	r3, [r0, #2]	@ tmp113, GPIO_InitStruct_2(D)->GPIO_Speed
 271:Libraries/STM32F10x_StdPeriph_Driver/src/stm32f10x_gpio.c ****   GPIO_InitStruct->GPIO_Mode = GPIO_Mode_IN_FLOATING;
 442              		.loc 1 271 0
 443 017c 0423     		movs	r3, #4	@ tmp115,
 444 017e C370     		strb	r3, [r0, #3]	@ tmp115, GPIO_InitStruct_2(D)->GPIO_Mode
 445 0180 7047     		bx	lr	@
 446              		.cfi_endproc
 447              	.LFE32:
 448              		.size	GPIO_StructInit, .-GPIO_StructInit
 449              		.align	1
 450              		.global	GPIO_ReadInputDataBit
 451              		.thumb
 452              		.thumb_func
 453              		.type	GPIO_ReadInputDataBit, %function
 454              	GPIO_ReadInputDataBit:
 455              	.LFB33:
 272:Libraries/STM32F10x_StdPeriph_Driver/src/stm32f10x_gpio.c **** }
ARM GAS  /var/folders/lp/0dm50ddn51vc39svyzv_6fp00000gn/T//cc0MZB2B.s 			page 14


 273:Libraries/STM32F10x_StdPeriph_Driver/src/stm32f10x_gpio.c **** 
 274:Libraries/STM32F10x_StdPeriph_Driver/src/stm32f10x_gpio.c **** /**
 275:Libraries/STM32F10x_StdPeriph_Driver/src/stm32f10x_gpio.c ****   * @brief  Reads the specified input port pin.
 276:Libraries/STM32F10x_StdPeriph_Driver/src/stm32f10x_gpio.c ****   * @param  GPIOx: where x can be (A..G) to select the GPIO peripheral.
 277:Libraries/STM32F10x_StdPeriph_Driver/src/stm32f10x_gpio.c ****   * @param  GPIO_Pin:  specifies the port bit to read.
 278:Libraries/STM32F10x_StdPeriph_Driver/src/stm32f10x_gpio.c ****   *   This parameter can be GPIO_Pin_x where x can be (0..15).
 279:Libraries/STM32F10x_StdPeriph_Driver/src/stm32f10x_gpio.c ****   * @retval The input port pin value.
 280:Libraries/STM32F10x_StdPeriph_Driver/src/stm32f10x_gpio.c ****   */
 281:Libraries/STM32F10x_StdPeriph_Driver/src/stm32f10x_gpio.c **** uint8_t GPIO_ReadInputDataBit(GPIO_TypeDef* GPIOx, uint16_t GPIO_Pin)
 282:Libraries/STM32F10x_StdPeriph_Driver/src/stm32f10x_gpio.c **** {
 456              		.loc 1 282 0
 457              		.cfi_startproc
 458              		@ args = 0, pretend = 0, frame = 0
 459              		@ frame_needed = 0, uses_anonymous_args = 0
 460              		@ link register save eliminated.
 461              	.LVL48:
 283:Libraries/STM32F10x_StdPeriph_Driver/src/stm32f10x_gpio.c ****   uint8_t bitstatus = 0x00;
 284:Libraries/STM32F10x_StdPeriph_Driver/src/stm32f10x_gpio.c ****   
 285:Libraries/STM32F10x_StdPeriph_Driver/src/stm32f10x_gpio.c ****   /* Check the parameters */
 286:Libraries/STM32F10x_StdPeriph_Driver/src/stm32f10x_gpio.c ****   assert_param(IS_GPIO_ALL_PERIPH(GPIOx));
 287:Libraries/STM32F10x_StdPeriph_Driver/src/stm32f10x_gpio.c ****   assert_param(IS_GET_GPIO_PIN(GPIO_Pin)); 
 288:Libraries/STM32F10x_StdPeriph_Driver/src/stm32f10x_gpio.c ****   
 289:Libraries/STM32F10x_StdPeriph_Driver/src/stm32f10x_gpio.c ****   if ((GPIOx->IDR & GPIO_Pin) != (uint32_t)Bit_RESET)
 462              		.loc 1 289 0
 463 0182 8368     		ldr	r3, [r0, #8]	@ D.6827, GPIOx_3(D)->IDR
 464              	.LVL49:
 290:Libraries/STM32F10x_StdPeriph_Driver/src/stm32f10x_gpio.c ****   {
 291:Libraries/STM32F10x_StdPeriph_Driver/src/stm32f10x_gpio.c ****     bitstatus = (uint8_t)Bit_SET;
 292:Libraries/STM32F10x_StdPeriph_Driver/src/stm32f10x_gpio.c ****   }
 293:Libraries/STM32F10x_StdPeriph_Driver/src/stm32f10x_gpio.c ****   else
 294:Libraries/STM32F10x_StdPeriph_Driver/src/stm32f10x_gpio.c ****   {
 295:Libraries/STM32F10x_StdPeriph_Driver/src/stm32f10x_gpio.c ****     bitstatus = (uint8_t)Bit_RESET;
 296:Libraries/STM32F10x_StdPeriph_Driver/src/stm32f10x_gpio.c ****   }
 297:Libraries/STM32F10x_StdPeriph_Driver/src/stm32f10x_gpio.c ****   return bitstatus;
 465              		.loc 1 297 0
 466 0184 1942     		tst	r1, r3	@ GPIO_Pin, D.6827
 298:Libraries/STM32F10x_StdPeriph_Driver/src/stm32f10x_gpio.c **** }
 467              		.loc 1 298 0
 468 0186 14BF     		ite	ne
 469 0188 0120     		movne	r0, #1	@,
 470              	.LVL50:
 471 018a 0020     		moveq	r0, #0	@,
 472 018c 7047     		bx	lr	@
 473              		.cfi_endproc
 474              	.LFE33:
 475              		.size	GPIO_ReadInputDataBit, .-GPIO_ReadInputDataBit
 476              		.align	1
 477              		.global	GPIO_ReadInputData
 478              		.thumb
 479              		.thumb_func
 480              		.type	GPIO_ReadInputData, %function
 481              	GPIO_ReadInputData:
 482              	.LFB34:
 299:Libraries/STM32F10x_StdPeriph_Driver/src/stm32f10x_gpio.c **** 
 300:Libraries/STM32F10x_StdPeriph_Driver/src/stm32f10x_gpio.c **** /**
 301:Libraries/STM32F10x_StdPeriph_Driver/src/stm32f10x_gpio.c ****   * @brief  Reads the specified GPIO input data port.
 302:Libraries/STM32F10x_StdPeriph_Driver/src/stm32f10x_gpio.c ****   * @param  GPIOx: where x can be (A..G) to select the GPIO peripheral.
ARM GAS  /var/folders/lp/0dm50ddn51vc39svyzv_6fp00000gn/T//cc0MZB2B.s 			page 15


 303:Libraries/STM32F10x_StdPeriph_Driver/src/stm32f10x_gpio.c ****   * @retval GPIO input data port value.
 304:Libraries/STM32F10x_StdPeriph_Driver/src/stm32f10x_gpio.c ****   */
 305:Libraries/STM32F10x_StdPeriph_Driver/src/stm32f10x_gpio.c **** uint16_t GPIO_ReadInputData(GPIO_TypeDef* GPIOx)
 306:Libraries/STM32F10x_StdPeriph_Driver/src/stm32f10x_gpio.c **** {
 483              		.loc 1 306 0
 484              		.cfi_startproc
 485              		@ args = 0, pretend = 0, frame = 0
 486              		@ frame_needed = 0, uses_anonymous_args = 0
 487              		@ link register save eliminated.
 488              	.LVL51:
 307:Libraries/STM32F10x_StdPeriph_Driver/src/stm32f10x_gpio.c ****   /* Check the parameters */
 308:Libraries/STM32F10x_StdPeriph_Driver/src/stm32f10x_gpio.c ****   assert_param(IS_GPIO_ALL_PERIPH(GPIOx));
 309:Libraries/STM32F10x_StdPeriph_Driver/src/stm32f10x_gpio.c ****   
 310:Libraries/STM32F10x_StdPeriph_Driver/src/stm32f10x_gpio.c ****   return ((uint16_t)GPIOx->IDR);
 489              		.loc 1 310 0
 490 018e 8068     		ldr	r0, [r0, #8]	@ D.6832, GPIOx_2(D)->IDR
 491              	.LVL52:
 311:Libraries/STM32F10x_StdPeriph_Driver/src/stm32f10x_gpio.c **** }
 492              		.loc 1 311 0
 493 0190 80B2     		uxth	r0, r0	@, D.6832
 494 0192 7047     		bx	lr	@
 495              		.cfi_endproc
 496              	.LFE34:
 497              		.size	GPIO_ReadInputData, .-GPIO_ReadInputData
 498              		.align	1
 499              		.global	GPIO_ReadOutputDataBit
 500              		.thumb
 501              		.thumb_func
 502              		.type	GPIO_ReadOutputDataBit, %function
 503              	GPIO_ReadOutputDataBit:
 504              	.LFB35:
 312:Libraries/STM32F10x_StdPeriph_Driver/src/stm32f10x_gpio.c **** 
 313:Libraries/STM32F10x_StdPeriph_Driver/src/stm32f10x_gpio.c **** /**
 314:Libraries/STM32F10x_StdPeriph_Driver/src/stm32f10x_gpio.c ****   * @brief  Reads the specified output data port bit.
 315:Libraries/STM32F10x_StdPeriph_Driver/src/stm32f10x_gpio.c ****   * @param  GPIOx: where x can be (A..G) to select the GPIO peripheral.
 316:Libraries/STM32F10x_StdPeriph_Driver/src/stm32f10x_gpio.c ****   * @param  GPIO_Pin:  specifies the port bit to read.
 317:Libraries/STM32F10x_StdPeriph_Driver/src/stm32f10x_gpio.c ****   *   This parameter can be GPIO_Pin_x where x can be (0..15).
 318:Libraries/STM32F10x_StdPeriph_Driver/src/stm32f10x_gpio.c ****   * @retval The output port pin value.
 319:Libraries/STM32F10x_StdPeriph_Driver/src/stm32f10x_gpio.c ****   */
 320:Libraries/STM32F10x_StdPeriph_Driver/src/stm32f10x_gpio.c **** uint8_t GPIO_ReadOutputDataBit(GPIO_TypeDef* GPIOx, uint16_t GPIO_Pin)
 321:Libraries/STM32F10x_StdPeriph_Driver/src/stm32f10x_gpio.c **** {
 505              		.loc 1 321 0
 506              		.cfi_startproc
 507              		@ args = 0, pretend = 0, frame = 0
 508              		@ frame_needed = 0, uses_anonymous_args = 0
 509              		@ link register save eliminated.
 510              	.LVL53:
 322:Libraries/STM32F10x_StdPeriph_Driver/src/stm32f10x_gpio.c ****   uint8_t bitstatus = 0x00;
 323:Libraries/STM32F10x_StdPeriph_Driver/src/stm32f10x_gpio.c ****   /* Check the parameters */
 324:Libraries/STM32F10x_StdPeriph_Driver/src/stm32f10x_gpio.c ****   assert_param(IS_GPIO_ALL_PERIPH(GPIOx));
 325:Libraries/STM32F10x_StdPeriph_Driver/src/stm32f10x_gpio.c ****   assert_param(IS_GET_GPIO_PIN(GPIO_Pin)); 
 326:Libraries/STM32F10x_StdPeriph_Driver/src/stm32f10x_gpio.c ****   
 327:Libraries/STM32F10x_StdPeriph_Driver/src/stm32f10x_gpio.c ****   if ((GPIOx->ODR & GPIO_Pin) != (uint32_t)Bit_RESET)
 511              		.loc 1 327 0
 512 0194 C368     		ldr	r3, [r0, #12]	@ D.6836, GPIOx_3(D)->ODR
 513              	.LVL54:
 328:Libraries/STM32F10x_StdPeriph_Driver/src/stm32f10x_gpio.c ****   {
ARM GAS  /var/folders/lp/0dm50ddn51vc39svyzv_6fp00000gn/T//cc0MZB2B.s 			page 16


 329:Libraries/STM32F10x_StdPeriph_Driver/src/stm32f10x_gpio.c ****     bitstatus = (uint8_t)Bit_SET;
 330:Libraries/STM32F10x_StdPeriph_Driver/src/stm32f10x_gpio.c ****   }
 331:Libraries/STM32F10x_StdPeriph_Driver/src/stm32f10x_gpio.c ****   else
 332:Libraries/STM32F10x_StdPeriph_Driver/src/stm32f10x_gpio.c ****   {
 333:Libraries/STM32F10x_StdPeriph_Driver/src/stm32f10x_gpio.c ****     bitstatus = (uint8_t)Bit_RESET;
 334:Libraries/STM32F10x_StdPeriph_Driver/src/stm32f10x_gpio.c ****   }
 335:Libraries/STM32F10x_StdPeriph_Driver/src/stm32f10x_gpio.c ****   return bitstatus;
 514              		.loc 1 335 0
 515 0196 1942     		tst	r1, r3	@ GPIO_Pin, D.6836
 336:Libraries/STM32F10x_StdPeriph_Driver/src/stm32f10x_gpio.c **** }
 516              		.loc 1 336 0
 517 0198 14BF     		ite	ne
 518 019a 0120     		movne	r0, #1	@,
 519              	.LVL55:
 520 019c 0020     		moveq	r0, #0	@,
 521 019e 7047     		bx	lr	@
 522              		.cfi_endproc
 523              	.LFE35:
 524              		.size	GPIO_ReadOutputDataBit, .-GPIO_ReadOutputDataBit
 525              		.align	1
 526              		.global	GPIO_ReadOutputData
 527              		.thumb
 528              		.thumb_func
 529              		.type	GPIO_ReadOutputData, %function
 530              	GPIO_ReadOutputData:
 531              	.LFB36:
 337:Libraries/STM32F10x_StdPeriph_Driver/src/stm32f10x_gpio.c **** 
 338:Libraries/STM32F10x_StdPeriph_Driver/src/stm32f10x_gpio.c **** /**
 339:Libraries/STM32F10x_StdPeriph_Driver/src/stm32f10x_gpio.c ****   * @brief  Reads the specified GPIO output data port.
 340:Libraries/STM32F10x_StdPeriph_Driver/src/stm32f10x_gpio.c ****   * @param  GPIOx: where x can be (A..G) to select the GPIO peripheral.
 341:Libraries/STM32F10x_StdPeriph_Driver/src/stm32f10x_gpio.c ****   * @retval GPIO output data port value.
 342:Libraries/STM32F10x_StdPeriph_Driver/src/stm32f10x_gpio.c ****   */
 343:Libraries/STM32F10x_StdPeriph_Driver/src/stm32f10x_gpio.c **** uint16_t GPIO_ReadOutputData(GPIO_TypeDef* GPIOx)
 344:Libraries/STM32F10x_StdPeriph_Driver/src/stm32f10x_gpio.c **** {
 532              		.loc 1 344 0
 533              		.cfi_startproc
 534              		@ args = 0, pretend = 0, frame = 0
 535              		@ frame_needed = 0, uses_anonymous_args = 0
 536              		@ link register save eliminated.
 537              	.LVL56:
 345:Libraries/STM32F10x_StdPeriph_Driver/src/stm32f10x_gpio.c ****   /* Check the parameters */
 346:Libraries/STM32F10x_StdPeriph_Driver/src/stm32f10x_gpio.c ****   assert_param(IS_GPIO_ALL_PERIPH(GPIOx));
 347:Libraries/STM32F10x_StdPeriph_Driver/src/stm32f10x_gpio.c ****     
 348:Libraries/STM32F10x_StdPeriph_Driver/src/stm32f10x_gpio.c ****   return ((uint16_t)GPIOx->ODR);
 538              		.loc 1 348 0
 539 01a0 C068     		ldr	r0, [r0, #12]	@ D.6841, GPIOx_2(D)->ODR
 540              	.LVL57:
 349:Libraries/STM32F10x_StdPeriph_Driver/src/stm32f10x_gpio.c **** }
 541              		.loc 1 349 0
 542 01a2 80B2     		uxth	r0, r0	@, D.6841
 543 01a4 7047     		bx	lr	@
 544              		.cfi_endproc
 545              	.LFE36:
 546              		.size	GPIO_ReadOutputData, .-GPIO_ReadOutputData
 547              		.align	1
 548              		.global	GPIO_SetBits
 549              		.thumb
ARM GAS  /var/folders/lp/0dm50ddn51vc39svyzv_6fp00000gn/T//cc0MZB2B.s 			page 17


 550              		.thumb_func
 551              		.type	GPIO_SetBits, %function
 552              	GPIO_SetBits:
 553              	.LFB37:
 350:Libraries/STM32F10x_StdPeriph_Driver/src/stm32f10x_gpio.c **** 
 351:Libraries/STM32F10x_StdPeriph_Driver/src/stm32f10x_gpio.c **** /**
 352:Libraries/STM32F10x_StdPeriph_Driver/src/stm32f10x_gpio.c ****   * @brief  Sets the selected data port bits.
 353:Libraries/STM32F10x_StdPeriph_Driver/src/stm32f10x_gpio.c ****   * @param  GPIOx: where x can be (A..G) to select the GPIO peripheral.
 354:Libraries/STM32F10x_StdPeriph_Driver/src/stm32f10x_gpio.c ****   * @param  GPIO_Pin: specifies the port bits to be written.
 355:Libraries/STM32F10x_StdPeriph_Driver/src/stm32f10x_gpio.c ****   *   This parameter can be any combination of GPIO_Pin_x where x can be (0..15).
 356:Libraries/STM32F10x_StdPeriph_Driver/src/stm32f10x_gpio.c ****   * @retval None
 357:Libraries/STM32F10x_StdPeriph_Driver/src/stm32f10x_gpio.c ****   */
 358:Libraries/STM32F10x_StdPeriph_Driver/src/stm32f10x_gpio.c **** void GPIO_SetBits(GPIO_TypeDef* GPIOx, uint16_t GPIO_Pin)
 359:Libraries/STM32F10x_StdPeriph_Driver/src/stm32f10x_gpio.c **** {
 554              		.loc 1 359 0
 555              		.cfi_startproc
 556              		@ args = 0, pretend = 0, frame = 0
 557              		@ frame_needed = 0, uses_anonymous_args = 0
 558              		@ link register save eliminated.
 559              	.LVL58:
 360:Libraries/STM32F10x_StdPeriph_Driver/src/stm32f10x_gpio.c ****   /* Check the parameters */
 361:Libraries/STM32F10x_StdPeriph_Driver/src/stm32f10x_gpio.c ****   assert_param(IS_GPIO_ALL_PERIPH(GPIOx));
 362:Libraries/STM32F10x_StdPeriph_Driver/src/stm32f10x_gpio.c ****   assert_param(IS_GPIO_PIN(GPIO_Pin));
 363:Libraries/STM32F10x_StdPeriph_Driver/src/stm32f10x_gpio.c ****   
 364:Libraries/STM32F10x_StdPeriph_Driver/src/stm32f10x_gpio.c ****   GPIOx->BSRR = GPIO_Pin;
 560              		.loc 1 364 0
 561 01a6 0161     		str	r1, [r0, #16]	@ GPIO_Pin, GPIOx_4(D)->BSRR
 562 01a8 7047     		bx	lr	@
 563              		.cfi_endproc
 564              	.LFE37:
 565              		.size	GPIO_SetBits, .-GPIO_SetBits
 566              		.align	1
 567              		.global	GPIO_ResetBits
 568              		.thumb
 569              		.thumb_func
 570              		.type	GPIO_ResetBits, %function
 571              	GPIO_ResetBits:
 572              	.LFB38:
 365:Libraries/STM32F10x_StdPeriph_Driver/src/stm32f10x_gpio.c **** }
 366:Libraries/STM32F10x_StdPeriph_Driver/src/stm32f10x_gpio.c **** 
 367:Libraries/STM32F10x_StdPeriph_Driver/src/stm32f10x_gpio.c **** /**
 368:Libraries/STM32F10x_StdPeriph_Driver/src/stm32f10x_gpio.c ****   * @brief  Clears the selected data port bits.
 369:Libraries/STM32F10x_StdPeriph_Driver/src/stm32f10x_gpio.c ****   * @param  GPIOx: where x can be (A..G) to select the GPIO peripheral.
 370:Libraries/STM32F10x_StdPeriph_Driver/src/stm32f10x_gpio.c ****   * @param  GPIO_Pin: specifies the port bits to be written.
 371:Libraries/STM32F10x_StdPeriph_Driver/src/stm32f10x_gpio.c ****   *   This parameter can be any combination of GPIO_Pin_x where x can be (0..15).
 372:Libraries/STM32F10x_StdPeriph_Driver/src/stm32f10x_gpio.c ****   * @retval None
 373:Libraries/STM32F10x_StdPeriph_Driver/src/stm32f10x_gpio.c ****   */
 374:Libraries/STM32F10x_StdPeriph_Driver/src/stm32f10x_gpio.c **** void GPIO_ResetBits(GPIO_TypeDef* GPIOx, uint16_t GPIO_Pin)
 375:Libraries/STM32F10x_StdPeriph_Driver/src/stm32f10x_gpio.c **** {
 573              		.loc 1 375 0
 574              		.cfi_startproc
 575              		@ args = 0, pretend = 0, frame = 0
 576              		@ frame_needed = 0, uses_anonymous_args = 0
 577              		@ link register save eliminated.
 578              	.LVL59:
 376:Libraries/STM32F10x_StdPeriph_Driver/src/stm32f10x_gpio.c ****   /* Check the parameters */
 377:Libraries/STM32F10x_StdPeriph_Driver/src/stm32f10x_gpio.c ****   assert_param(IS_GPIO_ALL_PERIPH(GPIOx));
ARM GAS  /var/folders/lp/0dm50ddn51vc39svyzv_6fp00000gn/T//cc0MZB2B.s 			page 18


 378:Libraries/STM32F10x_StdPeriph_Driver/src/stm32f10x_gpio.c ****   assert_param(IS_GPIO_PIN(GPIO_Pin));
 379:Libraries/STM32F10x_StdPeriph_Driver/src/stm32f10x_gpio.c ****   
 380:Libraries/STM32F10x_StdPeriph_Driver/src/stm32f10x_gpio.c ****   GPIOx->BRR = GPIO_Pin;
 579              		.loc 1 380 0
 580 01aa 4161     		str	r1, [r0, #20]	@ GPIO_Pin, GPIOx_4(D)->BRR
 581 01ac 7047     		bx	lr	@
 582              		.cfi_endproc
 583              	.LFE38:
 584              		.size	GPIO_ResetBits, .-GPIO_ResetBits
 585              		.align	1
 586              		.global	GPIO_WriteBit
 587              		.thumb
 588              		.thumb_func
 589              		.type	GPIO_WriteBit, %function
 590              	GPIO_WriteBit:
 591              	.LFB39:
 381:Libraries/STM32F10x_StdPeriph_Driver/src/stm32f10x_gpio.c **** }
 382:Libraries/STM32F10x_StdPeriph_Driver/src/stm32f10x_gpio.c **** 
 383:Libraries/STM32F10x_StdPeriph_Driver/src/stm32f10x_gpio.c **** /**
 384:Libraries/STM32F10x_StdPeriph_Driver/src/stm32f10x_gpio.c ****   * @brief  Sets or clears the selected data port bit.
 385:Libraries/STM32F10x_StdPeriph_Driver/src/stm32f10x_gpio.c ****   * @param  GPIOx: where x can be (A..G) to select the GPIO peripheral.
 386:Libraries/STM32F10x_StdPeriph_Driver/src/stm32f10x_gpio.c ****   * @param  GPIO_Pin: specifies the port bit to be written.
 387:Libraries/STM32F10x_StdPeriph_Driver/src/stm32f10x_gpio.c ****   *   This parameter can be one of GPIO_Pin_x where x can be (0..15).
 388:Libraries/STM32F10x_StdPeriph_Driver/src/stm32f10x_gpio.c ****   * @param  BitVal: specifies the value to be written to the selected bit.
 389:Libraries/STM32F10x_StdPeriph_Driver/src/stm32f10x_gpio.c ****   *   This parameter can be one of the BitAction enum values:
 390:Libraries/STM32F10x_StdPeriph_Driver/src/stm32f10x_gpio.c ****   *     @arg Bit_RESET: to clear the port pin
 391:Libraries/STM32F10x_StdPeriph_Driver/src/stm32f10x_gpio.c ****   *     @arg Bit_SET: to set the port pin
 392:Libraries/STM32F10x_StdPeriph_Driver/src/stm32f10x_gpio.c ****   * @retval None
 393:Libraries/STM32F10x_StdPeriph_Driver/src/stm32f10x_gpio.c ****   */
 394:Libraries/STM32F10x_StdPeriph_Driver/src/stm32f10x_gpio.c **** void GPIO_WriteBit(GPIO_TypeDef* GPIOx, uint16_t GPIO_Pin, BitAction BitVal)
 395:Libraries/STM32F10x_StdPeriph_Driver/src/stm32f10x_gpio.c **** {
 592              		.loc 1 395 0
 593              		.cfi_startproc
 594              		@ args = 0, pretend = 0, frame = 0
 595              		@ frame_needed = 0, uses_anonymous_args = 0
 596              		@ link register save eliminated.
 597              	.LVL60:
 396:Libraries/STM32F10x_StdPeriph_Driver/src/stm32f10x_gpio.c ****   /* Check the parameters */
 397:Libraries/STM32F10x_StdPeriph_Driver/src/stm32f10x_gpio.c ****   assert_param(IS_GPIO_ALL_PERIPH(GPIOx));
 398:Libraries/STM32F10x_StdPeriph_Driver/src/stm32f10x_gpio.c ****   assert_param(IS_GET_GPIO_PIN(GPIO_Pin));
 399:Libraries/STM32F10x_StdPeriph_Driver/src/stm32f10x_gpio.c ****   assert_param(IS_GPIO_BIT_ACTION(BitVal)); 
 400:Libraries/STM32F10x_StdPeriph_Driver/src/stm32f10x_gpio.c ****   
 401:Libraries/STM32F10x_StdPeriph_Driver/src/stm32f10x_gpio.c ****   if (BitVal != Bit_RESET)
 598              		.loc 1 401 0
 599 01ae 0AB1     		cbz	r2, .L38	@ BitVal,
 402:Libraries/STM32F10x_StdPeriph_Driver/src/stm32f10x_gpio.c ****   {
 403:Libraries/STM32F10x_StdPeriph_Driver/src/stm32f10x_gpio.c ****     GPIOx->BSRR = GPIO_Pin;
 600              		.loc 1 403 0
 601 01b0 0161     		str	r1, [r0, #16]	@ GPIO_Pin, GPIOx_6(D)->BSRR
 602 01b2 7047     		bx	lr	@
 603              	.L38:
 404:Libraries/STM32F10x_StdPeriph_Driver/src/stm32f10x_gpio.c ****   }
 405:Libraries/STM32F10x_StdPeriph_Driver/src/stm32f10x_gpio.c ****   else
 406:Libraries/STM32F10x_StdPeriph_Driver/src/stm32f10x_gpio.c ****   {
 407:Libraries/STM32F10x_StdPeriph_Driver/src/stm32f10x_gpio.c ****     GPIOx->BRR = GPIO_Pin;
 604              		.loc 1 407 0
 605 01b4 4161     		str	r1, [r0, #20]	@ GPIO_Pin, GPIOx_6(D)->BRR
ARM GAS  /var/folders/lp/0dm50ddn51vc39svyzv_6fp00000gn/T//cc0MZB2B.s 			page 19


 606 01b6 7047     		bx	lr	@
 607              		.cfi_endproc
 608              	.LFE39:
 609              		.size	GPIO_WriteBit, .-GPIO_WriteBit
 610              		.align	1
 611              		.global	GPIO_Write
 612              		.thumb
 613              		.thumb_func
 614              		.type	GPIO_Write, %function
 615              	GPIO_Write:
 616              	.LFB40:
 408:Libraries/STM32F10x_StdPeriph_Driver/src/stm32f10x_gpio.c ****   }
 409:Libraries/STM32F10x_StdPeriph_Driver/src/stm32f10x_gpio.c **** }
 410:Libraries/STM32F10x_StdPeriph_Driver/src/stm32f10x_gpio.c **** 
 411:Libraries/STM32F10x_StdPeriph_Driver/src/stm32f10x_gpio.c **** /**
 412:Libraries/STM32F10x_StdPeriph_Driver/src/stm32f10x_gpio.c ****   * @brief  Writes data to the specified GPIO data port.
 413:Libraries/STM32F10x_StdPeriph_Driver/src/stm32f10x_gpio.c ****   * @param  GPIOx: where x can be (A..G) to select the GPIO peripheral.
 414:Libraries/STM32F10x_StdPeriph_Driver/src/stm32f10x_gpio.c ****   * @param  PortVal: specifies the value to be written to the port output data register.
 415:Libraries/STM32F10x_StdPeriph_Driver/src/stm32f10x_gpio.c ****   * @retval None
 416:Libraries/STM32F10x_StdPeriph_Driver/src/stm32f10x_gpio.c ****   */
 417:Libraries/STM32F10x_StdPeriph_Driver/src/stm32f10x_gpio.c **** void GPIO_Write(GPIO_TypeDef* GPIOx, uint16_t PortVal)
 418:Libraries/STM32F10x_StdPeriph_Driver/src/stm32f10x_gpio.c **** {
 617              		.loc 1 418 0
 618              		.cfi_startproc
 619              		@ args = 0, pretend = 0, frame = 0
 620              		@ frame_needed = 0, uses_anonymous_args = 0
 621              		@ link register save eliminated.
 622              	.LVL61:
 419:Libraries/STM32F10x_StdPeriph_Driver/src/stm32f10x_gpio.c ****   /* Check the parameters */
 420:Libraries/STM32F10x_StdPeriph_Driver/src/stm32f10x_gpio.c ****   assert_param(IS_GPIO_ALL_PERIPH(GPIOx));
 421:Libraries/STM32F10x_StdPeriph_Driver/src/stm32f10x_gpio.c ****   
 422:Libraries/STM32F10x_StdPeriph_Driver/src/stm32f10x_gpio.c ****   GPIOx->ODR = PortVal;
 623              		.loc 1 422 0
 624 01b8 C160     		str	r1, [r0, #12]	@ PortVal, GPIOx_4(D)->ODR
 625 01ba 7047     		bx	lr	@
 626              		.cfi_endproc
 627              	.LFE40:
 628              		.size	GPIO_Write, .-GPIO_Write
 629              		.align	1
 630              		.global	GPIO_PinLockConfig
 631              		.thumb
 632              		.thumb_func
 633              		.type	GPIO_PinLockConfig, %function
 634              	GPIO_PinLockConfig:
 635              	.LFB41:
 423:Libraries/STM32F10x_StdPeriph_Driver/src/stm32f10x_gpio.c **** }
 424:Libraries/STM32F10x_StdPeriph_Driver/src/stm32f10x_gpio.c **** 
 425:Libraries/STM32F10x_StdPeriph_Driver/src/stm32f10x_gpio.c **** /**
 426:Libraries/STM32F10x_StdPeriph_Driver/src/stm32f10x_gpio.c ****   * @brief  Locks GPIO Pins configuration registers.
 427:Libraries/STM32F10x_StdPeriph_Driver/src/stm32f10x_gpio.c ****   * @param  GPIOx: where x can be (A..G) to select the GPIO peripheral.
 428:Libraries/STM32F10x_StdPeriph_Driver/src/stm32f10x_gpio.c ****   * @param  GPIO_Pin: specifies the port bit to be written.
 429:Libraries/STM32F10x_StdPeriph_Driver/src/stm32f10x_gpio.c ****   *   This parameter can be any combination of GPIO_Pin_x where x can be (0..15).
 430:Libraries/STM32F10x_StdPeriph_Driver/src/stm32f10x_gpio.c ****   * @retval None
 431:Libraries/STM32F10x_StdPeriph_Driver/src/stm32f10x_gpio.c ****   */
 432:Libraries/STM32F10x_StdPeriph_Driver/src/stm32f10x_gpio.c **** void GPIO_PinLockConfig(GPIO_TypeDef* GPIOx, uint16_t GPIO_Pin)
 433:Libraries/STM32F10x_StdPeriph_Driver/src/stm32f10x_gpio.c **** {
 636              		.loc 1 433 0
ARM GAS  /var/folders/lp/0dm50ddn51vc39svyzv_6fp00000gn/T//cc0MZB2B.s 			page 20


 637              		.cfi_startproc
 638              		@ args = 0, pretend = 0, frame = 0
 639              		@ frame_needed = 0, uses_anonymous_args = 0
 640              		@ link register save eliminated.
 641              	.LVL62:
 434:Libraries/STM32F10x_StdPeriph_Driver/src/stm32f10x_gpio.c ****   uint32_t tmp = 0x00010000;
 435:Libraries/STM32F10x_StdPeriph_Driver/src/stm32f10x_gpio.c ****   
 436:Libraries/STM32F10x_StdPeriph_Driver/src/stm32f10x_gpio.c ****   /* Check the parameters */
 437:Libraries/STM32F10x_StdPeriph_Driver/src/stm32f10x_gpio.c ****   assert_param(IS_GPIO_ALL_PERIPH(GPIOx));
 438:Libraries/STM32F10x_StdPeriph_Driver/src/stm32f10x_gpio.c ****   assert_param(IS_GPIO_PIN(GPIO_Pin));
 439:Libraries/STM32F10x_StdPeriph_Driver/src/stm32f10x_gpio.c ****   
 440:Libraries/STM32F10x_StdPeriph_Driver/src/stm32f10x_gpio.c ****   tmp |= GPIO_Pin;
 642              		.loc 1 440 0
 643 01bc 41F48033 		orr	r3, r1, #65536	@ tmp, GPIO_Pin,
 644              	.LVL63:
 441:Libraries/STM32F10x_StdPeriph_Driver/src/stm32f10x_gpio.c ****   /* Set LCKK bit */
 442:Libraries/STM32F10x_StdPeriph_Driver/src/stm32f10x_gpio.c ****   GPIOx->LCKR = tmp;
 645              		.loc 1 442 0
 646 01c0 8361     		str	r3, [r0, #24]	@ tmp, GPIOx_5(D)->LCKR
 443:Libraries/STM32F10x_StdPeriph_Driver/src/stm32f10x_gpio.c ****   /* Reset LCKK bit */
 444:Libraries/STM32F10x_StdPeriph_Driver/src/stm32f10x_gpio.c ****   GPIOx->LCKR =  GPIO_Pin;
 647              		.loc 1 444 0
 648 01c2 8161     		str	r1, [r0, #24]	@ GPIO_Pin, GPIOx_5(D)->LCKR
 445:Libraries/STM32F10x_StdPeriph_Driver/src/stm32f10x_gpio.c ****   /* Set LCKK bit */
 446:Libraries/STM32F10x_StdPeriph_Driver/src/stm32f10x_gpio.c ****   GPIOx->LCKR = tmp;
 649              		.loc 1 446 0
 650 01c4 8361     		str	r3, [r0, #24]	@ tmp, GPIOx_5(D)->LCKR
 447:Libraries/STM32F10x_StdPeriph_Driver/src/stm32f10x_gpio.c ****   /* Read LCKK bit*/
 448:Libraries/STM32F10x_StdPeriph_Driver/src/stm32f10x_gpio.c ****   tmp = GPIOx->LCKR;
 651              		.loc 1 448 0
 652 01c6 8369     		ldr	r3, [r0, #24]	@ tmp, GPIOx_5(D)->LCKR
 653              	.LVL64:
 449:Libraries/STM32F10x_StdPeriph_Driver/src/stm32f10x_gpio.c ****   /* Read LCKK bit*/
 450:Libraries/STM32F10x_StdPeriph_Driver/src/stm32f10x_gpio.c ****   tmp = GPIOx->LCKR;
 654              		.loc 1 450 0
 655 01c8 8369     		ldr	r3, [r0, #24]	@ tmp, GPIOx_5(D)->LCKR
 656 01ca 7047     		bx	lr	@
 657              		.cfi_endproc
 658              	.LFE41:
 659              		.size	GPIO_PinLockConfig, .-GPIO_PinLockConfig
 660              		.align	1
 661              		.global	GPIO_EventOutputConfig
 662              		.thumb
 663              		.thumb_func
 664              		.type	GPIO_EventOutputConfig, %function
 665              	GPIO_EventOutputConfig:
 666              	.LFB42:
 451:Libraries/STM32F10x_StdPeriph_Driver/src/stm32f10x_gpio.c **** }
 452:Libraries/STM32F10x_StdPeriph_Driver/src/stm32f10x_gpio.c **** 
 453:Libraries/STM32F10x_StdPeriph_Driver/src/stm32f10x_gpio.c **** /**
 454:Libraries/STM32F10x_StdPeriph_Driver/src/stm32f10x_gpio.c ****   * @brief  Selects the GPIO pin used as Event output.
 455:Libraries/STM32F10x_StdPeriph_Driver/src/stm32f10x_gpio.c ****   * @param  GPIO_PortSource: selects the GPIO port to be used as source
 456:Libraries/STM32F10x_StdPeriph_Driver/src/stm32f10x_gpio.c ****   *   for Event output.
 457:Libraries/STM32F10x_StdPeriph_Driver/src/stm32f10x_gpio.c ****   *   This parameter can be GPIO_PortSourceGPIOx where x can be (A..E).
 458:Libraries/STM32F10x_StdPeriph_Driver/src/stm32f10x_gpio.c ****   * @param  GPIO_PinSource: specifies the pin for the Event output.
 459:Libraries/STM32F10x_StdPeriph_Driver/src/stm32f10x_gpio.c ****   *   This parameter can be GPIO_PinSourcex where x can be (0..15).
 460:Libraries/STM32F10x_StdPeriph_Driver/src/stm32f10x_gpio.c ****   * @retval None
ARM GAS  /var/folders/lp/0dm50ddn51vc39svyzv_6fp00000gn/T//cc0MZB2B.s 			page 21


 461:Libraries/STM32F10x_StdPeriph_Driver/src/stm32f10x_gpio.c ****   */
 462:Libraries/STM32F10x_StdPeriph_Driver/src/stm32f10x_gpio.c **** void GPIO_EventOutputConfig(uint8_t GPIO_PortSource, uint8_t GPIO_PinSource)
 463:Libraries/STM32F10x_StdPeriph_Driver/src/stm32f10x_gpio.c **** {
 667              		.loc 1 463 0
 668              		.cfi_startproc
 669              		@ args = 0, pretend = 0, frame = 0
 670              		@ frame_needed = 0, uses_anonymous_args = 0
 671              		@ link register save eliminated.
 672              	.LVL65:
 464:Libraries/STM32F10x_StdPeriph_Driver/src/stm32f10x_gpio.c ****   uint32_t tmpreg = 0x00;
 465:Libraries/STM32F10x_StdPeriph_Driver/src/stm32f10x_gpio.c ****   /* Check the parameters */
 466:Libraries/STM32F10x_StdPeriph_Driver/src/stm32f10x_gpio.c ****   assert_param(IS_GPIO_EVENTOUT_PORT_SOURCE(GPIO_PortSource));
 467:Libraries/STM32F10x_StdPeriph_Driver/src/stm32f10x_gpio.c ****   assert_param(IS_GPIO_PIN_SOURCE(GPIO_PinSource));
 468:Libraries/STM32F10x_StdPeriph_Driver/src/stm32f10x_gpio.c ****     
 469:Libraries/STM32F10x_StdPeriph_Driver/src/stm32f10x_gpio.c ****   tmpreg = AFIO->EVCR;
 673              		.loc 1 469 0
 674 01cc 054A     		ldr	r2, .L43	@ tmp119,
 675 01ce 1368     		ldr	r3, [r2]	@ tmpreg, MEM[(struct AFIO_TypeDef *)1073807360B].EVCR
 676              	.LVL66:
 677 01d0 23F07F03 		bic	r3, r3, #127	@ tmpreg, tmpreg,
 678              	.LVL67:
 679 01d4 1B04     		lsls	r3, r3, #16	@ tmpreg, tmpreg,
 680 01d6 1B0C     		lsrs	r3, r3, #16	@ tmpreg, tmpreg,
 681 01d8 1943     		orrs	r1, r1, r3	@, D.6861, GPIO_PinSource, tmpreg
 682              	.LVL68:
 470:Libraries/STM32F10x_StdPeriph_Driver/src/stm32f10x_gpio.c ****   /* Clear the PORT[6:4] and PIN[3:0] bits */
 471:Libraries/STM32F10x_StdPeriph_Driver/src/stm32f10x_gpio.c ****   tmpreg &= EVCR_PORTPINCONFIG_MASK;
 472:Libraries/STM32F10x_StdPeriph_Driver/src/stm32f10x_gpio.c ****   tmpreg |= (uint32_t)GPIO_PortSource << 0x04;
 473:Libraries/STM32F10x_StdPeriph_Driver/src/stm32f10x_gpio.c ****   tmpreg |= GPIO_PinSource;
 683              		.loc 1 473 0
 684 01da 41EA0010 		orr	r0, r1, r0, lsl #4	@ tmpreg, D.6861, GPIO_PortSource,
 685              	.LVL69:
 474:Libraries/STM32F10x_StdPeriph_Driver/src/stm32f10x_gpio.c ****   AFIO->EVCR = tmpreg;
 686              		.loc 1 474 0
 687 01de 1060     		str	r0, [r2]	@ tmpreg, MEM[(struct AFIO_TypeDef *)1073807360B].EVCR
 688 01e0 7047     		bx	lr	@
 689              	.L44:
 690 01e2 00BF     		.align	2
 691              	.L43:
 692 01e4 00000140 		.word	1073807360
 693              		.cfi_endproc
 694              	.LFE42:
 695              		.size	GPIO_EventOutputConfig, .-GPIO_EventOutputConfig
 696              		.align	1
 697              		.global	GPIO_EventOutputCmd
 698              		.thumb
 699              		.thumb_func
 700              		.type	GPIO_EventOutputCmd, %function
 701              	GPIO_EventOutputCmd:
 702              	.LFB43:
 475:Libraries/STM32F10x_StdPeriph_Driver/src/stm32f10x_gpio.c **** }
 476:Libraries/STM32F10x_StdPeriph_Driver/src/stm32f10x_gpio.c **** 
 477:Libraries/STM32F10x_StdPeriph_Driver/src/stm32f10x_gpio.c **** /**
 478:Libraries/STM32F10x_StdPeriph_Driver/src/stm32f10x_gpio.c ****   * @brief  Enables or disables the Event Output.
 479:Libraries/STM32F10x_StdPeriph_Driver/src/stm32f10x_gpio.c ****   * @param  NewState: new state of the Event output.
 480:Libraries/STM32F10x_StdPeriph_Driver/src/stm32f10x_gpio.c ****   *   This parameter can be: ENABLE or DISABLE.
 481:Libraries/STM32F10x_StdPeriph_Driver/src/stm32f10x_gpio.c ****   * @retval None
ARM GAS  /var/folders/lp/0dm50ddn51vc39svyzv_6fp00000gn/T//cc0MZB2B.s 			page 22


 482:Libraries/STM32F10x_StdPeriph_Driver/src/stm32f10x_gpio.c ****   */
 483:Libraries/STM32F10x_StdPeriph_Driver/src/stm32f10x_gpio.c **** void GPIO_EventOutputCmd(FunctionalState NewState)
 484:Libraries/STM32F10x_StdPeriph_Driver/src/stm32f10x_gpio.c **** {
 703              		.loc 1 484 0
 704              		.cfi_startproc
 705              		@ args = 0, pretend = 0, frame = 0
 706              		@ frame_needed = 0, uses_anonymous_args = 0
 707              		@ link register save eliminated.
 708              	.LVL70:
 485:Libraries/STM32F10x_StdPeriph_Driver/src/stm32f10x_gpio.c ****   /* Check the parameters */
 486:Libraries/STM32F10x_StdPeriph_Driver/src/stm32f10x_gpio.c ****   assert_param(IS_FUNCTIONAL_STATE(NewState));
 487:Libraries/STM32F10x_StdPeriph_Driver/src/stm32f10x_gpio.c ****   
 488:Libraries/STM32F10x_StdPeriph_Driver/src/stm32f10x_gpio.c ****   *(__IO uint32_t *) EVCR_EVOE_BB = (uint32_t)NewState;
 709              		.loc 1 488 0
 710 01e8 014B     		ldr	r3, .L46	@ tmp112,
 711 01ea 1860     		str	r0, [r3]	@ NewState, MEM[(volatile uint32_t *)1109393436B]
 712 01ec 7047     		bx	lr	@
 713              	.L47:
 714 01ee 00BF     		.align	2
 715              	.L46:
 716 01f0 1C002042 		.word	1109393436
 717              		.cfi_endproc
 718              	.LFE43:
 719              		.size	GPIO_EventOutputCmd, .-GPIO_EventOutputCmd
 720              		.align	1
 721              		.global	GPIO_PinRemapConfig
 722              		.thumb
 723              		.thumb_func
 724              		.type	GPIO_PinRemapConfig, %function
 725              	GPIO_PinRemapConfig:
 726              	.LFB44:
 489:Libraries/STM32F10x_StdPeriph_Driver/src/stm32f10x_gpio.c **** }
 490:Libraries/STM32F10x_StdPeriph_Driver/src/stm32f10x_gpio.c **** 
 491:Libraries/STM32F10x_StdPeriph_Driver/src/stm32f10x_gpio.c **** /**
 492:Libraries/STM32F10x_StdPeriph_Driver/src/stm32f10x_gpio.c ****   * @brief  Changes the mapping of the specified pin.
 493:Libraries/STM32F10x_StdPeriph_Driver/src/stm32f10x_gpio.c ****   * @param  GPIO_Remap: selects the pin to remap.
 494:Libraries/STM32F10x_StdPeriph_Driver/src/stm32f10x_gpio.c ****   *   This parameter can be one of the following values:
 495:Libraries/STM32F10x_StdPeriph_Driver/src/stm32f10x_gpio.c ****   *     @arg GPIO_Remap_SPI1             : SPI1 Alternate Function mapping
 496:Libraries/STM32F10x_StdPeriph_Driver/src/stm32f10x_gpio.c ****   *     @arg GPIO_Remap_I2C1             : I2C1 Alternate Function mapping
 497:Libraries/STM32F10x_StdPeriph_Driver/src/stm32f10x_gpio.c ****   *     @arg GPIO_Remap_USART1           : USART1 Alternate Function mapping
 498:Libraries/STM32F10x_StdPeriph_Driver/src/stm32f10x_gpio.c ****   *     @arg GPIO_Remap_USART2           : USART2 Alternate Function mapping
 499:Libraries/STM32F10x_StdPeriph_Driver/src/stm32f10x_gpio.c ****   *     @arg GPIO_PartialRemap_USART3    : USART3 Partial Alternate Function mapping
 500:Libraries/STM32F10x_StdPeriph_Driver/src/stm32f10x_gpio.c ****   *     @arg GPIO_FullRemap_USART3       : USART3 Full Alternate Function mapping
 501:Libraries/STM32F10x_StdPeriph_Driver/src/stm32f10x_gpio.c ****   *     @arg GPIO_PartialRemap_TIM1      : TIM1 Partial Alternate Function mapping
 502:Libraries/STM32F10x_StdPeriph_Driver/src/stm32f10x_gpio.c ****   *     @arg GPIO_FullRemap_TIM1         : TIM1 Full Alternate Function mapping
 503:Libraries/STM32F10x_StdPeriph_Driver/src/stm32f10x_gpio.c ****   *     @arg GPIO_PartialRemap1_TIM2     : TIM2 Partial1 Alternate Function mapping
 504:Libraries/STM32F10x_StdPeriph_Driver/src/stm32f10x_gpio.c ****   *     @arg GPIO_PartialRemap2_TIM2     : TIM2 Partial2 Alternate Function mapping
 505:Libraries/STM32F10x_StdPeriph_Driver/src/stm32f10x_gpio.c ****   *     @arg GPIO_FullRemap_TIM2         : TIM2 Full Alternate Function mapping
 506:Libraries/STM32F10x_StdPeriph_Driver/src/stm32f10x_gpio.c ****   *     @arg GPIO_PartialRemap_TIM3      : TIM3 Partial Alternate Function mapping
 507:Libraries/STM32F10x_StdPeriph_Driver/src/stm32f10x_gpio.c ****   *     @arg GPIO_FullRemap_TIM3         : TIM3 Full Alternate Function mapping
 508:Libraries/STM32F10x_StdPeriph_Driver/src/stm32f10x_gpio.c ****   *     @arg GPIO_Remap_TIM4             : TIM4 Alternate Function mapping
 509:Libraries/STM32F10x_StdPeriph_Driver/src/stm32f10x_gpio.c ****   *     @arg GPIO_Remap1_CAN1            : CAN1 Alternate Function mapping
 510:Libraries/STM32F10x_StdPeriph_Driver/src/stm32f10x_gpio.c ****   *     @arg GPIO_Remap2_CAN1            : CAN1 Alternate Function mapping
 511:Libraries/STM32F10x_StdPeriph_Driver/src/stm32f10x_gpio.c ****   *     @arg GPIO_Remap_PD01             : PD01 Alternate Function mapping
 512:Libraries/STM32F10x_StdPeriph_Driver/src/stm32f10x_gpio.c ****   *     @arg GPIO_Remap_TIM5CH4_LSI      : LSI connected to TIM5 Channel4 input capture for calibra
 513:Libraries/STM32F10x_StdPeriph_Driver/src/stm32f10x_gpio.c ****   *     @arg GPIO_Remap_ADC1_ETRGINJ     : ADC1 External Trigger Injected Conversion remapping
 514:Libraries/STM32F10x_StdPeriph_Driver/src/stm32f10x_gpio.c ****   *     @arg GPIO_Remap_ADC1_ETRGREG     : ADC1 External Trigger Regular Conversion remapping
ARM GAS  /var/folders/lp/0dm50ddn51vc39svyzv_6fp00000gn/T//cc0MZB2B.s 			page 23


 515:Libraries/STM32F10x_StdPeriph_Driver/src/stm32f10x_gpio.c ****   *     @arg GPIO_Remap_ADC2_ETRGINJ     : ADC2 External Trigger Injected Conversion remapping
 516:Libraries/STM32F10x_StdPeriph_Driver/src/stm32f10x_gpio.c ****   *     @arg GPIO_Remap_ADC2_ETRGREG     : ADC2 External Trigger Regular Conversion remapping
 517:Libraries/STM32F10x_StdPeriph_Driver/src/stm32f10x_gpio.c ****   *     @arg GPIO_Remap_ETH              : Ethernet remapping (only for Connectivity line devices)
 518:Libraries/STM32F10x_StdPeriph_Driver/src/stm32f10x_gpio.c ****   *     @arg GPIO_Remap_CAN2             : CAN2 remapping (only for Connectivity line devices)
 519:Libraries/STM32F10x_StdPeriph_Driver/src/stm32f10x_gpio.c ****   *     @arg GPIO_Remap_SWJ_NoJTRST      : Full SWJ Enabled (JTAG-DP + SW-DP) but without JTRST
 520:Libraries/STM32F10x_StdPeriph_Driver/src/stm32f10x_gpio.c ****   *     @arg GPIO_Remap_SWJ_JTAGDisable  : JTAG-DP Disabled and SW-DP Enabled
 521:Libraries/STM32F10x_StdPeriph_Driver/src/stm32f10x_gpio.c ****   *     @arg GPIO_Remap_SWJ_Disable      : Full SWJ Disabled (JTAG-DP + SW-DP)
 522:Libraries/STM32F10x_StdPeriph_Driver/src/stm32f10x_gpio.c ****   *     @arg GPIO_Remap_SPI3             : SPI3/I2S3 Alternate Function mapping (only for Connectiv
 523:Libraries/STM32F10x_StdPeriph_Driver/src/stm32f10x_gpio.c ****   *                                        When the SPI3/I2S3 is remapped using this function, the 
 524:Libraries/STM32F10x_StdPeriph_Driver/src/stm32f10x_gpio.c ****   *                                        to Full SWJ Enabled (JTAG-DP + SW-DP) but without JTRST.
 525:Libraries/STM32F10x_StdPeriph_Driver/src/stm32f10x_gpio.c ****   *     @arg GPIO_Remap_TIM2ITR1_PTP_SOF : Ethernet PTP output or USB OTG SOF (Start of Frame) conn
 526:Libraries/STM32F10x_StdPeriph_Driver/src/stm32f10x_gpio.c ****   *                                        to TIM2 Internal Trigger 1 for calibration (only for Con
 527:Libraries/STM32F10x_StdPeriph_Driver/src/stm32f10x_gpio.c ****   *                                        If the GPIO_Remap_TIM2ITR1_PTP_SOF is enabled the TIM2 I
 528:Libraries/STM32F10x_StdPeriph_Driver/src/stm32f10x_gpio.c ****   *                                        Ethernet PTP output. When Reset TIM2 ITR1 is connected t
 529:Libraries/STM32F10x_StdPeriph_Driver/src/stm32f10x_gpio.c ****   *     @arg GPIO_Remap_PTP_PPS          : Ethernet MAC PPS_PTS output on PB05 (only for Connectivi
 530:Libraries/STM32F10x_StdPeriph_Driver/src/stm32f10x_gpio.c ****   *     @arg GPIO_Remap_TIM15            : TIM15 Alternate Function mapping (only for Value line de
 531:Libraries/STM32F10x_StdPeriph_Driver/src/stm32f10x_gpio.c ****   *     @arg GPIO_Remap_TIM16            : TIM16 Alternate Function mapping (only for Value line de
 532:Libraries/STM32F10x_StdPeriph_Driver/src/stm32f10x_gpio.c ****   *     @arg GPIO_Remap_TIM17            : TIM17 Alternate Function mapping (only for Value line de
 533:Libraries/STM32F10x_StdPeriph_Driver/src/stm32f10x_gpio.c ****   *     @arg GPIO_Remap_CEC              : CEC Alternate Function mapping (only for Value line devi
 534:Libraries/STM32F10x_StdPeriph_Driver/src/stm32f10x_gpio.c ****   *     @arg GPIO_Remap_TIM1_DMA         : TIM1 DMA requests mapping (only for Value line devices)
 535:Libraries/STM32F10x_StdPeriph_Driver/src/stm32f10x_gpio.c ****   *     @arg GPIO_Remap_TIM9             : TIM9 Alternate Function mapping (only for XL-density dev
 536:Libraries/STM32F10x_StdPeriph_Driver/src/stm32f10x_gpio.c ****   *     @arg GPIO_Remap_TIM10            : TIM10 Alternate Function mapping (only for XL-density de
 537:Libraries/STM32F10x_StdPeriph_Driver/src/stm32f10x_gpio.c ****   *     @arg GPIO_Remap_TIM11            : TIM11 Alternate Function mapping (only for XL-density de
 538:Libraries/STM32F10x_StdPeriph_Driver/src/stm32f10x_gpio.c ****   *     @arg GPIO_Remap_TIM13            : TIM13 Alternate Function mapping (only for High density 
 539:Libraries/STM32F10x_StdPeriph_Driver/src/stm32f10x_gpio.c ****   *     @arg GPIO_Remap_TIM14            : TIM14 Alternate Function mapping (only for High density 
 540:Libraries/STM32F10x_StdPeriph_Driver/src/stm32f10x_gpio.c ****   *     @arg GPIO_Remap_FSMC_NADV        : FSMC_NADV Alternate Function mapping (only for High dens
 541:Libraries/STM32F10x_StdPeriph_Driver/src/stm32f10x_gpio.c ****   *     @arg GPIO_Remap_TIM67_DAC_DMA    : TIM6/TIM7 and DAC DMA requests remapping (only for High 
 542:Libraries/STM32F10x_StdPeriph_Driver/src/stm32f10x_gpio.c ****   *     @arg GPIO_Remap_TIM12            : TIM12 Alternate Function mapping (only for High density 
 543:Libraries/STM32F10x_StdPeriph_Driver/src/stm32f10x_gpio.c ****   *     @arg GPIO_Remap_MISC             : Miscellaneous Remap (DMA2 Channel5 Position and DAC Trig
 544:Libraries/STM32F10x_StdPeriph_Driver/src/stm32f10x_gpio.c ****   *                                        only for High density Value line devices)     
 545:Libraries/STM32F10x_StdPeriph_Driver/src/stm32f10x_gpio.c ****   * @param  NewState: new state of the port pin remapping.
 546:Libraries/STM32F10x_StdPeriph_Driver/src/stm32f10x_gpio.c ****   *   This parameter can be: ENABLE or DISABLE.
 547:Libraries/STM32F10x_StdPeriph_Driver/src/stm32f10x_gpio.c ****   * @retval None
 548:Libraries/STM32F10x_StdPeriph_Driver/src/stm32f10x_gpio.c ****   */
 549:Libraries/STM32F10x_StdPeriph_Driver/src/stm32f10x_gpio.c **** void GPIO_PinRemapConfig(uint32_t GPIO_Remap, FunctionalState NewState)
 550:Libraries/STM32F10x_StdPeriph_Driver/src/stm32f10x_gpio.c **** {
 727              		.loc 1 550 0
 728              		.cfi_startproc
 729              		@ args = 0, pretend = 0, frame = 0
 730              		@ frame_needed = 0, uses_anonymous_args = 0
 731              	.LVL71:
 551:Libraries/STM32F10x_StdPeriph_Driver/src/stm32f10x_gpio.c ****   uint32_t tmp = 0x00, tmp1 = 0x00, tmpreg = 0x00, tmpmask = 0x00;
 552:Libraries/STM32F10x_StdPeriph_Driver/src/stm32f10x_gpio.c **** 
 553:Libraries/STM32F10x_StdPeriph_Driver/src/stm32f10x_gpio.c ****   /* Check the parameters */
 554:Libraries/STM32F10x_StdPeriph_Driver/src/stm32f10x_gpio.c ****   assert_param(IS_GPIO_REMAP(GPIO_Remap));
 555:Libraries/STM32F10x_StdPeriph_Driver/src/stm32f10x_gpio.c ****   assert_param(IS_FUNCTIONAL_STATE(NewState));  
 556:Libraries/STM32F10x_StdPeriph_Driver/src/stm32f10x_gpio.c ****   
 557:Libraries/STM32F10x_StdPeriph_Driver/src/stm32f10x_gpio.c ****   if((GPIO_Remap & 0x80000000) == 0x80000000)
 732              		.loc 1 557 0
 733 01f4 0028     		cmp	r0, #0	@ GPIO_Remap
 734 01f6 164A     		ldr	r2, .L61	@ tmp153,
 550:Libraries/STM32F10x_StdPeriph_Driver/src/stm32f10x_gpio.c ****   uint32_t tmp = 0x00, tmp1 = 0x00, tmpreg = 0x00, tmpmask = 0x00;
 735              		.loc 1 550 0
 736 01f8 30B5     		push	{r4, r5, lr}	@
 737              	.LCFI6:
 738              		.cfi_def_cfa_offset 12
 739              		.cfi_offset 4, -12
ARM GAS  /var/folders/lp/0dm50ddn51vc39svyzv_6fp00000gn/T//cc0MZB2B.s 			page 24


 740              		.cfi_offset 5, -8
 741              		.cfi_offset 14, -4
 558:Libraries/STM32F10x_StdPeriph_Driver/src/stm32f10x_gpio.c ****   {
 559:Libraries/STM32F10x_StdPeriph_Driver/src/stm32f10x_gpio.c ****     tmpreg = AFIO->MAPR2;
 560:Libraries/STM32F10x_StdPeriph_Driver/src/stm32f10x_gpio.c ****   }
 561:Libraries/STM32F10x_StdPeriph_Driver/src/stm32f10x_gpio.c ****   else
 562:Libraries/STM32F10x_StdPeriph_Driver/src/stm32f10x_gpio.c ****   {
 563:Libraries/STM32F10x_StdPeriph_Driver/src/stm32f10x_gpio.c ****     tmpreg = AFIO->MAPR;
 564:Libraries/STM32F10x_StdPeriph_Driver/src/stm32f10x_gpio.c ****   }
 565:Libraries/STM32F10x_StdPeriph_Driver/src/stm32f10x_gpio.c **** 
 566:Libraries/STM32F10x_StdPeriph_Driver/src/stm32f10x_gpio.c ****   tmpmask = (GPIO_Remap & DBGAFR_POSITION_MASK) >> 0x10;
 567:Libraries/STM32F10x_StdPeriph_Driver/src/stm32f10x_gpio.c ****   tmp = GPIO_Remap & LSB_MASK;
 568:Libraries/STM32F10x_StdPeriph_Driver/src/stm32f10x_gpio.c **** 
 569:Libraries/STM32F10x_StdPeriph_Driver/src/stm32f10x_gpio.c ****   if ((GPIO_Remap & (DBGAFR_LOCATION_MASK | DBGAFR_NUMBITS_MASK)) == (DBGAFR_LOCATION_MASK | DBGAFR
 742              		.loc 1 569 0
 743 01fa 00F44015 		and	r5, r0, #3145728	@ D.6868, GPIO_Remap,
 559:Libraries/STM32F10x_StdPeriph_Driver/src/stm32f10x_gpio.c ****   }
 744              		.loc 1 559 0
 745 01fe B4BF     		ite	lt
 746 0200 D369     		ldrlt	r3, [r2, #28]	@ tmpreg, MEM[(struct AFIO_TypeDef *)1073807360B].MAPR2
 747              	.LVL72:
 563:Libraries/STM32F10x_StdPeriph_Driver/src/stm32f10x_gpio.c ****   }
 748              		.loc 1 563 0
 749 0202 5368     		ldrge	r3, [r2, #4]	@ tmpreg, MEM[(struct AFIO_TypeDef *)1073807360B].MAPR
 750              	.LVL73:
 751              		.loc 1 569 0
 752 0204 B5F5401F 		cmp	r5, #3145728	@ D.6868,
 567:Libraries/STM32F10x_StdPeriph_Driver/src/stm32f10x_gpio.c **** 
 753              		.loc 1 567 0
 754 0208 84B2     		uxth	r4, r0	@ tmp, GPIO_Remap
 755              	.LVL74:
 756              		.loc 1 569 0
 757 020a 06D1     		bne	.L51	@,
 570:Libraries/STM32F10x_StdPeriph_Driver/src/stm32f10x_gpio.c ****   {
 571:Libraries/STM32F10x_StdPeriph_Driver/src/stm32f10x_gpio.c ****     tmpreg &= DBGAFR_SWJCFG_MASK;
 572:Libraries/STM32F10x_StdPeriph_Driver/src/stm32f10x_gpio.c ****     AFIO->MAPR &= DBGAFR_SWJCFG_MASK;
 758              		.loc 1 572 0
 759 020c 5568     		ldr	r5, [r2, #4]	@ D.6868, MEM[(struct AFIO_TypeDef *)1073807360B].MAPR
 571:Libraries/STM32F10x_StdPeriph_Driver/src/stm32f10x_gpio.c ****     AFIO->MAPR &= DBGAFR_SWJCFG_MASK;
 760              		.loc 1 571 0
 761 020e 23F07063 		bic	r3, r3, #251658240	@ tmpreg, tmpreg,
 762              	.LVL75:
 763              		.loc 1 572 0
 764 0212 25F07065 		bic	r5, r5, #251658240	@ D.6868, D.6868,
 765 0216 5560     		str	r5, [r2, #4]	@ D.6868, MEM[(struct AFIO_TypeDef *)1073807360B].MAPR
 766 0218 0EE0     		b	.L52	@
 767              	.L51:
 573:Libraries/STM32F10x_StdPeriph_Driver/src/stm32f10x_gpio.c ****   }
 574:Libraries/STM32F10x_StdPeriph_Driver/src/stm32f10x_gpio.c ****   else if ((GPIO_Remap & DBGAFR_NUMBITS_MASK) == DBGAFR_NUMBITS_MASK)
 768              		.loc 1 574 0
 769 021a C202     		lsls	r2, r0, #11	@, GPIO_Remap,
 770              	.LVL76:
 575:Libraries/STM32F10x_StdPeriph_Driver/src/stm32f10x_gpio.c ****   {
 576:Libraries/STM32F10x_StdPeriph_Driver/src/stm32f10x_gpio.c ****     tmp1 = ((uint32_t)0x03) << tmpmask;
 577:Libraries/STM32F10x_StdPeriph_Driver/src/stm32f10x_gpio.c ****     tmpreg &= ~tmp1;
 578:Libraries/STM32F10x_StdPeriph_Driver/src/stm32f10x_gpio.c ****     tmpreg |= ~DBGAFR_SWJCFG_MASK;
 579:Libraries/STM32F10x_StdPeriph_Driver/src/stm32f10x_gpio.c ****   }
ARM GAS  /var/folders/lp/0dm50ddn51vc39svyzv_6fp00000gn/T//cc0MZB2B.s 			page 25


 580:Libraries/STM32F10x_StdPeriph_Driver/src/stm32f10x_gpio.c ****   else
 581:Libraries/STM32F10x_StdPeriph_Driver/src/stm32f10x_gpio.c ****   {
 582:Libraries/STM32F10x_StdPeriph_Driver/src/stm32f10x_gpio.c ****     tmpreg &= ~(tmp << ((GPIO_Remap >> 0x15)*0x10));
 771              		.loc 1 582 0
 772 021c 55BF     		itete	pl
 773 021e 420D     		lsrpl	r2, r0, #21	@ D.6868, GPIO_Remap,
 577:Libraries/STM32F10x_StdPeriph_Driver/src/stm32f10x_gpio.c ****     tmpreg |= ~DBGAFR_SWJCFG_MASK;
 774              		.loc 1 577 0
 775 0220 0322     		movmi	r2, #3	@ tmp142,
 776              		.loc 1 582 0
 777 0222 1201     		lslpl	r2, r2, #4	@ D.6868, D.6868,
 577:Libraries/STM32F10x_StdPeriph_Driver/src/stm32f10x_gpio.c ****     tmpreg |= ~DBGAFR_SWJCFG_MASK;
 778              		.loc 1 577 0
 779 0224 C0F30345 		ubfxmi	r5, r0, #16, #4	@ tmpmask, GPIO_Remap,,
 780 0228 4CBF     		ite	mi
 781 022a AA40     		lslmi	r2, r2, r5	@ tmp1, tmp142, tmpmask
 782              		.loc 1 582 0
 783 022c 04FA02F2 		lslpl	r2, r4, r2	@ D.6868, tmp, D.6868
 784 0230 23EA0203 		bic	r3, r3, r2	@ tmpreg, tmpreg, D.6868
 785              	.LVL77:
 583:Libraries/STM32F10x_StdPeriph_Driver/src/stm32f10x_gpio.c ****     tmpreg |= ~DBGAFR_SWJCFG_MASK;
 786              		.loc 1 583 0
 787 0234 43F07063 		orr	r3, r3, #251658240	@ tmpreg, tmpreg,
 788              	.LVL78:
 789              	.L52:
 584:Libraries/STM32F10x_StdPeriph_Driver/src/stm32f10x_gpio.c ****   }
 585:Libraries/STM32F10x_StdPeriph_Driver/src/stm32f10x_gpio.c **** 
 586:Libraries/STM32F10x_StdPeriph_Driver/src/stm32f10x_gpio.c ****   if (NewState != DISABLE)
 790              		.loc 1 586 0
 791 0238 19B1     		cbz	r1, .L54	@ NewState,
 587:Libraries/STM32F10x_StdPeriph_Driver/src/stm32f10x_gpio.c ****   {
 588:Libraries/STM32F10x_StdPeriph_Driver/src/stm32f10x_gpio.c ****     tmpreg |= (tmp << ((GPIO_Remap >> 0x15)*0x10));
 792              		.loc 1 588 0
 793 023a 420D     		lsrs	r2, r0, #21	@ D.6868, GPIO_Remap,
 794 023c 1201     		lsls	r2, r2, #4	@ D.6868, D.6868,
 795 023e 9440     		lsls	r4, r4, r2	@ D.6868, tmp, D.6868
 796              	.LVL79:
 797 0240 2343     		orrs	r3, r3, r4	@, tmpreg, tmpreg, D.6868
 798              	.LVL80:
 799              	.L54:
 800 0242 034A     		ldr	r2, .L61	@ tmp154,
 589:Libraries/STM32F10x_StdPeriph_Driver/src/stm32f10x_gpio.c ****   }
 590:Libraries/STM32F10x_StdPeriph_Driver/src/stm32f10x_gpio.c **** 
 591:Libraries/STM32F10x_StdPeriph_Driver/src/stm32f10x_gpio.c ****   if((GPIO_Remap & 0x80000000) == 0x80000000)
 801              		.loc 1 591 0
 802 0244 0028     		cmp	r0, #0	@ GPIO_Remap,
 592:Libraries/STM32F10x_StdPeriph_Driver/src/stm32f10x_gpio.c ****   {
 593:Libraries/STM32F10x_StdPeriph_Driver/src/stm32f10x_gpio.c ****     AFIO->MAPR2 = tmpreg;
 803              		.loc 1 593 0
 804 0246 B4BF     		ite	lt
 805 0248 D361     		strlt	r3, [r2, #28]	@ tmpreg, MEM[(struct AFIO_TypeDef *)1073807360B].MAPR2
 594:Libraries/STM32F10x_StdPeriph_Driver/src/stm32f10x_gpio.c ****   }
 595:Libraries/STM32F10x_StdPeriph_Driver/src/stm32f10x_gpio.c ****   else
 596:Libraries/STM32F10x_StdPeriph_Driver/src/stm32f10x_gpio.c ****   {
 597:Libraries/STM32F10x_StdPeriph_Driver/src/stm32f10x_gpio.c ****     AFIO->MAPR = tmpreg;
 806              		.loc 1 597 0
 807 024a 5360     		strge	r3, [r2, #4]	@ tmpreg, MEM[(struct AFIO_TypeDef *)1073807360B].MAPR
ARM GAS  /var/folders/lp/0dm50ddn51vc39svyzv_6fp00000gn/T//cc0MZB2B.s 			page 26


 808 024c 30BD     		pop	{r4, r5, pc}	@
 809              	.L62:
 810 024e 00BF     		.align	2
 811              	.L61:
 812 0250 00000140 		.word	1073807360
 813              		.cfi_endproc
 814              	.LFE44:
 815              		.size	GPIO_PinRemapConfig, .-GPIO_PinRemapConfig
 816              		.align	1
 817              		.global	GPIO_EXTILineConfig
 818              		.thumb
 819              		.thumb_func
 820              		.type	GPIO_EXTILineConfig, %function
 821              	GPIO_EXTILineConfig:
 822              	.LFB45:
 598:Libraries/STM32F10x_StdPeriph_Driver/src/stm32f10x_gpio.c ****   }  
 599:Libraries/STM32F10x_StdPeriph_Driver/src/stm32f10x_gpio.c **** }
 600:Libraries/STM32F10x_StdPeriph_Driver/src/stm32f10x_gpio.c **** 
 601:Libraries/STM32F10x_StdPeriph_Driver/src/stm32f10x_gpio.c **** /**
 602:Libraries/STM32F10x_StdPeriph_Driver/src/stm32f10x_gpio.c ****   * @brief  Selects the GPIO pin used as EXTI Line.
 603:Libraries/STM32F10x_StdPeriph_Driver/src/stm32f10x_gpio.c ****   * @param  GPIO_PortSource: selects the GPIO port to be used as source for EXTI lines.
 604:Libraries/STM32F10x_StdPeriph_Driver/src/stm32f10x_gpio.c ****   *   This parameter can be GPIO_PortSourceGPIOx where x can be (A..G).
 605:Libraries/STM32F10x_StdPeriph_Driver/src/stm32f10x_gpio.c ****   * @param  GPIO_PinSource: specifies the EXTI line to be configured.
 606:Libraries/STM32F10x_StdPeriph_Driver/src/stm32f10x_gpio.c ****   *   This parameter can be GPIO_PinSourcex where x can be (0..15).
 607:Libraries/STM32F10x_StdPeriph_Driver/src/stm32f10x_gpio.c ****   * @retval None
 608:Libraries/STM32F10x_StdPeriph_Driver/src/stm32f10x_gpio.c ****   */
 609:Libraries/STM32F10x_StdPeriph_Driver/src/stm32f10x_gpio.c **** void GPIO_EXTILineConfig(uint8_t GPIO_PortSource, uint8_t GPIO_PinSource)
 610:Libraries/STM32F10x_StdPeriph_Driver/src/stm32f10x_gpio.c **** {
 823              		.loc 1 610 0
 824              		.cfi_startproc
 825              		@ args = 0, pretend = 0, frame = 0
 826              		@ frame_needed = 0, uses_anonymous_args = 0
 827              	.LVL81:
 611:Libraries/STM32F10x_StdPeriph_Driver/src/stm32f10x_gpio.c ****   uint32_t tmp = 0x00;
 612:Libraries/STM32F10x_StdPeriph_Driver/src/stm32f10x_gpio.c ****   /* Check the parameters */
 613:Libraries/STM32F10x_StdPeriph_Driver/src/stm32f10x_gpio.c ****   assert_param(IS_GPIO_EXTI_PORT_SOURCE(GPIO_PortSource));
 614:Libraries/STM32F10x_StdPeriph_Driver/src/stm32f10x_gpio.c ****   assert_param(IS_GPIO_PIN_SOURCE(GPIO_PinSource));
 615:Libraries/STM32F10x_StdPeriph_Driver/src/stm32f10x_gpio.c ****   
 616:Libraries/STM32F10x_StdPeriph_Driver/src/stm32f10x_gpio.c ****   tmp = ((uint32_t)0x0F) << (0x04 * (GPIO_PinSource & (uint8_t)0x03));
 828              		.loc 1 616 0
 829 0254 01F00303 		and	r3, r1, #3	@ D.6872, GPIO_PinSource,
 830 0258 01F0FC01 		and	r1, r1, #252	@ D.6875, GPIO_PinSource,
 831              	.LVL82:
 832 025c 01F18041 		add	r1, r1, #1073741824	@ D.6876, D.6875,
 833 0260 01F58031 		add	r1, r1, #65536	@ D.6876, D.6876,
 610:Libraries/STM32F10x_StdPeriph_Driver/src/stm32f10x_gpio.c ****   uint32_t tmp = 0x00;
 834              		.loc 1 610 0
 835 0264 10B5     		push	{r4, lr}	@
 836              	.LCFI7:
 837              		.cfi_def_cfa_offset 8
 838              		.cfi_offset 4, -8
 839              		.cfi_offset 14, -4
 840              		.loc 1 616 0
 841 0266 9B00     		lsls	r3, r3, #2	@ D.6872, D.6872,
 842              	.LVL83:
 617:Libraries/STM32F10x_StdPeriph_Driver/src/stm32f10x_gpio.c ****   AFIO->EXTICR[GPIO_PinSource >> 0x02] &= ~tmp;
 843              		.loc 1 617 0
ARM GAS  /var/folders/lp/0dm50ddn51vc39svyzv_6fp00000gn/T//cc0MZB2B.s 			page 27


 844 0268 8C68     		ldr	r4, [r1, #8]	@ D.6874, MEM[(struct AFIO_TypeDef *)_21 + 8B]
 845 026a 0F22     		movs	r2, #15	@ tmp134,
 846 026c 9A40     		lsls	r2, r2, r3	@ tmp, tmp134, D.6872
 847              	.LVL84:
 848 026e 24EA0202 		bic	r2, r4, r2	@ D.6874, D.6874, tmp
 849              	.LVL85:
 850 0272 8A60     		str	r2, [r1, #8]	@ D.6874, MEM[(struct AFIO_TypeDef *)_21 + 8B]
 618:Libraries/STM32F10x_StdPeriph_Driver/src/stm32f10x_gpio.c ****   AFIO->EXTICR[GPIO_PinSource >> 0x02] |= (((uint32_t)GPIO_PortSource) << (0x04 * (GPIO_PinSource &
 851              		.loc 1 618 0
 852 0274 8A68     		ldr	r2, [r1, #8]	@ D.6874, MEM[(struct AFIO_TypeDef *)_21 + 8B]
 853 0276 9840     		lsls	r0, r0, r3	@ D.6874, GPIO_PortSource, D.6872
 854              	.LVL86:
 855 0278 1043     		orrs	r0, r0, r2	@, D.6874, D.6874, D.6874
 856 027a 8860     		str	r0, [r1, #8]	@ D.6874, MEM[(struct AFIO_TypeDef *)_21 + 8B]
 857 027c 10BD     		pop	{r4, pc}	@
 858              		.cfi_endproc
 859              	.LFE45:
 860              		.size	GPIO_EXTILineConfig, .-GPIO_EXTILineConfig
 861              		.align	1
 862              		.global	GPIO_ETH_MediaInterfaceConfig
 863              		.thumb
 864              		.thumb_func
 865              		.type	GPIO_ETH_MediaInterfaceConfig, %function
 866              	GPIO_ETH_MediaInterfaceConfig:
 867              	.LFB46:
 619:Libraries/STM32F10x_StdPeriph_Driver/src/stm32f10x_gpio.c **** }
 620:Libraries/STM32F10x_StdPeriph_Driver/src/stm32f10x_gpio.c **** 
 621:Libraries/STM32F10x_StdPeriph_Driver/src/stm32f10x_gpio.c **** /**
 622:Libraries/STM32F10x_StdPeriph_Driver/src/stm32f10x_gpio.c ****   * @brief  Selects the Ethernet media interface.
 623:Libraries/STM32F10x_StdPeriph_Driver/src/stm32f10x_gpio.c ****   * @note   This function applies only to STM32 Connectivity line devices.  
 624:Libraries/STM32F10x_StdPeriph_Driver/src/stm32f10x_gpio.c ****   * @param  GPIO_ETH_MediaInterface: specifies the Media Interface mode.
 625:Libraries/STM32F10x_StdPeriph_Driver/src/stm32f10x_gpio.c ****   *   This parameter can be one of the following values:
 626:Libraries/STM32F10x_StdPeriph_Driver/src/stm32f10x_gpio.c ****   *     @arg GPIO_ETH_MediaInterface_MII: MII mode
 627:Libraries/STM32F10x_StdPeriph_Driver/src/stm32f10x_gpio.c ****   *     @arg GPIO_ETH_MediaInterface_RMII: RMII mode    
 628:Libraries/STM32F10x_StdPeriph_Driver/src/stm32f10x_gpio.c ****   * @retval None
 629:Libraries/STM32F10x_StdPeriph_Driver/src/stm32f10x_gpio.c ****   */
 630:Libraries/STM32F10x_StdPeriph_Driver/src/stm32f10x_gpio.c **** void GPIO_ETH_MediaInterfaceConfig(uint32_t GPIO_ETH_MediaInterface) 
 631:Libraries/STM32F10x_StdPeriph_Driver/src/stm32f10x_gpio.c **** { 
 868              		.loc 1 631 0
 869              		.cfi_startproc
 870              		@ args = 0, pretend = 0, frame = 0
 871              		@ frame_needed = 0, uses_anonymous_args = 0
 872              		@ link register save eliminated.
 873              	.LVL87:
 632:Libraries/STM32F10x_StdPeriph_Driver/src/stm32f10x_gpio.c ****   assert_param(IS_GPIO_ETH_MEDIA_INTERFACE(GPIO_ETH_MediaInterface)); 
 633:Libraries/STM32F10x_StdPeriph_Driver/src/stm32f10x_gpio.c **** 
 634:Libraries/STM32F10x_StdPeriph_Driver/src/stm32f10x_gpio.c ****   /* Configure MII_RMII selection bit */ 
 635:Libraries/STM32F10x_StdPeriph_Driver/src/stm32f10x_gpio.c ****   *(__IO uint32_t *) MAPR_MII_RMII_SEL_BB = GPIO_ETH_MediaInterface; 
 874              		.loc 1 635 0
 875 027e 014B     		ldr	r3, .L65	@ tmp111,
 876 0280 1860     		str	r0, [r3]	@ GPIO_ETH_MediaInterface, MEM[(volatile uint32_t *)1109393628B]
 877 0282 7047     		bx	lr	@
 878              	.L66:
 879              		.align	2
 880              	.L65:
 881 0284 DC002042 		.word	1109393628
 882              		.cfi_endproc
ARM GAS  /var/folders/lp/0dm50ddn51vc39svyzv_6fp00000gn/T//cc0MZB2B.s 			page 28


 883              	.LFE46:
 884              		.size	GPIO_ETH_MediaInterfaceConfig, .-GPIO_ETH_MediaInterfaceConfig
 885              	.Letext0:
 886              		.file 2 "/usr/local/share/gcc-arm-none-eabi-5_4-2016q3/arm-none-eabi/include/machine/_default_type
 887              		.file 3 "/usr/local/share/gcc-arm-none-eabi-5_4-2016q3/arm-none-eabi/include/sys/_stdint.h"
 888              		.file 4 "./Libraries/CMSIS/CM3/DeviceSupport/ST/STM32F10x/stm32f10x.h"
 889              		.file 5 "./Libraries/STM32F10x_StdPeriph_Driver/inc/stm32f10x_gpio.h"
 890              		.file 6 "./Libraries/CMSIS/CM3/CoreSupport/core_cm3.h"
 891              		.file 7 "./Libraries/STM32F10x_StdPeriph_Driver/inc/stm32f10x_rcc.h"