ARM GAS  /var/folders/lp/0dm50ddn51vc39svyzv_6fp00000gn/T//ccS91u3A.s 			page 1


   1              		.syntax unified
   2              		.cpu cortex-m3
   3              		.fpu softvfp
   4              		.eabi_attribute 20, 1	@ Tag_ABI_FP_denormal
   5              		.eabi_attribute 21, 1	@ Tag_ABI_FP_exceptions
   6              		.eabi_attribute 23, 3	@ Tag_ABI_FP_number_model
   7              		.eabi_attribute 24, 1	@ Tag_ABI_align8_needed
   8              		.eabi_attribute 25, 1	@ Tag_ABI_align8_preserved
   9              		.eabi_attribute 26, 1	@ Tag_ABI_enum_size
  10              		.eabi_attribute 30, 4	@ Tag_ABI_optimization_goals
  11              		.eabi_attribute 34, 1	@ Tag_CPU_unaligned_access
  12              		.eabi_attribute 18, 4	@ Tag_ABI_PCS_wchar_t
  13              		.file	"stm32f10x_rcc.c"
  14              	@ GNU C11 (GNU Tools for ARM Embedded Processors) version 5.4.1 20160919 (release) [ARM/embedded-5-
  15              	@	compiled by GNU C version 4.2.1 (Based on Apple Inc. build 5658) (LLVM build 2336.9.00), GMP vers
  16              	@ GGC heuristics: --param ggc-min-expand=100 --param ggc-min-heapsize=131072
  17              	@ options passed:  -I . -I ./user -I ./Libraries/CMSIS/CM3/CoreSupport
  18              	@ -I ./Libraries/CMSIS/CM3/DeviceSupport/ST/STM32F10x
  19              	@ -I ./Libraries/STM32F10x_StdPeriph_Driver/inc
  20              	@ -I ./Libraries/STM32F10x_StdPeriph_Driver -imultilib armv7-m
  21              	@ -iprefix /usr/local/share/gcc-arm-none-eabi-5_4-2016q3/bin/../lib/gcc/arm-none-eabi/5.4.1/
  22              	@ -isysroot /usr/local/share/gcc-arm-none-eabi-5_4-2016q3/bin/../arm-none-eabi
  23              	@ -D__USES_INITFINI__ -D STM32F10X_MD_VL -D USE_STDPERIPH_DRIVER
  24              	@ -D HSE_VALUE=8000000 -D RUN_FROM_FLASH=1
  25              	@ Libraries/STM32F10x_StdPeriph_Driver/src/stm32f10x_rcc.c -mcpu=cortex-m3
  26              	@ -mthumb
  27              	@ -auxbase-strip Libraries/STM32F10x_StdPeriph_Driver/src/stm32f10x_rcc.o
  28              	@ -g -gdwarf-2 -Os -Wall -fomit-frame-pointer -fverbose-asm
  29              	@ options enabled:  -faggressive-loop-optimizations -falign-functions
  30              	@ -falign-jumps -falign-labels -falign-loops -fauto-inc-dec
  31              	@ -fbranch-count-reg -fcaller-saves -fchkp-check-incomplete-type
  32              	@ -fchkp-check-read -fchkp-check-write -fchkp-instrument-calls
  33              	@ -fchkp-narrow-bounds -fchkp-optimize -fchkp-store-bounds
  34              	@ -fchkp-use-static-bounds -fchkp-use-static-const-bounds
  35              	@ -fchkp-use-wrappers -fcombine-stack-adjustments -fcommon -fcompare-elim
  36              	@ -fcprop-registers -fcrossjumping -fcse-follow-jumps -fdefer-pop
  37              	@ -fdelete-null-pointer-checks -fdevirtualize -fdevirtualize-speculatively
  38              	@ -fdwarf2-cfi-asm -fearly-inlining -feliminate-unused-debug-types
  39              	@ -fexpensive-optimizations -fforward-propagate -ffunction-cse -fgcse
  40              	@ -fgcse-lm -fgnu-runtime -fgnu-unique -fguess-branch-probability
  41              	@ -fhoist-adjacent-loads -fident -fif-conversion -fif-conversion2
  42              	@ -findirect-inlining -finline -finline-atomics -finline-functions
  43              	@ -finline-functions-called-once -finline-small-functions -fipa-cp
  44              	@ -fipa-cp-alignment -fipa-icf -fipa-icf-functions -fipa-icf-variables
  45              	@ -fipa-profile -fipa-pure-const -fipa-ra -fipa-reference -fipa-sra
  46              	@ -fira-hoist-pressure -fira-share-save-slots -fira-share-spill-slots
  47              	@ -fisolate-erroneous-paths-dereference -fivopts -fkeep-static-consts
  48              	@ -fleading-underscore -flifetime-dse -flra-remat -flto-odr-type-merging
  49              	@ -fmath-errno -fmerge-constants -fmerge-debug-strings
  50              	@ -fmove-loop-invariants -fomit-frame-pointer -foptimize-sibling-calls
  51              	@ -fpartial-inlining -fpeephole -fpeephole2 -fprefetch-loop-arrays
  52              	@ -freg-struct-return -freorder-blocks -freorder-functions
  53              	@ -frerun-cse-after-loop -fsched-critical-path-heuristic
  54              	@ -fsched-dep-count-heuristic -fsched-group-heuristic -fsched-interblock
  55              	@ -fsched-last-insn-heuristic -fsched-pressure -fsched-rank-heuristic
  56              	@ -fsched-spec -fsched-spec-insn-heuristic -fsched-stalled-insns-dep
  57              	@ -fschedule-insns2 -fsection-anchors -fsemantic-interposition
ARM GAS  /var/folders/lp/0dm50ddn51vc39svyzv_6fp00000gn/T//ccS91u3A.s 			page 2


  58              	@ -fshow-column -fsigned-zeros -fsplit-ivs-in-unroller -fsplit-wide-types
  59              	@ -fssa-phiopt -fstdarg-opt -fstrict-aliasing -fstrict-overflow
  60              	@ -fstrict-volatile-bitfields -fsync-libcalls -fthread-jumps
  61              	@ -ftoplevel-reorder -ftrapping-math -ftree-bit-ccp -ftree-builtin-call-dce
  62              	@ -ftree-ccp -ftree-ch -ftree-coalesce-vars -ftree-copy-prop
  63              	@ -ftree-copyrename -ftree-cselim -ftree-dce -ftree-dominator-opts
  64              	@ -ftree-dse -ftree-forwprop -ftree-fre -ftree-loop-if-convert
  65              	@ -ftree-loop-im -ftree-loop-ivcanon -ftree-loop-optimize
  66              	@ -ftree-parallelize-loops= -ftree-phiprop -ftree-pre -ftree-pta
  67              	@ -ftree-reassoc -ftree-scev-cprop -ftree-sink -ftree-slsr -ftree-sra
  68              	@ -ftree-switch-conversion -ftree-tail-merge -ftree-ter -ftree-vrp
  69              	@ -funit-at-a-time -fvar-tracking -fvar-tracking-assignments -fverbose-asm
  70              	@ -fzero-initialized-in-bss -masm-syntax-unified -mfix-cortex-m3-ldrd
  71              	@ -mlittle-endian -mpic-data-is-text-relative -msched-prolog -mthumb
  72              	@ -munaligned-access -mvectorize-with-neon-quad
  73              	
  74              		.text
  75              	.Ltext0:
  76              		.cfi_sections	.debug_frame
  77              		.align	1
  78              		.global	RCC_DeInit
  79              		.thumb
  80              		.thumb_func
  81              		.type	RCC_DeInit, %function
  82              	RCC_DeInit:
  83              	.LFB29:
  84              		.file 1 "Libraries/STM32F10x_StdPeriph_Driver/src/stm32f10x_rcc.c"
   1:Libraries/STM32F10x_StdPeriph_Driver/src/stm32f10x_rcc.c **** /**
   2:Libraries/STM32F10x_StdPeriph_Driver/src/stm32f10x_rcc.c ****   ******************************************************************************
   3:Libraries/STM32F10x_StdPeriph_Driver/src/stm32f10x_rcc.c ****   * @file    stm32f10x_rcc.c
   4:Libraries/STM32F10x_StdPeriph_Driver/src/stm32f10x_rcc.c ****   * @author  MCD Application Team
   5:Libraries/STM32F10x_StdPeriph_Driver/src/stm32f10x_rcc.c ****   * @version V3.5.0
   6:Libraries/STM32F10x_StdPeriph_Driver/src/stm32f10x_rcc.c ****   * @date    11-March-2011
   7:Libraries/STM32F10x_StdPeriph_Driver/src/stm32f10x_rcc.c ****   * @brief   This file provides all the RCC firmware functions.
   8:Libraries/STM32F10x_StdPeriph_Driver/src/stm32f10x_rcc.c ****   ******************************************************************************
   9:Libraries/STM32F10x_StdPeriph_Driver/src/stm32f10x_rcc.c ****   * @attention
  10:Libraries/STM32F10x_StdPeriph_Driver/src/stm32f10x_rcc.c ****   *
  11:Libraries/STM32F10x_StdPeriph_Driver/src/stm32f10x_rcc.c ****   * THE PRESENT FIRMWARE WHICH IS FOR GUIDANCE ONLY AIMS AT PROVIDING CUSTOMERS
  12:Libraries/STM32F10x_StdPeriph_Driver/src/stm32f10x_rcc.c ****   * WITH CODING INFORMATION REGARDING THEIR PRODUCTS IN ORDER FOR THEM TO SAVE
  13:Libraries/STM32F10x_StdPeriph_Driver/src/stm32f10x_rcc.c ****   * TIME. AS A RESULT, STMICROELECTRONICS SHALL NOT BE HELD LIABLE FOR ANY
  14:Libraries/STM32F10x_StdPeriph_Driver/src/stm32f10x_rcc.c ****   * DIRECT, INDIRECT OR CONSEQUENTIAL DAMAGES WITH RESPECT TO ANY CLAIMS ARISING
  15:Libraries/STM32F10x_StdPeriph_Driver/src/stm32f10x_rcc.c ****   * FROM THE CONTENT OF SUCH FIRMWARE AND/OR THE USE MADE BY CUSTOMERS OF THE
  16:Libraries/STM32F10x_StdPeriph_Driver/src/stm32f10x_rcc.c ****   * CODING INFORMATION CONTAINED HEREIN IN CONNECTION WITH THEIR PRODUCTS.
  17:Libraries/STM32F10x_StdPeriph_Driver/src/stm32f10x_rcc.c ****   *
  18:Libraries/STM32F10x_StdPeriph_Driver/src/stm32f10x_rcc.c ****   * <h2><center>&copy; COPYRIGHT 2011 STMicroelectronics</center></h2>
  19:Libraries/STM32F10x_StdPeriph_Driver/src/stm32f10x_rcc.c ****   ******************************************************************************
  20:Libraries/STM32F10x_StdPeriph_Driver/src/stm32f10x_rcc.c ****   */
  21:Libraries/STM32F10x_StdPeriph_Driver/src/stm32f10x_rcc.c **** 
  22:Libraries/STM32F10x_StdPeriph_Driver/src/stm32f10x_rcc.c **** /* Includes ------------------------------------------------------------------*/
  23:Libraries/STM32F10x_StdPeriph_Driver/src/stm32f10x_rcc.c **** #include "stm32f10x_rcc.h"
  24:Libraries/STM32F10x_StdPeriph_Driver/src/stm32f10x_rcc.c **** 
  25:Libraries/STM32F10x_StdPeriph_Driver/src/stm32f10x_rcc.c **** /** @addtogroup STM32F10x_StdPeriph_Driver
  26:Libraries/STM32F10x_StdPeriph_Driver/src/stm32f10x_rcc.c ****   * @{
  27:Libraries/STM32F10x_StdPeriph_Driver/src/stm32f10x_rcc.c ****   */
  28:Libraries/STM32F10x_StdPeriph_Driver/src/stm32f10x_rcc.c **** 
  29:Libraries/STM32F10x_StdPeriph_Driver/src/stm32f10x_rcc.c **** /** @defgroup RCC 
  30:Libraries/STM32F10x_StdPeriph_Driver/src/stm32f10x_rcc.c ****   * @brief RCC driver modules
ARM GAS  /var/folders/lp/0dm50ddn51vc39svyzv_6fp00000gn/T//ccS91u3A.s 			page 3


  31:Libraries/STM32F10x_StdPeriph_Driver/src/stm32f10x_rcc.c ****   * @{
  32:Libraries/STM32F10x_StdPeriph_Driver/src/stm32f10x_rcc.c ****   */ 
  33:Libraries/STM32F10x_StdPeriph_Driver/src/stm32f10x_rcc.c **** 
  34:Libraries/STM32F10x_StdPeriph_Driver/src/stm32f10x_rcc.c **** /** @defgroup RCC_Private_TypesDefinitions
  35:Libraries/STM32F10x_StdPeriph_Driver/src/stm32f10x_rcc.c ****   * @{
  36:Libraries/STM32F10x_StdPeriph_Driver/src/stm32f10x_rcc.c ****   */
  37:Libraries/STM32F10x_StdPeriph_Driver/src/stm32f10x_rcc.c **** 
  38:Libraries/STM32F10x_StdPeriph_Driver/src/stm32f10x_rcc.c **** /**
  39:Libraries/STM32F10x_StdPeriph_Driver/src/stm32f10x_rcc.c ****   * @}
  40:Libraries/STM32F10x_StdPeriph_Driver/src/stm32f10x_rcc.c ****   */
  41:Libraries/STM32F10x_StdPeriph_Driver/src/stm32f10x_rcc.c **** 
  42:Libraries/STM32F10x_StdPeriph_Driver/src/stm32f10x_rcc.c **** /** @defgroup RCC_Private_Defines
  43:Libraries/STM32F10x_StdPeriph_Driver/src/stm32f10x_rcc.c ****   * @{
  44:Libraries/STM32F10x_StdPeriph_Driver/src/stm32f10x_rcc.c ****   */
  45:Libraries/STM32F10x_StdPeriph_Driver/src/stm32f10x_rcc.c **** 
  46:Libraries/STM32F10x_StdPeriph_Driver/src/stm32f10x_rcc.c **** /* ------------ RCC registers bit address in the alias region ----------- */
  47:Libraries/STM32F10x_StdPeriph_Driver/src/stm32f10x_rcc.c **** #define RCC_OFFSET                (RCC_BASE - PERIPH_BASE)
  48:Libraries/STM32F10x_StdPeriph_Driver/src/stm32f10x_rcc.c **** 
  49:Libraries/STM32F10x_StdPeriph_Driver/src/stm32f10x_rcc.c **** /* --- CR Register ---*/
  50:Libraries/STM32F10x_StdPeriph_Driver/src/stm32f10x_rcc.c **** 
  51:Libraries/STM32F10x_StdPeriph_Driver/src/stm32f10x_rcc.c **** /* Alias word address of HSION bit */
  52:Libraries/STM32F10x_StdPeriph_Driver/src/stm32f10x_rcc.c **** #define CR_OFFSET                 (RCC_OFFSET + 0x00)
  53:Libraries/STM32F10x_StdPeriph_Driver/src/stm32f10x_rcc.c **** #define HSION_BitNumber           0x00
  54:Libraries/STM32F10x_StdPeriph_Driver/src/stm32f10x_rcc.c **** #define CR_HSION_BB               (PERIPH_BB_BASE + (CR_OFFSET * 32) + (HSION_BitNumber * 4))
  55:Libraries/STM32F10x_StdPeriph_Driver/src/stm32f10x_rcc.c **** 
  56:Libraries/STM32F10x_StdPeriph_Driver/src/stm32f10x_rcc.c **** /* Alias word address of PLLON bit */
  57:Libraries/STM32F10x_StdPeriph_Driver/src/stm32f10x_rcc.c **** #define PLLON_BitNumber           0x18
  58:Libraries/STM32F10x_StdPeriph_Driver/src/stm32f10x_rcc.c **** #define CR_PLLON_BB               (PERIPH_BB_BASE + (CR_OFFSET * 32) + (PLLON_BitNumber * 4))
  59:Libraries/STM32F10x_StdPeriph_Driver/src/stm32f10x_rcc.c **** 
  60:Libraries/STM32F10x_StdPeriph_Driver/src/stm32f10x_rcc.c **** #ifdef STM32F10X_CL
  61:Libraries/STM32F10x_StdPeriph_Driver/src/stm32f10x_rcc.c ****  /* Alias word address of PLL2ON bit */
  62:Libraries/STM32F10x_StdPeriph_Driver/src/stm32f10x_rcc.c ****  #define PLL2ON_BitNumber          0x1A
  63:Libraries/STM32F10x_StdPeriph_Driver/src/stm32f10x_rcc.c ****  #define CR_PLL2ON_BB              (PERIPH_BB_BASE + (CR_OFFSET * 32) + (PLL2ON_BitNumber * 4))
  64:Libraries/STM32F10x_StdPeriph_Driver/src/stm32f10x_rcc.c **** 
  65:Libraries/STM32F10x_StdPeriph_Driver/src/stm32f10x_rcc.c ****  /* Alias word address of PLL3ON bit */
  66:Libraries/STM32F10x_StdPeriph_Driver/src/stm32f10x_rcc.c ****  #define PLL3ON_BitNumber          0x1C
  67:Libraries/STM32F10x_StdPeriph_Driver/src/stm32f10x_rcc.c ****  #define CR_PLL3ON_BB              (PERIPH_BB_BASE + (CR_OFFSET * 32) + (PLL3ON_BitNumber * 4))
  68:Libraries/STM32F10x_StdPeriph_Driver/src/stm32f10x_rcc.c **** #endif /* STM32F10X_CL */ 
  69:Libraries/STM32F10x_StdPeriph_Driver/src/stm32f10x_rcc.c **** 
  70:Libraries/STM32F10x_StdPeriph_Driver/src/stm32f10x_rcc.c **** /* Alias word address of CSSON bit */
  71:Libraries/STM32F10x_StdPeriph_Driver/src/stm32f10x_rcc.c **** #define CSSON_BitNumber           0x13
  72:Libraries/STM32F10x_StdPeriph_Driver/src/stm32f10x_rcc.c **** #define CR_CSSON_BB               (PERIPH_BB_BASE + (CR_OFFSET * 32) + (CSSON_BitNumber * 4))
  73:Libraries/STM32F10x_StdPeriph_Driver/src/stm32f10x_rcc.c **** 
  74:Libraries/STM32F10x_StdPeriph_Driver/src/stm32f10x_rcc.c **** /* --- CFGR Register ---*/
  75:Libraries/STM32F10x_StdPeriph_Driver/src/stm32f10x_rcc.c **** 
  76:Libraries/STM32F10x_StdPeriph_Driver/src/stm32f10x_rcc.c **** /* Alias word address of USBPRE bit */
  77:Libraries/STM32F10x_StdPeriph_Driver/src/stm32f10x_rcc.c **** #define CFGR_OFFSET               (RCC_OFFSET + 0x04)
  78:Libraries/STM32F10x_StdPeriph_Driver/src/stm32f10x_rcc.c **** 
  79:Libraries/STM32F10x_StdPeriph_Driver/src/stm32f10x_rcc.c **** #ifndef STM32F10X_CL
  80:Libraries/STM32F10x_StdPeriph_Driver/src/stm32f10x_rcc.c ****  #define USBPRE_BitNumber          0x16
  81:Libraries/STM32F10x_StdPeriph_Driver/src/stm32f10x_rcc.c ****  #define CFGR_USBPRE_BB            (PERIPH_BB_BASE + (CFGR_OFFSET * 32) + (USBPRE_BitNumber * 4))
  82:Libraries/STM32F10x_StdPeriph_Driver/src/stm32f10x_rcc.c **** #else
  83:Libraries/STM32F10x_StdPeriph_Driver/src/stm32f10x_rcc.c ****  #define OTGFSPRE_BitNumber        0x16
  84:Libraries/STM32F10x_StdPeriph_Driver/src/stm32f10x_rcc.c ****  #define CFGR_OTGFSPRE_BB          (PERIPH_BB_BASE + (CFGR_OFFSET * 32) + (OTGFSPRE_BitNumber * 4))
  85:Libraries/STM32F10x_StdPeriph_Driver/src/stm32f10x_rcc.c **** #endif /* STM32F10X_CL */ 
  86:Libraries/STM32F10x_StdPeriph_Driver/src/stm32f10x_rcc.c **** 
  87:Libraries/STM32F10x_StdPeriph_Driver/src/stm32f10x_rcc.c **** /* --- BDCR Register ---*/
ARM GAS  /var/folders/lp/0dm50ddn51vc39svyzv_6fp00000gn/T//ccS91u3A.s 			page 4


  88:Libraries/STM32F10x_StdPeriph_Driver/src/stm32f10x_rcc.c **** 
  89:Libraries/STM32F10x_StdPeriph_Driver/src/stm32f10x_rcc.c **** /* Alias word address of RTCEN bit */
  90:Libraries/STM32F10x_StdPeriph_Driver/src/stm32f10x_rcc.c **** #define BDCR_OFFSET               (RCC_OFFSET + 0x20)
  91:Libraries/STM32F10x_StdPeriph_Driver/src/stm32f10x_rcc.c **** #define RTCEN_BitNumber           0x0F
  92:Libraries/STM32F10x_StdPeriph_Driver/src/stm32f10x_rcc.c **** #define BDCR_RTCEN_BB             (PERIPH_BB_BASE + (BDCR_OFFSET * 32) + (RTCEN_BitNumber * 4))
  93:Libraries/STM32F10x_StdPeriph_Driver/src/stm32f10x_rcc.c **** 
  94:Libraries/STM32F10x_StdPeriph_Driver/src/stm32f10x_rcc.c **** /* Alias word address of BDRST bit */
  95:Libraries/STM32F10x_StdPeriph_Driver/src/stm32f10x_rcc.c **** #define BDRST_BitNumber           0x10
  96:Libraries/STM32F10x_StdPeriph_Driver/src/stm32f10x_rcc.c **** #define BDCR_BDRST_BB             (PERIPH_BB_BASE + (BDCR_OFFSET * 32) + (BDRST_BitNumber * 4))
  97:Libraries/STM32F10x_StdPeriph_Driver/src/stm32f10x_rcc.c **** 
  98:Libraries/STM32F10x_StdPeriph_Driver/src/stm32f10x_rcc.c **** /* --- CSR Register ---*/
  99:Libraries/STM32F10x_StdPeriph_Driver/src/stm32f10x_rcc.c **** 
 100:Libraries/STM32F10x_StdPeriph_Driver/src/stm32f10x_rcc.c **** /* Alias word address of LSION bit */
 101:Libraries/STM32F10x_StdPeriph_Driver/src/stm32f10x_rcc.c **** #define CSR_OFFSET                (RCC_OFFSET + 0x24)
 102:Libraries/STM32F10x_StdPeriph_Driver/src/stm32f10x_rcc.c **** #define LSION_BitNumber           0x00
 103:Libraries/STM32F10x_StdPeriph_Driver/src/stm32f10x_rcc.c **** #define CSR_LSION_BB              (PERIPH_BB_BASE + (CSR_OFFSET * 32) + (LSION_BitNumber * 4))
 104:Libraries/STM32F10x_StdPeriph_Driver/src/stm32f10x_rcc.c **** 
 105:Libraries/STM32F10x_StdPeriph_Driver/src/stm32f10x_rcc.c **** #ifdef STM32F10X_CL
 106:Libraries/STM32F10x_StdPeriph_Driver/src/stm32f10x_rcc.c **** /* --- CFGR2 Register ---*/
 107:Libraries/STM32F10x_StdPeriph_Driver/src/stm32f10x_rcc.c **** 
 108:Libraries/STM32F10x_StdPeriph_Driver/src/stm32f10x_rcc.c ****  /* Alias word address of I2S2SRC bit */
 109:Libraries/STM32F10x_StdPeriph_Driver/src/stm32f10x_rcc.c ****  #define CFGR2_OFFSET              (RCC_OFFSET + 0x2C)
 110:Libraries/STM32F10x_StdPeriph_Driver/src/stm32f10x_rcc.c ****  #define I2S2SRC_BitNumber         0x11
 111:Libraries/STM32F10x_StdPeriph_Driver/src/stm32f10x_rcc.c ****  #define CFGR2_I2S2SRC_BB          (PERIPH_BB_BASE + (CFGR2_OFFSET * 32) + (I2S2SRC_BitNumber * 4))
 112:Libraries/STM32F10x_StdPeriph_Driver/src/stm32f10x_rcc.c **** 
 113:Libraries/STM32F10x_StdPeriph_Driver/src/stm32f10x_rcc.c ****  /* Alias word address of I2S3SRC bit */
 114:Libraries/STM32F10x_StdPeriph_Driver/src/stm32f10x_rcc.c ****  #define I2S3SRC_BitNumber         0x12
 115:Libraries/STM32F10x_StdPeriph_Driver/src/stm32f10x_rcc.c ****  #define CFGR2_I2S3SRC_BB          (PERIPH_BB_BASE + (CFGR2_OFFSET * 32) + (I2S3SRC_BitNumber * 4))
 116:Libraries/STM32F10x_StdPeriph_Driver/src/stm32f10x_rcc.c **** #endif /* STM32F10X_CL */
 117:Libraries/STM32F10x_StdPeriph_Driver/src/stm32f10x_rcc.c **** 
 118:Libraries/STM32F10x_StdPeriph_Driver/src/stm32f10x_rcc.c **** /* ---------------------- RCC registers bit mask ------------------------ */
 119:Libraries/STM32F10x_StdPeriph_Driver/src/stm32f10x_rcc.c **** 
 120:Libraries/STM32F10x_StdPeriph_Driver/src/stm32f10x_rcc.c **** /* CR register bit mask */
 121:Libraries/STM32F10x_StdPeriph_Driver/src/stm32f10x_rcc.c **** #define CR_HSEBYP_Reset           ((uint32_t)0xFFFBFFFF)
 122:Libraries/STM32F10x_StdPeriph_Driver/src/stm32f10x_rcc.c **** #define CR_HSEBYP_Set             ((uint32_t)0x00040000)
 123:Libraries/STM32F10x_StdPeriph_Driver/src/stm32f10x_rcc.c **** #define CR_HSEON_Reset            ((uint32_t)0xFFFEFFFF)
 124:Libraries/STM32F10x_StdPeriph_Driver/src/stm32f10x_rcc.c **** #define CR_HSEON_Set              ((uint32_t)0x00010000)
 125:Libraries/STM32F10x_StdPeriph_Driver/src/stm32f10x_rcc.c **** #define CR_HSITRIM_Mask           ((uint32_t)0xFFFFFF07)
 126:Libraries/STM32F10x_StdPeriph_Driver/src/stm32f10x_rcc.c **** 
 127:Libraries/STM32F10x_StdPeriph_Driver/src/stm32f10x_rcc.c **** /* CFGR register bit mask */
 128:Libraries/STM32F10x_StdPeriph_Driver/src/stm32f10x_rcc.c **** #if defined (STM32F10X_LD_VL) || defined (STM32F10X_MD_VL) || defined (STM32F10X_HD_VL) || defined 
 129:Libraries/STM32F10x_StdPeriph_Driver/src/stm32f10x_rcc.c ****  #define CFGR_PLL_Mask            ((uint32_t)0xFFC2FFFF)
 130:Libraries/STM32F10x_StdPeriph_Driver/src/stm32f10x_rcc.c **** #else
 131:Libraries/STM32F10x_StdPeriph_Driver/src/stm32f10x_rcc.c ****  #define CFGR_PLL_Mask            ((uint32_t)0xFFC0FFFF)
 132:Libraries/STM32F10x_StdPeriph_Driver/src/stm32f10x_rcc.c **** #endif /* STM32F10X_CL */ 
 133:Libraries/STM32F10x_StdPeriph_Driver/src/stm32f10x_rcc.c **** 
 134:Libraries/STM32F10x_StdPeriph_Driver/src/stm32f10x_rcc.c **** #define CFGR_PLLMull_Mask         ((uint32_t)0x003C0000)
 135:Libraries/STM32F10x_StdPeriph_Driver/src/stm32f10x_rcc.c **** #define CFGR_PLLSRC_Mask          ((uint32_t)0x00010000)
 136:Libraries/STM32F10x_StdPeriph_Driver/src/stm32f10x_rcc.c **** #define CFGR_PLLXTPRE_Mask        ((uint32_t)0x00020000)
 137:Libraries/STM32F10x_StdPeriph_Driver/src/stm32f10x_rcc.c **** #define CFGR_SWS_Mask             ((uint32_t)0x0000000C)
 138:Libraries/STM32F10x_StdPeriph_Driver/src/stm32f10x_rcc.c **** #define CFGR_SW_Mask              ((uint32_t)0xFFFFFFFC)
 139:Libraries/STM32F10x_StdPeriph_Driver/src/stm32f10x_rcc.c **** #define CFGR_HPRE_Reset_Mask      ((uint32_t)0xFFFFFF0F)
 140:Libraries/STM32F10x_StdPeriph_Driver/src/stm32f10x_rcc.c **** #define CFGR_HPRE_Set_Mask        ((uint32_t)0x000000F0)
 141:Libraries/STM32F10x_StdPeriph_Driver/src/stm32f10x_rcc.c **** #define CFGR_PPRE1_Reset_Mask     ((uint32_t)0xFFFFF8FF)
 142:Libraries/STM32F10x_StdPeriph_Driver/src/stm32f10x_rcc.c **** #define CFGR_PPRE1_Set_Mask       ((uint32_t)0x00000700)
 143:Libraries/STM32F10x_StdPeriph_Driver/src/stm32f10x_rcc.c **** #define CFGR_PPRE2_Reset_Mask     ((uint32_t)0xFFFFC7FF)
 144:Libraries/STM32F10x_StdPeriph_Driver/src/stm32f10x_rcc.c **** #define CFGR_PPRE2_Set_Mask       ((uint32_t)0x00003800)
ARM GAS  /var/folders/lp/0dm50ddn51vc39svyzv_6fp00000gn/T//ccS91u3A.s 			page 5


 145:Libraries/STM32F10x_StdPeriph_Driver/src/stm32f10x_rcc.c **** #define CFGR_ADCPRE_Reset_Mask    ((uint32_t)0xFFFF3FFF)
 146:Libraries/STM32F10x_StdPeriph_Driver/src/stm32f10x_rcc.c **** #define CFGR_ADCPRE_Set_Mask      ((uint32_t)0x0000C000)
 147:Libraries/STM32F10x_StdPeriph_Driver/src/stm32f10x_rcc.c **** 
 148:Libraries/STM32F10x_StdPeriph_Driver/src/stm32f10x_rcc.c **** /* CSR register bit mask */
 149:Libraries/STM32F10x_StdPeriph_Driver/src/stm32f10x_rcc.c **** #define CSR_RMVF_Set              ((uint32_t)0x01000000)
 150:Libraries/STM32F10x_StdPeriph_Driver/src/stm32f10x_rcc.c **** 
 151:Libraries/STM32F10x_StdPeriph_Driver/src/stm32f10x_rcc.c **** #if defined (STM32F10X_LD_VL) || defined (STM32F10X_MD_VL) || defined (STM32F10X_HD_VL) || defined 
 152:Libraries/STM32F10x_StdPeriph_Driver/src/stm32f10x_rcc.c **** /* CFGR2 register bit mask */
 153:Libraries/STM32F10x_StdPeriph_Driver/src/stm32f10x_rcc.c ****  #define CFGR2_PREDIV1SRC         ((uint32_t)0x00010000)
 154:Libraries/STM32F10x_StdPeriph_Driver/src/stm32f10x_rcc.c ****  #define CFGR2_PREDIV1            ((uint32_t)0x0000000F)
 155:Libraries/STM32F10x_StdPeriph_Driver/src/stm32f10x_rcc.c **** #endif
 156:Libraries/STM32F10x_StdPeriph_Driver/src/stm32f10x_rcc.c **** #ifdef STM32F10X_CL
 157:Libraries/STM32F10x_StdPeriph_Driver/src/stm32f10x_rcc.c ****  #define CFGR2_PREDIV2            ((uint32_t)0x000000F0)
 158:Libraries/STM32F10x_StdPeriph_Driver/src/stm32f10x_rcc.c ****  #define CFGR2_PLL2MUL            ((uint32_t)0x00000F00)
 159:Libraries/STM32F10x_StdPeriph_Driver/src/stm32f10x_rcc.c ****  #define CFGR2_PLL3MUL            ((uint32_t)0x0000F000)
 160:Libraries/STM32F10x_StdPeriph_Driver/src/stm32f10x_rcc.c **** #endif /* STM32F10X_CL */ 
 161:Libraries/STM32F10x_StdPeriph_Driver/src/stm32f10x_rcc.c **** 
 162:Libraries/STM32F10x_StdPeriph_Driver/src/stm32f10x_rcc.c **** /* RCC Flag Mask */
 163:Libraries/STM32F10x_StdPeriph_Driver/src/stm32f10x_rcc.c **** #define FLAG_Mask                 ((uint8_t)0x1F)
 164:Libraries/STM32F10x_StdPeriph_Driver/src/stm32f10x_rcc.c **** 
 165:Libraries/STM32F10x_StdPeriph_Driver/src/stm32f10x_rcc.c **** /* CIR register byte 2 (Bits[15:8]) base address */
 166:Libraries/STM32F10x_StdPeriph_Driver/src/stm32f10x_rcc.c **** #define CIR_BYTE2_ADDRESS         ((uint32_t)0x40021009)
 167:Libraries/STM32F10x_StdPeriph_Driver/src/stm32f10x_rcc.c **** 
 168:Libraries/STM32F10x_StdPeriph_Driver/src/stm32f10x_rcc.c **** /* CIR register byte 3 (Bits[23:16]) base address */
 169:Libraries/STM32F10x_StdPeriph_Driver/src/stm32f10x_rcc.c **** #define CIR_BYTE3_ADDRESS         ((uint32_t)0x4002100A)
 170:Libraries/STM32F10x_StdPeriph_Driver/src/stm32f10x_rcc.c **** 
 171:Libraries/STM32F10x_StdPeriph_Driver/src/stm32f10x_rcc.c **** /* CFGR register byte 4 (Bits[31:24]) base address */
 172:Libraries/STM32F10x_StdPeriph_Driver/src/stm32f10x_rcc.c **** #define CFGR_BYTE4_ADDRESS        ((uint32_t)0x40021007)
 173:Libraries/STM32F10x_StdPeriph_Driver/src/stm32f10x_rcc.c **** 
 174:Libraries/STM32F10x_StdPeriph_Driver/src/stm32f10x_rcc.c **** /* BDCR register base address */
 175:Libraries/STM32F10x_StdPeriph_Driver/src/stm32f10x_rcc.c **** #define BDCR_ADDRESS              (PERIPH_BASE + BDCR_OFFSET)
 176:Libraries/STM32F10x_StdPeriph_Driver/src/stm32f10x_rcc.c **** 
 177:Libraries/STM32F10x_StdPeriph_Driver/src/stm32f10x_rcc.c **** /**
 178:Libraries/STM32F10x_StdPeriph_Driver/src/stm32f10x_rcc.c ****   * @}
 179:Libraries/STM32F10x_StdPeriph_Driver/src/stm32f10x_rcc.c ****   */ 
 180:Libraries/STM32F10x_StdPeriph_Driver/src/stm32f10x_rcc.c **** 
 181:Libraries/STM32F10x_StdPeriph_Driver/src/stm32f10x_rcc.c **** /** @defgroup RCC_Private_Macros
 182:Libraries/STM32F10x_StdPeriph_Driver/src/stm32f10x_rcc.c ****   * @{
 183:Libraries/STM32F10x_StdPeriph_Driver/src/stm32f10x_rcc.c ****   */ 
 184:Libraries/STM32F10x_StdPeriph_Driver/src/stm32f10x_rcc.c **** 
 185:Libraries/STM32F10x_StdPeriph_Driver/src/stm32f10x_rcc.c **** /**
 186:Libraries/STM32F10x_StdPeriph_Driver/src/stm32f10x_rcc.c ****   * @}
 187:Libraries/STM32F10x_StdPeriph_Driver/src/stm32f10x_rcc.c ****   */ 
 188:Libraries/STM32F10x_StdPeriph_Driver/src/stm32f10x_rcc.c **** 
 189:Libraries/STM32F10x_StdPeriph_Driver/src/stm32f10x_rcc.c **** /** @defgroup RCC_Private_Variables
 190:Libraries/STM32F10x_StdPeriph_Driver/src/stm32f10x_rcc.c ****   * @{
 191:Libraries/STM32F10x_StdPeriph_Driver/src/stm32f10x_rcc.c ****   */ 
 192:Libraries/STM32F10x_StdPeriph_Driver/src/stm32f10x_rcc.c **** 
 193:Libraries/STM32F10x_StdPeriph_Driver/src/stm32f10x_rcc.c **** static __I uint8_t APBAHBPrescTable[16] = {0, 0, 0, 0, 1, 2, 3, 4, 1, 2, 3, 4, 6, 7, 8, 9};
 194:Libraries/STM32F10x_StdPeriph_Driver/src/stm32f10x_rcc.c **** static __I uint8_t ADCPrescTable[4] = {2, 4, 6, 8};
 195:Libraries/STM32F10x_StdPeriph_Driver/src/stm32f10x_rcc.c **** 
 196:Libraries/STM32F10x_StdPeriph_Driver/src/stm32f10x_rcc.c **** /**
 197:Libraries/STM32F10x_StdPeriph_Driver/src/stm32f10x_rcc.c ****   * @}
 198:Libraries/STM32F10x_StdPeriph_Driver/src/stm32f10x_rcc.c ****   */
 199:Libraries/STM32F10x_StdPeriph_Driver/src/stm32f10x_rcc.c **** 
 200:Libraries/STM32F10x_StdPeriph_Driver/src/stm32f10x_rcc.c **** /** @defgroup RCC_Private_FunctionPrototypes
 201:Libraries/STM32F10x_StdPeriph_Driver/src/stm32f10x_rcc.c ****   * @{
ARM GAS  /var/folders/lp/0dm50ddn51vc39svyzv_6fp00000gn/T//ccS91u3A.s 			page 6


 202:Libraries/STM32F10x_StdPeriph_Driver/src/stm32f10x_rcc.c ****   */
 203:Libraries/STM32F10x_StdPeriph_Driver/src/stm32f10x_rcc.c **** 
 204:Libraries/STM32F10x_StdPeriph_Driver/src/stm32f10x_rcc.c **** /**
 205:Libraries/STM32F10x_StdPeriph_Driver/src/stm32f10x_rcc.c ****   * @}
 206:Libraries/STM32F10x_StdPeriph_Driver/src/stm32f10x_rcc.c ****   */
 207:Libraries/STM32F10x_StdPeriph_Driver/src/stm32f10x_rcc.c **** 
 208:Libraries/STM32F10x_StdPeriph_Driver/src/stm32f10x_rcc.c **** /** @defgroup RCC_Private_Functions
 209:Libraries/STM32F10x_StdPeriph_Driver/src/stm32f10x_rcc.c ****   * @{
 210:Libraries/STM32F10x_StdPeriph_Driver/src/stm32f10x_rcc.c ****   */
 211:Libraries/STM32F10x_StdPeriph_Driver/src/stm32f10x_rcc.c **** 
 212:Libraries/STM32F10x_StdPeriph_Driver/src/stm32f10x_rcc.c **** /**
 213:Libraries/STM32F10x_StdPeriph_Driver/src/stm32f10x_rcc.c ****   * @brief  Resets the RCC clock configuration to the default reset state.
 214:Libraries/STM32F10x_StdPeriph_Driver/src/stm32f10x_rcc.c ****   * @param  None
 215:Libraries/STM32F10x_StdPeriph_Driver/src/stm32f10x_rcc.c ****   * @retval None
 216:Libraries/STM32F10x_StdPeriph_Driver/src/stm32f10x_rcc.c ****   */
 217:Libraries/STM32F10x_StdPeriph_Driver/src/stm32f10x_rcc.c **** void RCC_DeInit(void)
 218:Libraries/STM32F10x_StdPeriph_Driver/src/stm32f10x_rcc.c **** {
  85              		.loc 1 218 0
  86              		.cfi_startproc
  87              		@ args = 0, pretend = 0, frame = 0
  88              		@ frame_needed = 0, uses_anonymous_args = 0
  89              		@ link register save eliminated.
 219:Libraries/STM32F10x_StdPeriph_Driver/src/stm32f10x_rcc.c ****   /* Set HSION bit */
 220:Libraries/STM32F10x_StdPeriph_Driver/src/stm32f10x_rcc.c ****   RCC->CR |= (uint32_t)0x00000001;
  90              		.loc 1 220 0
  91 0000 0E4B     		ldr	r3, .L2	@ tmp120,
  92 0002 1A68     		ldr	r2, [r3]	@ D.6940, MEM[(struct RCC_TypeDef *)1073876992B].CR
  93 0004 42F00102 		orr	r2, r2, #1	@ D.6940, D.6940,
  94 0008 1A60     		str	r2, [r3]	@ D.6940, MEM[(struct RCC_TypeDef *)1073876992B].CR
 221:Libraries/STM32F10x_StdPeriph_Driver/src/stm32f10x_rcc.c **** 
 222:Libraries/STM32F10x_StdPeriph_Driver/src/stm32f10x_rcc.c ****   /* Reset SW, HPRE, PPRE1, PPRE2, ADCPRE and MCO bits */
 223:Libraries/STM32F10x_StdPeriph_Driver/src/stm32f10x_rcc.c **** #ifndef STM32F10X_CL
 224:Libraries/STM32F10x_StdPeriph_Driver/src/stm32f10x_rcc.c ****   RCC->CFGR &= (uint32_t)0xF8FF0000;
  95              		.loc 1 224 0
  96 000a 5968     		ldr	r1, [r3, #4]	@ D.6940, MEM[(struct RCC_TypeDef *)1073876992B].CFGR
  97 000c 0C4A     		ldr	r2, .L2+4	@ D.6940,
  98 000e 0A40     		ands	r2, r2, r1	@, D.6940, D.6940, D.6940
  99 0010 5A60     		str	r2, [r3, #4]	@ D.6940, MEM[(struct RCC_TypeDef *)1073876992B].CFGR
 225:Libraries/STM32F10x_StdPeriph_Driver/src/stm32f10x_rcc.c **** #else
 226:Libraries/STM32F10x_StdPeriph_Driver/src/stm32f10x_rcc.c ****   RCC->CFGR &= (uint32_t)0xF0FF0000;
 227:Libraries/STM32F10x_StdPeriph_Driver/src/stm32f10x_rcc.c **** #endif /* STM32F10X_CL */   
 228:Libraries/STM32F10x_StdPeriph_Driver/src/stm32f10x_rcc.c ****   
 229:Libraries/STM32F10x_StdPeriph_Driver/src/stm32f10x_rcc.c ****   /* Reset HSEON, CSSON and PLLON bits */
 230:Libraries/STM32F10x_StdPeriph_Driver/src/stm32f10x_rcc.c ****   RCC->CR &= (uint32_t)0xFEF6FFFF;
 100              		.loc 1 230 0
 101 0012 1A68     		ldr	r2, [r3]	@ D.6940, MEM[(struct RCC_TypeDef *)1073876992B].CR
 102 0014 22F08472 		bic	r2, r2, #17301504	@ D.6940, D.6940,
 103 0018 22F48032 		bic	r2, r2, #65536	@ D.6940, D.6940,
 104 001c 1A60     		str	r2, [r3]	@ D.6940, MEM[(struct RCC_TypeDef *)1073876992B].CR
 231:Libraries/STM32F10x_StdPeriph_Driver/src/stm32f10x_rcc.c **** 
 232:Libraries/STM32F10x_StdPeriph_Driver/src/stm32f10x_rcc.c ****   /* Reset HSEBYP bit */
 233:Libraries/STM32F10x_StdPeriph_Driver/src/stm32f10x_rcc.c ****   RCC->CR &= (uint32_t)0xFFFBFFFF;
 105              		.loc 1 233 0
 106 001e 1A68     		ldr	r2, [r3]	@ D.6940, MEM[(struct RCC_TypeDef *)1073876992B].CR
 107 0020 22F48022 		bic	r2, r2, #262144	@ D.6940, D.6940,
 108 0024 1A60     		str	r2, [r3]	@ D.6940, MEM[(struct RCC_TypeDef *)1073876992B].CR
 234:Libraries/STM32F10x_StdPeriph_Driver/src/stm32f10x_rcc.c **** 
ARM GAS  /var/folders/lp/0dm50ddn51vc39svyzv_6fp00000gn/T//ccS91u3A.s 			page 7


 235:Libraries/STM32F10x_StdPeriph_Driver/src/stm32f10x_rcc.c ****   /* Reset PLLSRC, PLLXTPRE, PLLMUL and USBPRE/OTGFSPRE bits */
 236:Libraries/STM32F10x_StdPeriph_Driver/src/stm32f10x_rcc.c ****   RCC->CFGR &= (uint32_t)0xFF80FFFF;
 109              		.loc 1 236 0
 110 0026 5A68     		ldr	r2, [r3, #4]	@ D.6940, MEM[(struct RCC_TypeDef *)1073876992B].CFGR
 111 0028 22F4FE02 		bic	r2, r2, #8323072	@ D.6940, D.6940,
 112 002c 5A60     		str	r2, [r3, #4]	@ D.6940, MEM[(struct RCC_TypeDef *)1073876992B].CFGR
 237:Libraries/STM32F10x_StdPeriph_Driver/src/stm32f10x_rcc.c **** 
 238:Libraries/STM32F10x_StdPeriph_Driver/src/stm32f10x_rcc.c **** #ifdef STM32F10X_CL
 239:Libraries/STM32F10x_StdPeriph_Driver/src/stm32f10x_rcc.c ****   /* Reset PLL2ON and PLL3ON bits */
 240:Libraries/STM32F10x_StdPeriph_Driver/src/stm32f10x_rcc.c ****   RCC->CR &= (uint32_t)0xEBFFFFFF;
 241:Libraries/STM32F10x_StdPeriph_Driver/src/stm32f10x_rcc.c **** 
 242:Libraries/STM32F10x_StdPeriph_Driver/src/stm32f10x_rcc.c ****   /* Disable all interrupts and clear pending bits  */
 243:Libraries/STM32F10x_StdPeriph_Driver/src/stm32f10x_rcc.c ****   RCC->CIR = 0x00FF0000;
 244:Libraries/STM32F10x_StdPeriph_Driver/src/stm32f10x_rcc.c **** 
 245:Libraries/STM32F10x_StdPeriph_Driver/src/stm32f10x_rcc.c ****   /* Reset CFGR2 register */
 246:Libraries/STM32F10x_StdPeriph_Driver/src/stm32f10x_rcc.c ****   RCC->CFGR2 = 0x00000000;
 247:Libraries/STM32F10x_StdPeriph_Driver/src/stm32f10x_rcc.c **** #elif defined (STM32F10X_LD_VL) || defined (STM32F10X_MD_VL) || defined (STM32F10X_HD_VL)
 248:Libraries/STM32F10x_StdPeriph_Driver/src/stm32f10x_rcc.c ****   /* Disable all interrupts and clear pending bits  */
 249:Libraries/STM32F10x_StdPeriph_Driver/src/stm32f10x_rcc.c ****   RCC->CIR = 0x009F0000;
 113              		.loc 1 249 0
 114 002e 4FF41F02 		mov	r2, #10420224	@ tmp133,
 115 0032 9A60     		str	r2, [r3, #8]	@ tmp133, MEM[(struct RCC_TypeDef *)1073876992B].CIR
 250:Libraries/STM32F10x_StdPeriph_Driver/src/stm32f10x_rcc.c **** 
 251:Libraries/STM32F10x_StdPeriph_Driver/src/stm32f10x_rcc.c ****   /* Reset CFGR2 register */
 252:Libraries/STM32F10x_StdPeriph_Driver/src/stm32f10x_rcc.c ****   RCC->CFGR2 = 0x00000000;      
 116              		.loc 1 252 0
 117 0034 0022     		movs	r2, #0	@ tmp135,
 118 0036 DA62     		str	r2, [r3, #44]	@ tmp135, MEM[(struct RCC_TypeDef *)1073876992B].CFGR2
 119 0038 7047     		bx	lr	@
 120              	.L3:
 121 003a 00BF     		.align	2
 122              	.L2:
 123 003c 00100240 		.word	1073876992
 124 0040 0000FFF8 		.word	-117506048
 125              		.cfi_endproc
 126              	.LFE29:
 127              		.size	RCC_DeInit, .-RCC_DeInit
 128              		.align	1
 129              		.global	RCC_HSEConfig
 130              		.thumb
 131              		.thumb_func
 132              		.type	RCC_HSEConfig, %function
 133              	RCC_HSEConfig:
 134              	.LFB30:
 253:Libraries/STM32F10x_StdPeriph_Driver/src/stm32f10x_rcc.c **** #else
 254:Libraries/STM32F10x_StdPeriph_Driver/src/stm32f10x_rcc.c ****   /* Disable all interrupts and clear pending bits  */
 255:Libraries/STM32F10x_StdPeriph_Driver/src/stm32f10x_rcc.c ****   RCC->CIR = 0x009F0000;
 256:Libraries/STM32F10x_StdPeriph_Driver/src/stm32f10x_rcc.c **** #endif /* STM32F10X_CL */
 257:Libraries/STM32F10x_StdPeriph_Driver/src/stm32f10x_rcc.c **** 
 258:Libraries/STM32F10x_StdPeriph_Driver/src/stm32f10x_rcc.c **** }
 259:Libraries/STM32F10x_StdPeriph_Driver/src/stm32f10x_rcc.c **** 
 260:Libraries/STM32F10x_StdPeriph_Driver/src/stm32f10x_rcc.c **** /**
 261:Libraries/STM32F10x_StdPeriph_Driver/src/stm32f10x_rcc.c ****   * @brief  Configures the External High Speed oscillator (HSE).
 262:Libraries/STM32F10x_StdPeriph_Driver/src/stm32f10x_rcc.c ****   * @note   HSE can not be stopped if it is used directly or through the PLL as system clock.
 263:Libraries/STM32F10x_StdPeriph_Driver/src/stm32f10x_rcc.c ****   * @param  RCC_HSE: specifies the new state of the HSE.
 264:Libraries/STM32F10x_StdPeriph_Driver/src/stm32f10x_rcc.c ****   *   This parameter can be one of the following values:
 265:Libraries/STM32F10x_StdPeriph_Driver/src/stm32f10x_rcc.c ****   *     @arg RCC_HSE_OFF: HSE oscillator OFF
ARM GAS  /var/folders/lp/0dm50ddn51vc39svyzv_6fp00000gn/T//ccS91u3A.s 			page 8


 266:Libraries/STM32F10x_StdPeriph_Driver/src/stm32f10x_rcc.c ****   *     @arg RCC_HSE_ON: HSE oscillator ON
 267:Libraries/STM32F10x_StdPeriph_Driver/src/stm32f10x_rcc.c ****   *     @arg RCC_HSE_Bypass: HSE oscillator bypassed with external clock
 268:Libraries/STM32F10x_StdPeriph_Driver/src/stm32f10x_rcc.c ****   * @retval None
 269:Libraries/STM32F10x_StdPeriph_Driver/src/stm32f10x_rcc.c ****   */
 270:Libraries/STM32F10x_StdPeriph_Driver/src/stm32f10x_rcc.c **** void RCC_HSEConfig(uint32_t RCC_HSE)
 271:Libraries/STM32F10x_StdPeriph_Driver/src/stm32f10x_rcc.c **** {
 135              		.loc 1 271 0
 136              		.cfi_startproc
 137              		@ args = 0, pretend = 0, frame = 0
 138              		@ frame_needed = 0, uses_anonymous_args = 0
 139              		@ link register save eliminated.
 140              	.LVL0:
 272:Libraries/STM32F10x_StdPeriph_Driver/src/stm32f10x_rcc.c ****   /* Check the parameters */
 273:Libraries/STM32F10x_StdPeriph_Driver/src/stm32f10x_rcc.c ****   assert_param(IS_RCC_HSE(RCC_HSE));
 274:Libraries/STM32F10x_StdPeriph_Driver/src/stm32f10x_rcc.c ****   /* Reset HSEON and HSEBYP bits before configuring the HSE ------------------*/
 275:Libraries/STM32F10x_StdPeriph_Driver/src/stm32f10x_rcc.c ****   /* Reset HSEON bit */
 276:Libraries/STM32F10x_StdPeriph_Driver/src/stm32f10x_rcc.c ****   RCC->CR &= CR_HSEON_Reset;
 141              		.loc 1 276 0
 142 0044 0C4B     		ldr	r3, .L10	@ tmp119,
 277:Libraries/STM32F10x_StdPeriph_Driver/src/stm32f10x_rcc.c ****   /* Reset HSEBYP bit */
 278:Libraries/STM32F10x_StdPeriph_Driver/src/stm32f10x_rcc.c ****   RCC->CR &= CR_HSEBYP_Reset;
 279:Libraries/STM32F10x_StdPeriph_Driver/src/stm32f10x_rcc.c ****   /* Configure HSE (RCC_HSE_OFF is already covered by the code section above) */
 280:Libraries/STM32F10x_StdPeriph_Driver/src/stm32f10x_rcc.c ****   switch(RCC_HSE)
 143              		.loc 1 280 0
 144 0046 B0F5803F 		cmp	r0, #65536	@ RCC_HSE,
 276:Libraries/STM32F10x_StdPeriph_Driver/src/stm32f10x_rcc.c ****   /* Reset HSEBYP bit */
 145              		.loc 1 276 0
 146 004a 1A68     		ldr	r2, [r3]	@ D.6945, MEM[(struct RCC_TypeDef *)1073876992B].CR
 147 004c 22F48032 		bic	r2, r2, #65536	@ D.6945, D.6945,
 148 0050 1A60     		str	r2, [r3]	@ D.6945, MEM[(struct RCC_TypeDef *)1073876992B].CR
 278:Libraries/STM32F10x_StdPeriph_Driver/src/stm32f10x_rcc.c ****   /* Configure HSE (RCC_HSE_OFF is already covered by the code section above) */
 149              		.loc 1 278 0
 150 0052 1A68     		ldr	r2, [r3]	@ D.6945, MEM[(struct RCC_TypeDef *)1073876992B].CR
 151 0054 22F48022 		bic	r2, r2, #262144	@ D.6945, D.6945,
 152 0058 1A60     		str	r2, [r3]	@ D.6945, MEM[(struct RCC_TypeDef *)1073876992B].CR
 153              		.loc 1 280 0
 154 005a 03D0     		beq	.L6	@,
 155 005c B0F5802F 		cmp	r0, #262144	@ RCC_HSE,
 156 0060 04D0     		beq	.L7	@,
 157 0062 7047     		bx	lr	@
 158              	.L6:
 281:Libraries/STM32F10x_StdPeriph_Driver/src/stm32f10x_rcc.c ****   {
 282:Libraries/STM32F10x_StdPeriph_Driver/src/stm32f10x_rcc.c ****     case RCC_HSE_ON:
 283:Libraries/STM32F10x_StdPeriph_Driver/src/stm32f10x_rcc.c ****       /* Set HSEON bit */
 284:Libraries/STM32F10x_StdPeriph_Driver/src/stm32f10x_rcc.c ****       RCC->CR |= CR_HSEON_Set;
 159              		.loc 1 284 0
 160 0064 1A68     		ldr	r2, [r3]	@ D.6945, MEM[(struct RCC_TypeDef *)1073876992B].CR
 161 0066 42F48032 		orr	r2, r2, #65536	@ D.6945, D.6945,
 162 006a 02E0     		b	.L8	@
 163              	.L7:
 285:Libraries/STM32F10x_StdPeriph_Driver/src/stm32f10x_rcc.c ****       break;
 286:Libraries/STM32F10x_StdPeriph_Driver/src/stm32f10x_rcc.c ****       
 287:Libraries/STM32F10x_StdPeriph_Driver/src/stm32f10x_rcc.c ****     case RCC_HSE_Bypass:
 288:Libraries/STM32F10x_StdPeriph_Driver/src/stm32f10x_rcc.c ****       /* Set HSEBYP and HSEON bits */
 289:Libraries/STM32F10x_StdPeriph_Driver/src/stm32f10x_rcc.c ****       RCC->CR |= CR_HSEBYP_Set | CR_HSEON_Set;
 164              		.loc 1 289 0
 165 006c 1A68     		ldr	r2, [r3]	@ D.6945, MEM[(struct RCC_TypeDef *)1073876992B].CR
ARM GAS  /var/folders/lp/0dm50ddn51vc39svyzv_6fp00000gn/T//ccS91u3A.s 			page 9


 166 006e 42F4A022 		orr	r2, r2, #327680	@ D.6945, D.6945,
 167              	.L8:
 168 0072 1A60     		str	r2, [r3]	@ D.6945,
 169 0074 7047     		bx	lr	@
 170              	.L11:
 171 0076 00BF     		.align	2
 172              	.L10:
 173 0078 00100240 		.word	1073876992
 174              		.cfi_endproc
 175              	.LFE30:
 176              		.size	RCC_HSEConfig, .-RCC_HSEConfig
 177              		.align	1
 178              		.global	RCC_AdjustHSICalibrationValue
 179              		.thumb
 180              		.thumb_func
 181              		.type	RCC_AdjustHSICalibrationValue, %function
 182              	RCC_AdjustHSICalibrationValue:
 183              	.LFB32:
 290:Libraries/STM32F10x_StdPeriph_Driver/src/stm32f10x_rcc.c ****       break;
 291:Libraries/STM32F10x_StdPeriph_Driver/src/stm32f10x_rcc.c ****       
 292:Libraries/STM32F10x_StdPeriph_Driver/src/stm32f10x_rcc.c ****     default:
 293:Libraries/STM32F10x_StdPeriph_Driver/src/stm32f10x_rcc.c ****       break;
 294:Libraries/STM32F10x_StdPeriph_Driver/src/stm32f10x_rcc.c ****   }
 295:Libraries/STM32F10x_StdPeriph_Driver/src/stm32f10x_rcc.c **** }
 296:Libraries/STM32F10x_StdPeriph_Driver/src/stm32f10x_rcc.c **** 
 297:Libraries/STM32F10x_StdPeriph_Driver/src/stm32f10x_rcc.c **** /**
 298:Libraries/STM32F10x_StdPeriph_Driver/src/stm32f10x_rcc.c ****   * @brief  Waits for HSE start-up.
 299:Libraries/STM32F10x_StdPeriph_Driver/src/stm32f10x_rcc.c ****   * @param  None
 300:Libraries/STM32F10x_StdPeriph_Driver/src/stm32f10x_rcc.c ****   * @retval An ErrorStatus enumuration value:
 301:Libraries/STM32F10x_StdPeriph_Driver/src/stm32f10x_rcc.c ****   * - SUCCESS: HSE oscillator is stable and ready to use
 302:Libraries/STM32F10x_StdPeriph_Driver/src/stm32f10x_rcc.c ****   * - ERROR: HSE oscillator not yet ready
 303:Libraries/STM32F10x_StdPeriph_Driver/src/stm32f10x_rcc.c ****   */
 304:Libraries/STM32F10x_StdPeriph_Driver/src/stm32f10x_rcc.c **** ErrorStatus RCC_WaitForHSEStartUp(void)
 305:Libraries/STM32F10x_StdPeriph_Driver/src/stm32f10x_rcc.c **** {
 306:Libraries/STM32F10x_StdPeriph_Driver/src/stm32f10x_rcc.c ****   __IO uint32_t StartUpCounter = 0;
 307:Libraries/STM32F10x_StdPeriph_Driver/src/stm32f10x_rcc.c ****   ErrorStatus status = ERROR;
 308:Libraries/STM32F10x_StdPeriph_Driver/src/stm32f10x_rcc.c ****   FlagStatus HSEStatus = RESET;
 309:Libraries/STM32F10x_StdPeriph_Driver/src/stm32f10x_rcc.c ****   
 310:Libraries/STM32F10x_StdPeriph_Driver/src/stm32f10x_rcc.c ****   /* Wait till HSE is ready and if Time out is reached exit */
 311:Libraries/STM32F10x_StdPeriph_Driver/src/stm32f10x_rcc.c ****   do
 312:Libraries/STM32F10x_StdPeriph_Driver/src/stm32f10x_rcc.c ****   {
 313:Libraries/STM32F10x_StdPeriph_Driver/src/stm32f10x_rcc.c ****     HSEStatus = RCC_GetFlagStatus(RCC_FLAG_HSERDY);
 314:Libraries/STM32F10x_StdPeriph_Driver/src/stm32f10x_rcc.c ****     StartUpCounter++;  
 315:Libraries/STM32F10x_StdPeriph_Driver/src/stm32f10x_rcc.c ****   } while((StartUpCounter != HSE_STARTUP_TIMEOUT) && (HSEStatus == RESET));
 316:Libraries/STM32F10x_StdPeriph_Driver/src/stm32f10x_rcc.c ****   
 317:Libraries/STM32F10x_StdPeriph_Driver/src/stm32f10x_rcc.c ****   if (RCC_GetFlagStatus(RCC_FLAG_HSERDY) != RESET)
 318:Libraries/STM32F10x_StdPeriph_Driver/src/stm32f10x_rcc.c ****   {
 319:Libraries/STM32F10x_StdPeriph_Driver/src/stm32f10x_rcc.c ****     status = SUCCESS;
 320:Libraries/STM32F10x_StdPeriph_Driver/src/stm32f10x_rcc.c ****   }
 321:Libraries/STM32F10x_StdPeriph_Driver/src/stm32f10x_rcc.c ****   else
 322:Libraries/STM32F10x_StdPeriph_Driver/src/stm32f10x_rcc.c ****   {
 323:Libraries/STM32F10x_StdPeriph_Driver/src/stm32f10x_rcc.c ****     status = ERROR;
 324:Libraries/STM32F10x_StdPeriph_Driver/src/stm32f10x_rcc.c ****   }  
 325:Libraries/STM32F10x_StdPeriph_Driver/src/stm32f10x_rcc.c ****   return (status);
 326:Libraries/STM32F10x_StdPeriph_Driver/src/stm32f10x_rcc.c **** }
 327:Libraries/STM32F10x_StdPeriph_Driver/src/stm32f10x_rcc.c **** 
 328:Libraries/STM32F10x_StdPeriph_Driver/src/stm32f10x_rcc.c **** /**
ARM GAS  /var/folders/lp/0dm50ddn51vc39svyzv_6fp00000gn/T//ccS91u3A.s 			page 10


 329:Libraries/STM32F10x_StdPeriph_Driver/src/stm32f10x_rcc.c ****   * @brief  Adjusts the Internal High Speed oscillator (HSI) calibration value.
 330:Libraries/STM32F10x_StdPeriph_Driver/src/stm32f10x_rcc.c ****   * @param  HSICalibrationValue: specifies the calibration trimming value.
 331:Libraries/STM32F10x_StdPeriph_Driver/src/stm32f10x_rcc.c ****   *   This parameter must be a number between 0 and 0x1F.
 332:Libraries/STM32F10x_StdPeriph_Driver/src/stm32f10x_rcc.c ****   * @retval None
 333:Libraries/STM32F10x_StdPeriph_Driver/src/stm32f10x_rcc.c ****   */
 334:Libraries/STM32F10x_StdPeriph_Driver/src/stm32f10x_rcc.c **** void RCC_AdjustHSICalibrationValue(uint8_t HSICalibrationValue)
 335:Libraries/STM32F10x_StdPeriph_Driver/src/stm32f10x_rcc.c **** {
 184              		.loc 1 335 0
 185              		.cfi_startproc
 186              		@ args = 0, pretend = 0, frame = 0
 187              		@ frame_needed = 0, uses_anonymous_args = 0
 188              		@ link register save eliminated.
 189              	.LVL1:
 336:Libraries/STM32F10x_StdPeriph_Driver/src/stm32f10x_rcc.c ****   uint32_t tmpreg = 0;
 337:Libraries/STM32F10x_StdPeriph_Driver/src/stm32f10x_rcc.c ****   /* Check the parameters */
 338:Libraries/STM32F10x_StdPeriph_Driver/src/stm32f10x_rcc.c ****   assert_param(IS_RCC_CALIBRATION_VALUE(HSICalibrationValue));
 339:Libraries/STM32F10x_StdPeriph_Driver/src/stm32f10x_rcc.c ****   tmpreg = RCC->CR;
 190              		.loc 1 339 0
 191 007c 034A     		ldr	r2, .L13	@ tmp116,
 192 007e 1368     		ldr	r3, [r2]	@ tmpreg, MEM[(struct RCC_TypeDef *)1073876992B].CR
 193              	.LVL2:
 340:Libraries/STM32F10x_StdPeriph_Driver/src/stm32f10x_rcc.c ****   /* Clear HSITRIM[4:0] bits */
 341:Libraries/STM32F10x_StdPeriph_Driver/src/stm32f10x_rcc.c ****   tmpreg &= CR_HSITRIM_Mask;
 194              		.loc 1 341 0
 195 0080 23F0F803 		bic	r3, r3, #248	@ tmpreg, tmpreg,
 196              	.LVL3:
 342:Libraries/STM32F10x_StdPeriph_Driver/src/stm32f10x_rcc.c ****   /* Set the HSITRIM[4:0] bits according to HSICalibrationValue value */
 343:Libraries/STM32F10x_StdPeriph_Driver/src/stm32f10x_rcc.c ****   tmpreg |= (uint32_t)HSICalibrationValue << 3;
 197              		.loc 1 343 0
 198 0084 43EAC000 		orr	r0, r3, r0, lsl #3	@ tmpreg, tmpreg, HSICalibrationValue,
 199              	.LVL4:
 344:Libraries/STM32F10x_StdPeriph_Driver/src/stm32f10x_rcc.c ****   /* Store the new value */
 345:Libraries/STM32F10x_StdPeriph_Driver/src/stm32f10x_rcc.c ****   RCC->CR = tmpreg;
 200              		.loc 1 345 0
 201 0088 1060     		str	r0, [r2]	@ tmpreg, MEM[(struct RCC_TypeDef *)1073876992B].CR
 202 008a 7047     		bx	lr	@
 203              	.L14:
 204              		.align	2
 205              	.L13:
 206 008c 00100240 		.word	1073876992
 207              		.cfi_endproc
 208              	.LFE32:
 209              		.size	RCC_AdjustHSICalibrationValue, .-RCC_AdjustHSICalibrationValue
 210              		.align	1
 211              		.global	RCC_HSICmd
 212              		.thumb
 213              		.thumb_func
 214              		.type	RCC_HSICmd, %function
 215              	RCC_HSICmd:
 216              	.LFB33:
 346:Libraries/STM32F10x_StdPeriph_Driver/src/stm32f10x_rcc.c **** }
 347:Libraries/STM32F10x_StdPeriph_Driver/src/stm32f10x_rcc.c **** 
 348:Libraries/STM32F10x_StdPeriph_Driver/src/stm32f10x_rcc.c **** /**
 349:Libraries/STM32F10x_StdPeriph_Driver/src/stm32f10x_rcc.c ****   * @brief  Enables or disables the Internal High Speed oscillator (HSI).
 350:Libraries/STM32F10x_StdPeriph_Driver/src/stm32f10x_rcc.c ****   * @note   HSI can not be stopped if it is used directly or through the PLL as system clock.
 351:Libraries/STM32F10x_StdPeriph_Driver/src/stm32f10x_rcc.c ****   * @param  NewState: new state of the HSI. This parameter can be: ENABLE or DISABLE.
 352:Libraries/STM32F10x_StdPeriph_Driver/src/stm32f10x_rcc.c ****   * @retval None
ARM GAS  /var/folders/lp/0dm50ddn51vc39svyzv_6fp00000gn/T//ccS91u3A.s 			page 11


 353:Libraries/STM32F10x_StdPeriph_Driver/src/stm32f10x_rcc.c ****   */
 354:Libraries/STM32F10x_StdPeriph_Driver/src/stm32f10x_rcc.c **** void RCC_HSICmd(FunctionalState NewState)
 355:Libraries/STM32F10x_StdPeriph_Driver/src/stm32f10x_rcc.c **** {
 217              		.loc 1 355 0
 218              		.cfi_startproc
 219              		@ args = 0, pretend = 0, frame = 0
 220              		@ frame_needed = 0, uses_anonymous_args = 0
 221              		@ link register save eliminated.
 222              	.LVL5:
 356:Libraries/STM32F10x_StdPeriph_Driver/src/stm32f10x_rcc.c ****   /* Check the parameters */
 357:Libraries/STM32F10x_StdPeriph_Driver/src/stm32f10x_rcc.c ****   assert_param(IS_FUNCTIONAL_STATE(NewState));
 358:Libraries/STM32F10x_StdPeriph_Driver/src/stm32f10x_rcc.c ****   *(__IO uint32_t *) CR_HSION_BB = (uint32_t)NewState;
 223              		.loc 1 358 0
 224 0090 014B     		ldr	r3, .L16	@ tmp112,
 225 0092 1860     		str	r0, [r3]	@ NewState, MEM[(volatile uint32_t *)1111621632B]
 226 0094 7047     		bx	lr	@
 227              	.L17:
 228 0096 00BF     		.align	2
 229              	.L16:
 230 0098 00004242 		.word	1111621632
 231              		.cfi_endproc
 232              	.LFE33:
 233              		.size	RCC_HSICmd, .-RCC_HSICmd
 234              		.align	1
 235              		.global	RCC_PLLConfig
 236              		.thumb
 237              		.thumb_func
 238              		.type	RCC_PLLConfig, %function
 239              	RCC_PLLConfig:
 240              	.LFB34:
 359:Libraries/STM32F10x_StdPeriph_Driver/src/stm32f10x_rcc.c **** }
 360:Libraries/STM32F10x_StdPeriph_Driver/src/stm32f10x_rcc.c **** 
 361:Libraries/STM32F10x_StdPeriph_Driver/src/stm32f10x_rcc.c **** /**
 362:Libraries/STM32F10x_StdPeriph_Driver/src/stm32f10x_rcc.c ****   * @brief  Configures the PLL clock source and multiplication factor.
 363:Libraries/STM32F10x_StdPeriph_Driver/src/stm32f10x_rcc.c ****   * @note   This function must be used only when the PLL is disabled.
 364:Libraries/STM32F10x_StdPeriph_Driver/src/stm32f10x_rcc.c ****   * @param  RCC_PLLSource: specifies the PLL entry clock source.
 365:Libraries/STM32F10x_StdPeriph_Driver/src/stm32f10x_rcc.c ****   *   For @b STM32_Connectivity_line_devices or @b STM32_Value_line_devices, 
 366:Libraries/STM32F10x_StdPeriph_Driver/src/stm32f10x_rcc.c ****   *   this parameter can be one of the following values:
 367:Libraries/STM32F10x_StdPeriph_Driver/src/stm32f10x_rcc.c ****   *     @arg RCC_PLLSource_HSI_Div2: HSI oscillator clock divided by 2 selected as PLL clock entry
 368:Libraries/STM32F10x_StdPeriph_Driver/src/stm32f10x_rcc.c ****   *     @arg RCC_PLLSource_PREDIV1: PREDIV1 clock selected as PLL clock entry
 369:Libraries/STM32F10x_StdPeriph_Driver/src/stm32f10x_rcc.c ****   *   For @b other_STM32_devices, this parameter can be one of the following values:
 370:Libraries/STM32F10x_StdPeriph_Driver/src/stm32f10x_rcc.c ****   *     @arg RCC_PLLSource_HSI_Div2: HSI oscillator clock divided by 2 selected as PLL clock entry
 371:Libraries/STM32F10x_StdPeriph_Driver/src/stm32f10x_rcc.c ****   *     @arg RCC_PLLSource_HSE_Div1: HSE oscillator clock selected as PLL clock entry
 372:Libraries/STM32F10x_StdPeriph_Driver/src/stm32f10x_rcc.c ****   *     @arg RCC_PLLSource_HSE_Div2: HSE oscillator clock divided by 2 selected as PLL clock entry 
 373:Libraries/STM32F10x_StdPeriph_Driver/src/stm32f10x_rcc.c ****   * @param  RCC_PLLMul: specifies the PLL multiplication factor.
 374:Libraries/STM32F10x_StdPeriph_Driver/src/stm32f10x_rcc.c ****   *   For @b STM32_Connectivity_line_devices, this parameter can be RCC_PLLMul_x where x:{[4,9], 6_
 375:Libraries/STM32F10x_StdPeriph_Driver/src/stm32f10x_rcc.c ****   *   For @b other_STM32_devices, this parameter can be RCC_PLLMul_x where x:[2,16]  
 376:Libraries/STM32F10x_StdPeriph_Driver/src/stm32f10x_rcc.c ****   * @retval None
 377:Libraries/STM32F10x_StdPeriph_Driver/src/stm32f10x_rcc.c ****   */
 378:Libraries/STM32F10x_StdPeriph_Driver/src/stm32f10x_rcc.c **** void RCC_PLLConfig(uint32_t RCC_PLLSource, uint32_t RCC_PLLMul)
 379:Libraries/STM32F10x_StdPeriph_Driver/src/stm32f10x_rcc.c **** {
 241              		.loc 1 379 0
 242              		.cfi_startproc
 243              		@ args = 0, pretend = 0, frame = 0
 244              		@ frame_needed = 0, uses_anonymous_args = 0
 245              		@ link register save eliminated.
 246              	.LVL6:
ARM GAS  /var/folders/lp/0dm50ddn51vc39svyzv_6fp00000gn/T//ccS91u3A.s 			page 12


 380:Libraries/STM32F10x_StdPeriph_Driver/src/stm32f10x_rcc.c ****   uint32_t tmpreg = 0;
 381:Libraries/STM32F10x_StdPeriph_Driver/src/stm32f10x_rcc.c **** 
 382:Libraries/STM32F10x_StdPeriph_Driver/src/stm32f10x_rcc.c ****   /* Check the parameters */
 383:Libraries/STM32F10x_StdPeriph_Driver/src/stm32f10x_rcc.c ****   assert_param(IS_RCC_PLL_SOURCE(RCC_PLLSource));
 384:Libraries/STM32F10x_StdPeriph_Driver/src/stm32f10x_rcc.c ****   assert_param(IS_RCC_PLL_MUL(RCC_PLLMul));
 385:Libraries/STM32F10x_StdPeriph_Driver/src/stm32f10x_rcc.c **** 
 386:Libraries/STM32F10x_StdPeriph_Driver/src/stm32f10x_rcc.c ****   tmpreg = RCC->CFGR;
 247              		.loc 1 386 0
 248 009c 034A     		ldr	r2, .L19	@ tmp116,
 249 009e 5368     		ldr	r3, [r2, #4]	@ tmpreg, MEM[(struct RCC_TypeDef *)1073876992B].CFGR
 250              	.LVL7:
 251 00a0 23F47413 		bic	r3, r3, #3997696	@ tmpreg, tmpreg,
 252              	.LVL8:
 253 00a4 1943     		orrs	r1, r1, r3	@, D.6954, RCC_PLLMul, tmpreg
 254              	.LVL9:
 387:Libraries/STM32F10x_StdPeriph_Driver/src/stm32f10x_rcc.c ****   /* Clear PLLSRC, PLLXTPRE and PLLMUL[3:0] bits */
 388:Libraries/STM32F10x_StdPeriph_Driver/src/stm32f10x_rcc.c ****   tmpreg &= CFGR_PLL_Mask;
 389:Libraries/STM32F10x_StdPeriph_Driver/src/stm32f10x_rcc.c ****   /* Set the PLL configuration bits */
 390:Libraries/STM32F10x_StdPeriph_Driver/src/stm32f10x_rcc.c ****   tmpreg |= RCC_PLLSource | RCC_PLLMul;
 255              		.loc 1 390 0
 256 00a6 0843     		orrs	r0, r0, r1	@, tmpreg, RCC_PLLSource, D.6954
 257              	.LVL10:
 391:Libraries/STM32F10x_StdPeriph_Driver/src/stm32f10x_rcc.c ****   /* Store the new value */
 392:Libraries/STM32F10x_StdPeriph_Driver/src/stm32f10x_rcc.c ****   RCC->CFGR = tmpreg;
 258              		.loc 1 392 0
 259 00a8 5060     		str	r0, [r2, #4]	@ tmpreg, MEM[(struct RCC_TypeDef *)1073876992B].CFGR
 260 00aa 7047     		bx	lr	@
 261              	.L20:
 262              		.align	2
 263              	.L19:
 264 00ac 00100240 		.word	1073876992
 265              		.cfi_endproc
 266              	.LFE34:
 267              		.size	RCC_PLLConfig, .-RCC_PLLConfig
 268              		.align	1
 269              		.global	RCC_PLLCmd
 270              		.thumb
 271              		.thumb_func
 272              		.type	RCC_PLLCmd, %function
 273              	RCC_PLLCmd:
 274              	.LFB35:
 393:Libraries/STM32F10x_StdPeriph_Driver/src/stm32f10x_rcc.c **** }
 394:Libraries/STM32F10x_StdPeriph_Driver/src/stm32f10x_rcc.c **** 
 395:Libraries/STM32F10x_StdPeriph_Driver/src/stm32f10x_rcc.c **** /**
 396:Libraries/STM32F10x_StdPeriph_Driver/src/stm32f10x_rcc.c ****   * @brief  Enables or disables the PLL.
 397:Libraries/STM32F10x_StdPeriph_Driver/src/stm32f10x_rcc.c ****   * @note   The PLL can not be disabled if it is used as system clock.
 398:Libraries/STM32F10x_StdPeriph_Driver/src/stm32f10x_rcc.c ****   * @param  NewState: new state of the PLL. This parameter can be: ENABLE or DISABLE.
 399:Libraries/STM32F10x_StdPeriph_Driver/src/stm32f10x_rcc.c ****   * @retval None
 400:Libraries/STM32F10x_StdPeriph_Driver/src/stm32f10x_rcc.c ****   */
 401:Libraries/STM32F10x_StdPeriph_Driver/src/stm32f10x_rcc.c **** void RCC_PLLCmd(FunctionalState NewState)
 402:Libraries/STM32F10x_StdPeriph_Driver/src/stm32f10x_rcc.c **** {
 275              		.loc 1 402 0
 276              		.cfi_startproc
 277              		@ args = 0, pretend = 0, frame = 0
 278              		@ frame_needed = 0, uses_anonymous_args = 0
 279              		@ link register save eliminated.
 280              	.LVL11:
ARM GAS  /var/folders/lp/0dm50ddn51vc39svyzv_6fp00000gn/T//ccS91u3A.s 			page 13


 403:Libraries/STM32F10x_StdPeriph_Driver/src/stm32f10x_rcc.c ****   /* Check the parameters */
 404:Libraries/STM32F10x_StdPeriph_Driver/src/stm32f10x_rcc.c ****   assert_param(IS_FUNCTIONAL_STATE(NewState));
 405:Libraries/STM32F10x_StdPeriph_Driver/src/stm32f10x_rcc.c **** 
 406:Libraries/STM32F10x_StdPeriph_Driver/src/stm32f10x_rcc.c ****   *(__IO uint32_t *) CR_PLLON_BB = (uint32_t)NewState;
 281              		.loc 1 406 0
 282 00b0 014B     		ldr	r3, .L22	@ tmp112,
 283 00b2 1860     		str	r0, [r3]	@ NewState, MEM[(volatile uint32_t *)1111621728B]
 284 00b4 7047     		bx	lr	@
 285              	.L23:
 286 00b6 00BF     		.align	2
 287              	.L22:
 288 00b8 60004242 		.word	1111621728
 289              		.cfi_endproc
 290              	.LFE35:
 291              		.size	RCC_PLLCmd, .-RCC_PLLCmd
 292              		.align	1
 293              		.global	RCC_PREDIV1Config
 294              		.thumb
 295              		.thumb_func
 296              		.type	RCC_PREDIV1Config, %function
 297              	RCC_PREDIV1Config:
 298              	.LFB36:
 407:Libraries/STM32F10x_StdPeriph_Driver/src/stm32f10x_rcc.c **** }
 408:Libraries/STM32F10x_StdPeriph_Driver/src/stm32f10x_rcc.c **** 
 409:Libraries/STM32F10x_StdPeriph_Driver/src/stm32f10x_rcc.c **** #if defined (STM32F10X_LD_VL) || defined (STM32F10X_MD_VL) || defined (STM32F10X_HD_VL) || defined 
 410:Libraries/STM32F10x_StdPeriph_Driver/src/stm32f10x_rcc.c **** /**
 411:Libraries/STM32F10x_StdPeriph_Driver/src/stm32f10x_rcc.c ****   * @brief  Configures the PREDIV1 division factor.
 412:Libraries/STM32F10x_StdPeriph_Driver/src/stm32f10x_rcc.c ****   * @note 
 413:Libraries/STM32F10x_StdPeriph_Driver/src/stm32f10x_rcc.c ****   *   - This function must be used only when the PLL is disabled.
 414:Libraries/STM32F10x_StdPeriph_Driver/src/stm32f10x_rcc.c ****   *   - This function applies only to STM32 Connectivity line and Value line 
 415:Libraries/STM32F10x_StdPeriph_Driver/src/stm32f10x_rcc.c ****   *     devices.
 416:Libraries/STM32F10x_StdPeriph_Driver/src/stm32f10x_rcc.c ****   * @param  RCC_PREDIV1_Source: specifies the PREDIV1 clock source.
 417:Libraries/STM32F10x_StdPeriph_Driver/src/stm32f10x_rcc.c ****   *   This parameter can be one of the following values:
 418:Libraries/STM32F10x_StdPeriph_Driver/src/stm32f10x_rcc.c ****   *     @arg RCC_PREDIV1_Source_HSE: HSE selected as PREDIV1 clock
 419:Libraries/STM32F10x_StdPeriph_Driver/src/stm32f10x_rcc.c ****   *     @arg RCC_PREDIV1_Source_PLL2: PLL2 selected as PREDIV1 clock
 420:Libraries/STM32F10x_StdPeriph_Driver/src/stm32f10x_rcc.c ****   * @note 
 421:Libraries/STM32F10x_StdPeriph_Driver/src/stm32f10x_rcc.c ****   *   For @b STM32_Value_line_devices this parameter is always RCC_PREDIV1_Source_HSE  
 422:Libraries/STM32F10x_StdPeriph_Driver/src/stm32f10x_rcc.c ****   * @param  RCC_PREDIV1_Div: specifies the PREDIV1 clock division factor.
 423:Libraries/STM32F10x_StdPeriph_Driver/src/stm32f10x_rcc.c ****   *   This parameter can be RCC_PREDIV1_Divx where x:[1,16]
 424:Libraries/STM32F10x_StdPeriph_Driver/src/stm32f10x_rcc.c ****   * @retval None
 425:Libraries/STM32F10x_StdPeriph_Driver/src/stm32f10x_rcc.c ****   */
 426:Libraries/STM32F10x_StdPeriph_Driver/src/stm32f10x_rcc.c **** void RCC_PREDIV1Config(uint32_t RCC_PREDIV1_Source, uint32_t RCC_PREDIV1_Div)
 427:Libraries/STM32F10x_StdPeriph_Driver/src/stm32f10x_rcc.c **** {
 299              		.loc 1 427 0
 300              		.cfi_startproc
 301              		@ args = 0, pretend = 0, frame = 0
 302              		@ frame_needed = 0, uses_anonymous_args = 0
 303              		@ link register save eliminated.
 304              	.LVL12:
 428:Libraries/STM32F10x_StdPeriph_Driver/src/stm32f10x_rcc.c ****   uint32_t tmpreg = 0;
 429:Libraries/STM32F10x_StdPeriph_Driver/src/stm32f10x_rcc.c ****   
 430:Libraries/STM32F10x_StdPeriph_Driver/src/stm32f10x_rcc.c ****   /* Check the parameters */
 431:Libraries/STM32F10x_StdPeriph_Driver/src/stm32f10x_rcc.c ****   assert_param(IS_RCC_PREDIV1_SOURCE(RCC_PREDIV1_Source));
 432:Libraries/STM32F10x_StdPeriph_Driver/src/stm32f10x_rcc.c ****   assert_param(IS_RCC_PREDIV1(RCC_PREDIV1_Div));
 433:Libraries/STM32F10x_StdPeriph_Driver/src/stm32f10x_rcc.c **** 
 434:Libraries/STM32F10x_StdPeriph_Driver/src/stm32f10x_rcc.c ****   tmpreg = RCC->CFGR2;
 305              		.loc 1 434 0
ARM GAS  /var/folders/lp/0dm50ddn51vc39svyzv_6fp00000gn/T//ccS91u3A.s 			page 14


 306 00bc 044A     		ldr	r2, .L25	@ tmp116,
 307 00be D36A     		ldr	r3, [r2, #44]	@ tmpreg, MEM[(struct RCC_TypeDef *)1073876992B].CFGR2
 308              	.LVL13:
 309 00c0 23F48033 		bic	r3, r3, #65536	@ tmpreg, tmpreg,
 310              	.LVL14:
 311 00c4 23F00F03 		bic	r3, r3, #15	@ tmpreg, tmpreg,
 312 00c8 1943     		orrs	r1, r1, r3	@, D.6960, RCC_PREDIV1_Div, tmpreg
 313              	.LVL15:
 435:Libraries/STM32F10x_StdPeriph_Driver/src/stm32f10x_rcc.c ****   /* Clear PREDIV1[3:0] and PREDIV1SRC bits */
 436:Libraries/STM32F10x_StdPeriph_Driver/src/stm32f10x_rcc.c ****   tmpreg &= ~(CFGR2_PREDIV1 | CFGR2_PREDIV1SRC);
 437:Libraries/STM32F10x_StdPeriph_Driver/src/stm32f10x_rcc.c ****   /* Set the PREDIV1 clock source and division factor */
 438:Libraries/STM32F10x_StdPeriph_Driver/src/stm32f10x_rcc.c ****   tmpreg |= RCC_PREDIV1_Source | RCC_PREDIV1_Div ;
 314              		.loc 1 438 0
 315 00ca 0843     		orrs	r0, r0, r1	@, tmpreg, RCC_PREDIV1_Source, D.6960
 316              	.LVL16:
 439:Libraries/STM32F10x_StdPeriph_Driver/src/stm32f10x_rcc.c ****   /* Store the new value */
 440:Libraries/STM32F10x_StdPeriph_Driver/src/stm32f10x_rcc.c ****   RCC->CFGR2 = tmpreg;
 317              		.loc 1 440 0
 318 00cc D062     		str	r0, [r2, #44]	@ tmpreg, MEM[(struct RCC_TypeDef *)1073876992B].CFGR2
 319 00ce 7047     		bx	lr	@
 320              	.L26:
 321              		.align	2
 322              	.L25:
 323 00d0 00100240 		.word	1073876992
 324              		.cfi_endproc
 325              	.LFE36:
 326              		.size	RCC_PREDIV1Config, .-RCC_PREDIV1Config
 327              		.align	1
 328              		.global	RCC_SYSCLKConfig
 329              		.thumb
 330              		.thumb_func
 331              		.type	RCC_SYSCLKConfig, %function
 332              	RCC_SYSCLKConfig:
 333              	.LFB37:
 441:Libraries/STM32F10x_StdPeriph_Driver/src/stm32f10x_rcc.c **** }
 442:Libraries/STM32F10x_StdPeriph_Driver/src/stm32f10x_rcc.c **** #endif
 443:Libraries/STM32F10x_StdPeriph_Driver/src/stm32f10x_rcc.c **** 
 444:Libraries/STM32F10x_StdPeriph_Driver/src/stm32f10x_rcc.c **** #ifdef STM32F10X_CL
 445:Libraries/STM32F10x_StdPeriph_Driver/src/stm32f10x_rcc.c **** /**
 446:Libraries/STM32F10x_StdPeriph_Driver/src/stm32f10x_rcc.c ****   * @brief  Configures the PREDIV2 division factor.
 447:Libraries/STM32F10x_StdPeriph_Driver/src/stm32f10x_rcc.c ****   * @note 
 448:Libraries/STM32F10x_StdPeriph_Driver/src/stm32f10x_rcc.c ****   *   - This function must be used only when both PLL2 and PLL3 are disabled.
 449:Libraries/STM32F10x_StdPeriph_Driver/src/stm32f10x_rcc.c ****   *   - This function applies only to STM32 Connectivity line devices.
 450:Libraries/STM32F10x_StdPeriph_Driver/src/stm32f10x_rcc.c ****   * @param  RCC_PREDIV2_Div: specifies the PREDIV2 clock division factor.
 451:Libraries/STM32F10x_StdPeriph_Driver/src/stm32f10x_rcc.c ****   *   This parameter can be RCC_PREDIV2_Divx where x:[1,16]
 452:Libraries/STM32F10x_StdPeriph_Driver/src/stm32f10x_rcc.c ****   * @retval None
 453:Libraries/STM32F10x_StdPeriph_Driver/src/stm32f10x_rcc.c ****   */
 454:Libraries/STM32F10x_StdPeriph_Driver/src/stm32f10x_rcc.c **** void RCC_PREDIV2Config(uint32_t RCC_PREDIV2_Div)
 455:Libraries/STM32F10x_StdPeriph_Driver/src/stm32f10x_rcc.c **** {
 456:Libraries/STM32F10x_StdPeriph_Driver/src/stm32f10x_rcc.c ****   uint32_t tmpreg = 0;
 457:Libraries/STM32F10x_StdPeriph_Driver/src/stm32f10x_rcc.c **** 
 458:Libraries/STM32F10x_StdPeriph_Driver/src/stm32f10x_rcc.c ****   /* Check the parameters */
 459:Libraries/STM32F10x_StdPeriph_Driver/src/stm32f10x_rcc.c ****   assert_param(IS_RCC_PREDIV2(RCC_PREDIV2_Div));
 460:Libraries/STM32F10x_StdPeriph_Driver/src/stm32f10x_rcc.c **** 
 461:Libraries/STM32F10x_StdPeriph_Driver/src/stm32f10x_rcc.c ****   tmpreg = RCC->CFGR2;
 462:Libraries/STM32F10x_StdPeriph_Driver/src/stm32f10x_rcc.c ****   /* Clear PREDIV2[3:0] bits */
 463:Libraries/STM32F10x_StdPeriph_Driver/src/stm32f10x_rcc.c ****   tmpreg &= ~CFGR2_PREDIV2;
ARM GAS  /var/folders/lp/0dm50ddn51vc39svyzv_6fp00000gn/T//ccS91u3A.s 			page 15


 464:Libraries/STM32F10x_StdPeriph_Driver/src/stm32f10x_rcc.c ****   /* Set the PREDIV2 division factor */
 465:Libraries/STM32F10x_StdPeriph_Driver/src/stm32f10x_rcc.c ****   tmpreg |= RCC_PREDIV2_Div;
 466:Libraries/STM32F10x_StdPeriph_Driver/src/stm32f10x_rcc.c ****   /* Store the new value */
 467:Libraries/STM32F10x_StdPeriph_Driver/src/stm32f10x_rcc.c ****   RCC->CFGR2 = tmpreg;
 468:Libraries/STM32F10x_StdPeriph_Driver/src/stm32f10x_rcc.c **** }
 469:Libraries/STM32F10x_StdPeriph_Driver/src/stm32f10x_rcc.c **** 
 470:Libraries/STM32F10x_StdPeriph_Driver/src/stm32f10x_rcc.c **** /**
 471:Libraries/STM32F10x_StdPeriph_Driver/src/stm32f10x_rcc.c ****   * @brief  Configures the PLL2 multiplication factor.
 472:Libraries/STM32F10x_StdPeriph_Driver/src/stm32f10x_rcc.c ****   * @note
 473:Libraries/STM32F10x_StdPeriph_Driver/src/stm32f10x_rcc.c ****   *   - This function must be used only when the PLL2 is disabled.
 474:Libraries/STM32F10x_StdPeriph_Driver/src/stm32f10x_rcc.c ****   *   - This function applies only to STM32 Connectivity line devices.
 475:Libraries/STM32F10x_StdPeriph_Driver/src/stm32f10x_rcc.c ****   * @param  RCC_PLL2Mul: specifies the PLL2 multiplication factor.
 476:Libraries/STM32F10x_StdPeriph_Driver/src/stm32f10x_rcc.c ****   *   This parameter can be RCC_PLL2Mul_x where x:{[8,14], 16, 20}
 477:Libraries/STM32F10x_StdPeriph_Driver/src/stm32f10x_rcc.c ****   * @retval None
 478:Libraries/STM32F10x_StdPeriph_Driver/src/stm32f10x_rcc.c ****   */
 479:Libraries/STM32F10x_StdPeriph_Driver/src/stm32f10x_rcc.c **** void RCC_PLL2Config(uint32_t RCC_PLL2Mul)
 480:Libraries/STM32F10x_StdPeriph_Driver/src/stm32f10x_rcc.c **** {
 481:Libraries/STM32F10x_StdPeriph_Driver/src/stm32f10x_rcc.c ****   uint32_t tmpreg = 0;
 482:Libraries/STM32F10x_StdPeriph_Driver/src/stm32f10x_rcc.c **** 
 483:Libraries/STM32F10x_StdPeriph_Driver/src/stm32f10x_rcc.c ****   /* Check the parameters */
 484:Libraries/STM32F10x_StdPeriph_Driver/src/stm32f10x_rcc.c ****   assert_param(IS_RCC_PLL2_MUL(RCC_PLL2Mul));
 485:Libraries/STM32F10x_StdPeriph_Driver/src/stm32f10x_rcc.c **** 
 486:Libraries/STM32F10x_StdPeriph_Driver/src/stm32f10x_rcc.c ****   tmpreg = RCC->CFGR2;
 487:Libraries/STM32F10x_StdPeriph_Driver/src/stm32f10x_rcc.c ****   /* Clear PLL2Mul[3:0] bits */
 488:Libraries/STM32F10x_StdPeriph_Driver/src/stm32f10x_rcc.c ****   tmpreg &= ~CFGR2_PLL2MUL;
 489:Libraries/STM32F10x_StdPeriph_Driver/src/stm32f10x_rcc.c ****   /* Set the PLL2 configuration bits */
 490:Libraries/STM32F10x_StdPeriph_Driver/src/stm32f10x_rcc.c ****   tmpreg |= RCC_PLL2Mul;
 491:Libraries/STM32F10x_StdPeriph_Driver/src/stm32f10x_rcc.c ****   /* Store the new value */
 492:Libraries/STM32F10x_StdPeriph_Driver/src/stm32f10x_rcc.c ****   RCC->CFGR2 = tmpreg;
 493:Libraries/STM32F10x_StdPeriph_Driver/src/stm32f10x_rcc.c **** }
 494:Libraries/STM32F10x_StdPeriph_Driver/src/stm32f10x_rcc.c **** 
 495:Libraries/STM32F10x_StdPeriph_Driver/src/stm32f10x_rcc.c **** 
 496:Libraries/STM32F10x_StdPeriph_Driver/src/stm32f10x_rcc.c **** /**
 497:Libraries/STM32F10x_StdPeriph_Driver/src/stm32f10x_rcc.c ****   * @brief  Enables or disables the PLL2.
 498:Libraries/STM32F10x_StdPeriph_Driver/src/stm32f10x_rcc.c ****   * @note 
 499:Libraries/STM32F10x_StdPeriph_Driver/src/stm32f10x_rcc.c ****   *   - The PLL2 can not be disabled if it is used indirectly as system clock
 500:Libraries/STM32F10x_StdPeriph_Driver/src/stm32f10x_rcc.c ****   *     (i.e. it is used as PLL clock entry that is used as System clock).
 501:Libraries/STM32F10x_StdPeriph_Driver/src/stm32f10x_rcc.c ****   *   - This function applies only to STM32 Connectivity line devices.
 502:Libraries/STM32F10x_StdPeriph_Driver/src/stm32f10x_rcc.c ****   * @param  NewState: new state of the PLL2. This parameter can be: ENABLE or DISABLE.
 503:Libraries/STM32F10x_StdPeriph_Driver/src/stm32f10x_rcc.c ****   * @retval None
 504:Libraries/STM32F10x_StdPeriph_Driver/src/stm32f10x_rcc.c ****   */
 505:Libraries/STM32F10x_StdPeriph_Driver/src/stm32f10x_rcc.c **** void RCC_PLL2Cmd(FunctionalState NewState)
 506:Libraries/STM32F10x_StdPeriph_Driver/src/stm32f10x_rcc.c **** {
 507:Libraries/STM32F10x_StdPeriph_Driver/src/stm32f10x_rcc.c ****   /* Check the parameters */
 508:Libraries/STM32F10x_StdPeriph_Driver/src/stm32f10x_rcc.c ****   assert_param(IS_FUNCTIONAL_STATE(NewState));
 509:Libraries/STM32F10x_StdPeriph_Driver/src/stm32f10x_rcc.c **** 
 510:Libraries/STM32F10x_StdPeriph_Driver/src/stm32f10x_rcc.c ****   *(__IO uint32_t *) CR_PLL2ON_BB = (uint32_t)NewState;
 511:Libraries/STM32F10x_StdPeriph_Driver/src/stm32f10x_rcc.c **** }
 512:Libraries/STM32F10x_StdPeriph_Driver/src/stm32f10x_rcc.c **** 
 513:Libraries/STM32F10x_StdPeriph_Driver/src/stm32f10x_rcc.c **** 
 514:Libraries/STM32F10x_StdPeriph_Driver/src/stm32f10x_rcc.c **** /**
 515:Libraries/STM32F10x_StdPeriph_Driver/src/stm32f10x_rcc.c ****   * @brief  Configures the PLL3 multiplication factor.
 516:Libraries/STM32F10x_StdPeriph_Driver/src/stm32f10x_rcc.c ****   * @note 
 517:Libraries/STM32F10x_StdPeriph_Driver/src/stm32f10x_rcc.c ****   *   - This function must be used only when the PLL3 is disabled.
 518:Libraries/STM32F10x_StdPeriph_Driver/src/stm32f10x_rcc.c ****   *   - This function applies only to STM32 Connectivity line devices.
 519:Libraries/STM32F10x_StdPeriph_Driver/src/stm32f10x_rcc.c ****   * @param  RCC_PLL3Mul: specifies the PLL3 multiplication factor.
 520:Libraries/STM32F10x_StdPeriph_Driver/src/stm32f10x_rcc.c ****   *   This parameter can be RCC_PLL3Mul_x where x:{[8,14], 16, 20}
ARM GAS  /var/folders/lp/0dm50ddn51vc39svyzv_6fp00000gn/T//ccS91u3A.s 			page 16


 521:Libraries/STM32F10x_StdPeriph_Driver/src/stm32f10x_rcc.c ****   * @retval None
 522:Libraries/STM32F10x_StdPeriph_Driver/src/stm32f10x_rcc.c ****   */
 523:Libraries/STM32F10x_StdPeriph_Driver/src/stm32f10x_rcc.c **** void RCC_PLL3Config(uint32_t RCC_PLL3Mul)
 524:Libraries/STM32F10x_StdPeriph_Driver/src/stm32f10x_rcc.c **** {
 525:Libraries/STM32F10x_StdPeriph_Driver/src/stm32f10x_rcc.c ****   uint32_t tmpreg = 0;
 526:Libraries/STM32F10x_StdPeriph_Driver/src/stm32f10x_rcc.c **** 
 527:Libraries/STM32F10x_StdPeriph_Driver/src/stm32f10x_rcc.c ****   /* Check the parameters */
 528:Libraries/STM32F10x_StdPeriph_Driver/src/stm32f10x_rcc.c ****   assert_param(IS_RCC_PLL3_MUL(RCC_PLL3Mul));
 529:Libraries/STM32F10x_StdPeriph_Driver/src/stm32f10x_rcc.c **** 
 530:Libraries/STM32F10x_StdPeriph_Driver/src/stm32f10x_rcc.c ****   tmpreg = RCC->CFGR2;
 531:Libraries/STM32F10x_StdPeriph_Driver/src/stm32f10x_rcc.c ****   /* Clear PLL3Mul[3:0] bits */
 532:Libraries/STM32F10x_StdPeriph_Driver/src/stm32f10x_rcc.c ****   tmpreg &= ~CFGR2_PLL3MUL;
 533:Libraries/STM32F10x_StdPeriph_Driver/src/stm32f10x_rcc.c ****   /* Set the PLL3 configuration bits */
 534:Libraries/STM32F10x_StdPeriph_Driver/src/stm32f10x_rcc.c ****   tmpreg |= RCC_PLL3Mul;
 535:Libraries/STM32F10x_StdPeriph_Driver/src/stm32f10x_rcc.c ****   /* Store the new value */
 536:Libraries/STM32F10x_StdPeriph_Driver/src/stm32f10x_rcc.c ****   RCC->CFGR2 = tmpreg;
 537:Libraries/STM32F10x_StdPeriph_Driver/src/stm32f10x_rcc.c **** }
 538:Libraries/STM32F10x_StdPeriph_Driver/src/stm32f10x_rcc.c **** 
 539:Libraries/STM32F10x_StdPeriph_Driver/src/stm32f10x_rcc.c **** 
 540:Libraries/STM32F10x_StdPeriph_Driver/src/stm32f10x_rcc.c **** /**
 541:Libraries/STM32F10x_StdPeriph_Driver/src/stm32f10x_rcc.c ****   * @brief  Enables or disables the PLL3.
 542:Libraries/STM32F10x_StdPeriph_Driver/src/stm32f10x_rcc.c ****   * @note   This function applies only to STM32 Connectivity line devices.
 543:Libraries/STM32F10x_StdPeriph_Driver/src/stm32f10x_rcc.c ****   * @param  NewState: new state of the PLL3. This parameter can be: ENABLE or DISABLE.
 544:Libraries/STM32F10x_StdPeriph_Driver/src/stm32f10x_rcc.c ****   * @retval None
 545:Libraries/STM32F10x_StdPeriph_Driver/src/stm32f10x_rcc.c ****   */
 546:Libraries/STM32F10x_StdPeriph_Driver/src/stm32f10x_rcc.c **** void RCC_PLL3Cmd(FunctionalState NewState)
 547:Libraries/STM32F10x_StdPeriph_Driver/src/stm32f10x_rcc.c **** {
 548:Libraries/STM32F10x_StdPeriph_Driver/src/stm32f10x_rcc.c ****   /* Check the parameters */
 549:Libraries/STM32F10x_StdPeriph_Driver/src/stm32f10x_rcc.c **** 
 550:Libraries/STM32F10x_StdPeriph_Driver/src/stm32f10x_rcc.c ****   assert_param(IS_FUNCTIONAL_STATE(NewState));
 551:Libraries/STM32F10x_StdPeriph_Driver/src/stm32f10x_rcc.c ****   *(__IO uint32_t *) CR_PLL3ON_BB = (uint32_t)NewState;
 552:Libraries/STM32F10x_StdPeriph_Driver/src/stm32f10x_rcc.c **** }
 553:Libraries/STM32F10x_StdPeriph_Driver/src/stm32f10x_rcc.c **** #endif /* STM32F10X_CL */
 554:Libraries/STM32F10x_StdPeriph_Driver/src/stm32f10x_rcc.c **** 
 555:Libraries/STM32F10x_StdPeriph_Driver/src/stm32f10x_rcc.c **** /**
 556:Libraries/STM32F10x_StdPeriph_Driver/src/stm32f10x_rcc.c ****   * @brief  Configures the system clock (SYSCLK).
 557:Libraries/STM32F10x_StdPeriph_Driver/src/stm32f10x_rcc.c ****   * @param  RCC_SYSCLKSource: specifies the clock source used as system clock.
 558:Libraries/STM32F10x_StdPeriph_Driver/src/stm32f10x_rcc.c ****   *   This parameter can be one of the following values:
 559:Libraries/STM32F10x_StdPeriph_Driver/src/stm32f10x_rcc.c ****   *     @arg RCC_SYSCLKSource_HSI: HSI selected as system clock
 560:Libraries/STM32F10x_StdPeriph_Driver/src/stm32f10x_rcc.c ****   *     @arg RCC_SYSCLKSource_HSE: HSE selected as system clock
 561:Libraries/STM32F10x_StdPeriph_Driver/src/stm32f10x_rcc.c ****   *     @arg RCC_SYSCLKSource_PLLCLK: PLL selected as system clock
 562:Libraries/STM32F10x_StdPeriph_Driver/src/stm32f10x_rcc.c ****   * @retval None
 563:Libraries/STM32F10x_StdPeriph_Driver/src/stm32f10x_rcc.c ****   */
 564:Libraries/STM32F10x_StdPeriph_Driver/src/stm32f10x_rcc.c **** void RCC_SYSCLKConfig(uint32_t RCC_SYSCLKSource)
 565:Libraries/STM32F10x_StdPeriph_Driver/src/stm32f10x_rcc.c **** {
 334              		.loc 1 565 0
 335              		.cfi_startproc
 336              		@ args = 0, pretend = 0, frame = 0
 337              		@ frame_needed = 0, uses_anonymous_args = 0
 338              		@ link register save eliminated.
 339              	.LVL17:
 566:Libraries/STM32F10x_StdPeriph_Driver/src/stm32f10x_rcc.c ****   uint32_t tmpreg = 0;
 567:Libraries/STM32F10x_StdPeriph_Driver/src/stm32f10x_rcc.c ****   /* Check the parameters */
 568:Libraries/STM32F10x_StdPeriph_Driver/src/stm32f10x_rcc.c ****   assert_param(IS_RCC_SYSCLK_SOURCE(RCC_SYSCLKSource));
 569:Libraries/STM32F10x_StdPeriph_Driver/src/stm32f10x_rcc.c ****   tmpreg = RCC->CFGR;
 340              		.loc 1 569 0
 341 00d4 034A     		ldr	r2, .L28	@ tmp114,
ARM GAS  /var/folders/lp/0dm50ddn51vc39svyzv_6fp00000gn/T//ccS91u3A.s 			page 17


 342 00d6 5368     		ldr	r3, [r2, #4]	@ tmpreg, MEM[(struct RCC_TypeDef *)1073876992B].CFGR
 343              	.LVL18:
 570:Libraries/STM32F10x_StdPeriph_Driver/src/stm32f10x_rcc.c ****   /* Clear SW[1:0] bits */
 571:Libraries/STM32F10x_StdPeriph_Driver/src/stm32f10x_rcc.c ****   tmpreg &= CFGR_SW_Mask;
 344              		.loc 1 571 0
 345 00d8 23F00303 		bic	r3, r3, #3	@ tmpreg, tmpreg,
 346              	.LVL19:
 572:Libraries/STM32F10x_StdPeriph_Driver/src/stm32f10x_rcc.c ****   /* Set SW[1:0] bits according to RCC_SYSCLKSource value */
 573:Libraries/STM32F10x_StdPeriph_Driver/src/stm32f10x_rcc.c ****   tmpreg |= RCC_SYSCLKSource;
 347              		.loc 1 573 0
 348 00dc 1843     		orrs	r0, r0, r3	@, tmpreg, RCC_SYSCLKSource, tmpreg
 349              	.LVL20:
 574:Libraries/STM32F10x_StdPeriph_Driver/src/stm32f10x_rcc.c ****   /* Store the new value */
 575:Libraries/STM32F10x_StdPeriph_Driver/src/stm32f10x_rcc.c ****   RCC->CFGR = tmpreg;
 350              		.loc 1 575 0
 351 00de 5060     		str	r0, [r2, #4]	@ tmpreg, MEM[(struct RCC_TypeDef *)1073876992B].CFGR
 352 00e0 7047     		bx	lr	@
 353              	.L29:
 354 00e2 00BF     		.align	2
 355              	.L28:
 356 00e4 00100240 		.word	1073876992
 357              		.cfi_endproc
 358              	.LFE37:
 359              		.size	RCC_SYSCLKConfig, .-RCC_SYSCLKConfig
 360              		.align	1
 361              		.global	RCC_GetSYSCLKSource
 362              		.thumb
 363              		.thumb_func
 364              		.type	RCC_GetSYSCLKSource, %function
 365              	RCC_GetSYSCLKSource:
 366              	.LFB38:
 576:Libraries/STM32F10x_StdPeriph_Driver/src/stm32f10x_rcc.c **** }
 577:Libraries/STM32F10x_StdPeriph_Driver/src/stm32f10x_rcc.c **** 
 578:Libraries/STM32F10x_StdPeriph_Driver/src/stm32f10x_rcc.c **** /**
 579:Libraries/STM32F10x_StdPeriph_Driver/src/stm32f10x_rcc.c ****   * @brief  Returns the clock source used as system clock.
 580:Libraries/STM32F10x_StdPeriph_Driver/src/stm32f10x_rcc.c ****   * @param  None
 581:Libraries/STM32F10x_StdPeriph_Driver/src/stm32f10x_rcc.c ****   * @retval The clock source used as system clock. The returned value can
 582:Libraries/STM32F10x_StdPeriph_Driver/src/stm32f10x_rcc.c ****   *   be one of the following:
 583:Libraries/STM32F10x_StdPeriph_Driver/src/stm32f10x_rcc.c ****   *     - 0x00: HSI used as system clock
 584:Libraries/STM32F10x_StdPeriph_Driver/src/stm32f10x_rcc.c ****   *     - 0x04: HSE used as system clock
 585:Libraries/STM32F10x_StdPeriph_Driver/src/stm32f10x_rcc.c ****   *     - 0x08: PLL used as system clock
 586:Libraries/STM32F10x_StdPeriph_Driver/src/stm32f10x_rcc.c ****   */
 587:Libraries/STM32F10x_StdPeriph_Driver/src/stm32f10x_rcc.c **** uint8_t RCC_GetSYSCLKSource(void)
 588:Libraries/STM32F10x_StdPeriph_Driver/src/stm32f10x_rcc.c **** {
 367              		.loc 1 588 0
 368              		.cfi_startproc
 369              		@ args = 0, pretend = 0, frame = 0
 370              		@ frame_needed = 0, uses_anonymous_args = 0
 371              		@ link register save eliminated.
 589:Libraries/STM32F10x_StdPeriph_Driver/src/stm32f10x_rcc.c ****   return ((uint8_t)(RCC->CFGR & CFGR_SWS_Mask));
 372              		.loc 1 589 0
 373 00e8 024B     		ldr	r3, .L31	@ tmp114,
 374 00ea 5868     		ldr	r0, [r3, #4]	@ D.6965, MEM[(struct RCC_TypeDef *)1073876992B].CFGR
 590:Libraries/STM32F10x_StdPeriph_Driver/src/stm32f10x_rcc.c **** }
 375              		.loc 1 590 0
 376 00ec 00F00C00 		and	r0, r0, #12	@, D.6965,
 377 00f0 7047     		bx	lr	@
ARM GAS  /var/folders/lp/0dm50ddn51vc39svyzv_6fp00000gn/T//ccS91u3A.s 			page 18


 378              	.L32:
 379 00f2 00BF     		.align	2
 380              	.L31:
 381 00f4 00100240 		.word	1073876992
 382              		.cfi_endproc
 383              	.LFE38:
 384              		.size	RCC_GetSYSCLKSource, .-RCC_GetSYSCLKSource
 385              		.align	1
 386              		.global	RCC_HCLKConfig
 387              		.thumb
 388              		.thumb_func
 389              		.type	RCC_HCLKConfig, %function
 390              	RCC_HCLKConfig:
 391              	.LFB39:
 591:Libraries/STM32F10x_StdPeriph_Driver/src/stm32f10x_rcc.c **** 
 592:Libraries/STM32F10x_StdPeriph_Driver/src/stm32f10x_rcc.c **** /**
 593:Libraries/STM32F10x_StdPeriph_Driver/src/stm32f10x_rcc.c ****   * @brief  Configures the AHB clock (HCLK).
 594:Libraries/STM32F10x_StdPeriph_Driver/src/stm32f10x_rcc.c ****   * @param  RCC_SYSCLK: defines the AHB clock divider. This clock is derived from 
 595:Libraries/STM32F10x_StdPeriph_Driver/src/stm32f10x_rcc.c ****   *   the system clock (SYSCLK).
 596:Libraries/STM32F10x_StdPeriph_Driver/src/stm32f10x_rcc.c ****   *   This parameter can be one of the following values:
 597:Libraries/STM32F10x_StdPeriph_Driver/src/stm32f10x_rcc.c ****   *     @arg RCC_SYSCLK_Div1: AHB clock = SYSCLK
 598:Libraries/STM32F10x_StdPeriph_Driver/src/stm32f10x_rcc.c ****   *     @arg RCC_SYSCLK_Div2: AHB clock = SYSCLK/2
 599:Libraries/STM32F10x_StdPeriph_Driver/src/stm32f10x_rcc.c ****   *     @arg RCC_SYSCLK_Div4: AHB clock = SYSCLK/4
 600:Libraries/STM32F10x_StdPeriph_Driver/src/stm32f10x_rcc.c ****   *     @arg RCC_SYSCLK_Div8: AHB clock = SYSCLK/8
 601:Libraries/STM32F10x_StdPeriph_Driver/src/stm32f10x_rcc.c ****   *     @arg RCC_SYSCLK_Div16: AHB clock = SYSCLK/16
 602:Libraries/STM32F10x_StdPeriph_Driver/src/stm32f10x_rcc.c ****   *     @arg RCC_SYSCLK_Div64: AHB clock = SYSCLK/64
 603:Libraries/STM32F10x_StdPeriph_Driver/src/stm32f10x_rcc.c ****   *     @arg RCC_SYSCLK_Div128: AHB clock = SYSCLK/128
 604:Libraries/STM32F10x_StdPeriph_Driver/src/stm32f10x_rcc.c ****   *     @arg RCC_SYSCLK_Div256: AHB clock = SYSCLK/256
 605:Libraries/STM32F10x_StdPeriph_Driver/src/stm32f10x_rcc.c ****   *     @arg RCC_SYSCLK_Div512: AHB clock = SYSCLK/512
 606:Libraries/STM32F10x_StdPeriph_Driver/src/stm32f10x_rcc.c ****   * @retval None
 607:Libraries/STM32F10x_StdPeriph_Driver/src/stm32f10x_rcc.c ****   */
 608:Libraries/STM32F10x_StdPeriph_Driver/src/stm32f10x_rcc.c **** void RCC_HCLKConfig(uint32_t RCC_SYSCLK)
 609:Libraries/STM32F10x_StdPeriph_Driver/src/stm32f10x_rcc.c **** {
 392              		.loc 1 609 0
 393              		.cfi_startproc
 394              		@ args = 0, pretend = 0, frame = 0
 395              		@ frame_needed = 0, uses_anonymous_args = 0
 396              		@ link register save eliminated.
 397              	.LVL21:
 610:Libraries/STM32F10x_StdPeriph_Driver/src/stm32f10x_rcc.c ****   uint32_t tmpreg = 0;
 611:Libraries/STM32F10x_StdPeriph_Driver/src/stm32f10x_rcc.c ****   /* Check the parameters */
 612:Libraries/STM32F10x_StdPeriph_Driver/src/stm32f10x_rcc.c ****   assert_param(IS_RCC_HCLK(RCC_SYSCLK));
 613:Libraries/STM32F10x_StdPeriph_Driver/src/stm32f10x_rcc.c ****   tmpreg = RCC->CFGR;
 398              		.loc 1 613 0
 399 00f8 034A     		ldr	r2, .L34	@ tmp114,
 400 00fa 5368     		ldr	r3, [r2, #4]	@ tmpreg, MEM[(struct RCC_TypeDef *)1073876992B].CFGR
 401              	.LVL22:
 614:Libraries/STM32F10x_StdPeriph_Driver/src/stm32f10x_rcc.c ****   /* Clear HPRE[3:0] bits */
 615:Libraries/STM32F10x_StdPeriph_Driver/src/stm32f10x_rcc.c ****   tmpreg &= CFGR_HPRE_Reset_Mask;
 402              		.loc 1 615 0
 403 00fc 23F0F003 		bic	r3, r3, #240	@ tmpreg, tmpreg,
 404              	.LVL23:
 616:Libraries/STM32F10x_StdPeriph_Driver/src/stm32f10x_rcc.c ****   /* Set HPRE[3:0] bits according to RCC_SYSCLK value */
 617:Libraries/STM32F10x_StdPeriph_Driver/src/stm32f10x_rcc.c ****   tmpreg |= RCC_SYSCLK;
 405              		.loc 1 617 0
 406 0100 1843     		orrs	r0, r0, r3	@, tmpreg, RCC_SYSCLK, tmpreg
 407              	.LVL24:
ARM GAS  /var/folders/lp/0dm50ddn51vc39svyzv_6fp00000gn/T//ccS91u3A.s 			page 19


 618:Libraries/STM32F10x_StdPeriph_Driver/src/stm32f10x_rcc.c ****   /* Store the new value */
 619:Libraries/STM32F10x_StdPeriph_Driver/src/stm32f10x_rcc.c ****   RCC->CFGR = tmpreg;
 408              		.loc 1 619 0
 409 0102 5060     		str	r0, [r2, #4]	@ tmpreg, MEM[(struct RCC_TypeDef *)1073876992B].CFGR
 410 0104 7047     		bx	lr	@
 411              	.L35:
 412 0106 00BF     		.align	2
 413              	.L34:
 414 0108 00100240 		.word	1073876992
 415              		.cfi_endproc
 416              	.LFE39:
 417              		.size	RCC_HCLKConfig, .-RCC_HCLKConfig
 418              		.align	1
 419              		.global	RCC_PCLK1Config
 420              		.thumb
 421              		.thumb_func
 422              		.type	RCC_PCLK1Config, %function
 423              	RCC_PCLK1Config:
 424              	.LFB40:
 620:Libraries/STM32F10x_StdPeriph_Driver/src/stm32f10x_rcc.c **** }
 621:Libraries/STM32F10x_StdPeriph_Driver/src/stm32f10x_rcc.c **** 
 622:Libraries/STM32F10x_StdPeriph_Driver/src/stm32f10x_rcc.c **** /**
 623:Libraries/STM32F10x_StdPeriph_Driver/src/stm32f10x_rcc.c ****   * @brief  Configures the Low Speed APB clock (PCLK1).
 624:Libraries/STM32F10x_StdPeriph_Driver/src/stm32f10x_rcc.c ****   * @param  RCC_HCLK: defines the APB1 clock divider. This clock is derived from 
 625:Libraries/STM32F10x_StdPeriph_Driver/src/stm32f10x_rcc.c ****   *   the AHB clock (HCLK).
 626:Libraries/STM32F10x_StdPeriph_Driver/src/stm32f10x_rcc.c ****   *   This parameter can be one of the following values:
 627:Libraries/STM32F10x_StdPeriph_Driver/src/stm32f10x_rcc.c ****   *     @arg RCC_HCLK_Div1: APB1 clock = HCLK
 628:Libraries/STM32F10x_StdPeriph_Driver/src/stm32f10x_rcc.c ****   *     @arg RCC_HCLK_Div2: APB1 clock = HCLK/2
 629:Libraries/STM32F10x_StdPeriph_Driver/src/stm32f10x_rcc.c ****   *     @arg RCC_HCLK_Div4: APB1 clock = HCLK/4
 630:Libraries/STM32F10x_StdPeriph_Driver/src/stm32f10x_rcc.c ****   *     @arg RCC_HCLK_Div8: APB1 clock = HCLK/8
 631:Libraries/STM32F10x_StdPeriph_Driver/src/stm32f10x_rcc.c ****   *     @arg RCC_HCLK_Div16: APB1 clock = HCLK/16
 632:Libraries/STM32F10x_StdPeriph_Driver/src/stm32f10x_rcc.c ****   * @retval None
 633:Libraries/STM32F10x_StdPeriph_Driver/src/stm32f10x_rcc.c ****   */
 634:Libraries/STM32F10x_StdPeriph_Driver/src/stm32f10x_rcc.c **** void RCC_PCLK1Config(uint32_t RCC_HCLK)
 635:Libraries/STM32F10x_StdPeriph_Driver/src/stm32f10x_rcc.c **** {
 425              		.loc 1 635 0
 426              		.cfi_startproc
 427              		@ args = 0, pretend = 0, frame = 0
 428              		@ frame_needed = 0, uses_anonymous_args = 0
 429              		@ link register save eliminated.
 430              	.LVL25:
 636:Libraries/STM32F10x_StdPeriph_Driver/src/stm32f10x_rcc.c ****   uint32_t tmpreg = 0;
 637:Libraries/STM32F10x_StdPeriph_Driver/src/stm32f10x_rcc.c ****   /* Check the parameters */
 638:Libraries/STM32F10x_StdPeriph_Driver/src/stm32f10x_rcc.c ****   assert_param(IS_RCC_PCLK(RCC_HCLK));
 639:Libraries/STM32F10x_StdPeriph_Driver/src/stm32f10x_rcc.c ****   tmpreg = RCC->CFGR;
 431              		.loc 1 639 0
 432 010c 034A     		ldr	r2, .L37	@ tmp114,
 433 010e 5368     		ldr	r3, [r2, #4]	@ tmpreg, MEM[(struct RCC_TypeDef *)1073876992B].CFGR
 434              	.LVL26:
 640:Libraries/STM32F10x_StdPeriph_Driver/src/stm32f10x_rcc.c ****   /* Clear PPRE1[2:0] bits */
 641:Libraries/STM32F10x_StdPeriph_Driver/src/stm32f10x_rcc.c ****   tmpreg &= CFGR_PPRE1_Reset_Mask;
 435              		.loc 1 641 0
 436 0110 23F4E063 		bic	r3, r3, #1792	@ tmpreg, tmpreg,
 437              	.LVL27:
 642:Libraries/STM32F10x_StdPeriph_Driver/src/stm32f10x_rcc.c ****   /* Set PPRE1[2:0] bits according to RCC_HCLK value */
 643:Libraries/STM32F10x_StdPeriph_Driver/src/stm32f10x_rcc.c ****   tmpreg |= RCC_HCLK;
 438              		.loc 1 643 0
ARM GAS  /var/folders/lp/0dm50ddn51vc39svyzv_6fp00000gn/T//ccS91u3A.s 			page 20


 439 0114 1843     		orrs	r0, r0, r3	@, tmpreg, RCC_HCLK, tmpreg
 440              	.LVL28:
 644:Libraries/STM32F10x_StdPeriph_Driver/src/stm32f10x_rcc.c ****   /* Store the new value */
 645:Libraries/STM32F10x_StdPeriph_Driver/src/stm32f10x_rcc.c ****   RCC->CFGR = tmpreg;
 441              		.loc 1 645 0
 442 0116 5060     		str	r0, [r2, #4]	@ tmpreg, MEM[(struct RCC_TypeDef *)1073876992B].CFGR
 443 0118 7047     		bx	lr	@
 444              	.L38:
 445 011a 00BF     		.align	2
 446              	.L37:
 447 011c 00100240 		.word	1073876992
 448              		.cfi_endproc
 449              	.LFE40:
 450              		.size	RCC_PCLK1Config, .-RCC_PCLK1Config
 451              		.align	1
 452              		.global	RCC_PCLK2Config
 453              		.thumb
 454              		.thumb_func
 455              		.type	RCC_PCLK2Config, %function
 456              	RCC_PCLK2Config:
 457              	.LFB41:
 646:Libraries/STM32F10x_StdPeriph_Driver/src/stm32f10x_rcc.c **** }
 647:Libraries/STM32F10x_StdPeriph_Driver/src/stm32f10x_rcc.c **** 
 648:Libraries/STM32F10x_StdPeriph_Driver/src/stm32f10x_rcc.c **** /**
 649:Libraries/STM32F10x_StdPeriph_Driver/src/stm32f10x_rcc.c ****   * @brief  Configures the High Speed APB clock (PCLK2).
 650:Libraries/STM32F10x_StdPeriph_Driver/src/stm32f10x_rcc.c ****   * @param  RCC_HCLK: defines the APB2 clock divider. This clock is derived from 
 651:Libraries/STM32F10x_StdPeriph_Driver/src/stm32f10x_rcc.c ****   *   the AHB clock (HCLK).
 652:Libraries/STM32F10x_StdPeriph_Driver/src/stm32f10x_rcc.c ****   *   This parameter can be one of the following values:
 653:Libraries/STM32F10x_StdPeriph_Driver/src/stm32f10x_rcc.c ****   *     @arg RCC_HCLK_Div1: APB2 clock = HCLK
 654:Libraries/STM32F10x_StdPeriph_Driver/src/stm32f10x_rcc.c ****   *     @arg RCC_HCLK_Div2: APB2 clock = HCLK/2
 655:Libraries/STM32F10x_StdPeriph_Driver/src/stm32f10x_rcc.c ****   *     @arg RCC_HCLK_Div4: APB2 clock = HCLK/4
 656:Libraries/STM32F10x_StdPeriph_Driver/src/stm32f10x_rcc.c ****   *     @arg RCC_HCLK_Div8: APB2 clock = HCLK/8
 657:Libraries/STM32F10x_StdPeriph_Driver/src/stm32f10x_rcc.c ****   *     @arg RCC_HCLK_Div16: APB2 clock = HCLK/16
 658:Libraries/STM32F10x_StdPeriph_Driver/src/stm32f10x_rcc.c ****   * @retval None
 659:Libraries/STM32F10x_StdPeriph_Driver/src/stm32f10x_rcc.c ****   */
 660:Libraries/STM32F10x_StdPeriph_Driver/src/stm32f10x_rcc.c **** void RCC_PCLK2Config(uint32_t RCC_HCLK)
 661:Libraries/STM32F10x_StdPeriph_Driver/src/stm32f10x_rcc.c **** {
 458              		.loc 1 661 0
 459              		.cfi_startproc
 460              		@ args = 0, pretend = 0, frame = 0
 461              		@ frame_needed = 0, uses_anonymous_args = 0
 462              		@ link register save eliminated.
 463              	.LVL29:
 662:Libraries/STM32F10x_StdPeriph_Driver/src/stm32f10x_rcc.c ****   uint32_t tmpreg = 0;
 663:Libraries/STM32F10x_StdPeriph_Driver/src/stm32f10x_rcc.c ****   /* Check the parameters */
 664:Libraries/STM32F10x_StdPeriph_Driver/src/stm32f10x_rcc.c ****   assert_param(IS_RCC_PCLK(RCC_HCLK));
 665:Libraries/STM32F10x_StdPeriph_Driver/src/stm32f10x_rcc.c ****   tmpreg = RCC->CFGR;
 464              		.loc 1 665 0
 465 0120 034A     		ldr	r2, .L40	@ tmp115,
 466 0122 5368     		ldr	r3, [r2, #4]	@ tmpreg, MEM[(struct RCC_TypeDef *)1073876992B].CFGR
 467              	.LVL30:
 666:Libraries/STM32F10x_StdPeriph_Driver/src/stm32f10x_rcc.c ****   /* Clear PPRE2[2:0] bits */
 667:Libraries/STM32F10x_StdPeriph_Driver/src/stm32f10x_rcc.c ****   tmpreg &= CFGR_PPRE2_Reset_Mask;
 468              		.loc 1 667 0
 469 0124 23F46053 		bic	r3, r3, #14336	@ tmpreg, tmpreg,
 470              	.LVL31:
 668:Libraries/STM32F10x_StdPeriph_Driver/src/stm32f10x_rcc.c ****   /* Set PPRE2[2:0] bits according to RCC_HCLK value */
ARM GAS  /var/folders/lp/0dm50ddn51vc39svyzv_6fp00000gn/T//ccS91u3A.s 			page 21


 669:Libraries/STM32F10x_StdPeriph_Driver/src/stm32f10x_rcc.c ****   tmpreg |= RCC_HCLK << 3;
 471              		.loc 1 669 0
 472 0128 43EAC000 		orr	r0, r3, r0, lsl #3	@ tmpreg, tmpreg, RCC_HCLK,
 473              	.LVL32:
 670:Libraries/STM32F10x_StdPeriph_Driver/src/stm32f10x_rcc.c ****   /* Store the new value */
 671:Libraries/STM32F10x_StdPeriph_Driver/src/stm32f10x_rcc.c ****   RCC->CFGR = tmpreg;
 474              		.loc 1 671 0
 475 012c 5060     		str	r0, [r2, #4]	@ tmpreg, MEM[(struct RCC_TypeDef *)1073876992B].CFGR
 476 012e 7047     		bx	lr	@
 477              	.L41:
 478              		.align	2
 479              	.L40:
 480 0130 00100240 		.word	1073876992
 481              		.cfi_endproc
 482              	.LFE41:
 483              		.size	RCC_PCLK2Config, .-RCC_PCLK2Config
 484              		.align	1
 485              		.global	RCC_ITConfig
 486              		.thumb
 487              		.thumb_func
 488              		.type	RCC_ITConfig, %function
 489              	RCC_ITConfig:
 490              	.LFB42:
 672:Libraries/STM32F10x_StdPeriph_Driver/src/stm32f10x_rcc.c **** }
 673:Libraries/STM32F10x_StdPeriph_Driver/src/stm32f10x_rcc.c **** 
 674:Libraries/STM32F10x_StdPeriph_Driver/src/stm32f10x_rcc.c **** /**
 675:Libraries/STM32F10x_StdPeriph_Driver/src/stm32f10x_rcc.c ****   * @brief  Enables or disables the specified RCC interrupts.
 676:Libraries/STM32F10x_StdPeriph_Driver/src/stm32f10x_rcc.c ****   * @param  RCC_IT: specifies the RCC interrupt sources to be enabled or disabled.
 677:Libraries/STM32F10x_StdPeriph_Driver/src/stm32f10x_rcc.c ****   * 
 678:Libraries/STM32F10x_StdPeriph_Driver/src/stm32f10x_rcc.c ****   *   For @b STM32_Connectivity_line_devices, this parameter can be any combination
 679:Libraries/STM32F10x_StdPeriph_Driver/src/stm32f10x_rcc.c ****   *   of the following values        
 680:Libraries/STM32F10x_StdPeriph_Driver/src/stm32f10x_rcc.c ****   *     @arg RCC_IT_LSIRDY: LSI ready interrupt
 681:Libraries/STM32F10x_StdPeriph_Driver/src/stm32f10x_rcc.c ****   *     @arg RCC_IT_LSERDY: LSE ready interrupt
 682:Libraries/STM32F10x_StdPeriph_Driver/src/stm32f10x_rcc.c ****   *     @arg RCC_IT_HSIRDY: HSI ready interrupt
 683:Libraries/STM32F10x_StdPeriph_Driver/src/stm32f10x_rcc.c ****   *     @arg RCC_IT_HSERDY: HSE ready interrupt
 684:Libraries/STM32F10x_StdPeriph_Driver/src/stm32f10x_rcc.c ****   *     @arg RCC_IT_PLLRDY: PLL ready interrupt
 685:Libraries/STM32F10x_StdPeriph_Driver/src/stm32f10x_rcc.c ****   *     @arg RCC_IT_PLL2RDY: PLL2 ready interrupt
 686:Libraries/STM32F10x_StdPeriph_Driver/src/stm32f10x_rcc.c ****   *     @arg RCC_IT_PLL3RDY: PLL3 ready interrupt
 687:Libraries/STM32F10x_StdPeriph_Driver/src/stm32f10x_rcc.c ****   * 
 688:Libraries/STM32F10x_StdPeriph_Driver/src/stm32f10x_rcc.c ****   *   For @b other_STM32_devices, this parameter can be any combination of the 
 689:Libraries/STM32F10x_StdPeriph_Driver/src/stm32f10x_rcc.c ****   *   following values        
 690:Libraries/STM32F10x_StdPeriph_Driver/src/stm32f10x_rcc.c ****   *     @arg RCC_IT_LSIRDY: LSI ready interrupt
 691:Libraries/STM32F10x_StdPeriph_Driver/src/stm32f10x_rcc.c ****   *     @arg RCC_IT_LSERDY: LSE ready interrupt
 692:Libraries/STM32F10x_StdPeriph_Driver/src/stm32f10x_rcc.c ****   *     @arg RCC_IT_HSIRDY: HSI ready interrupt
 693:Libraries/STM32F10x_StdPeriph_Driver/src/stm32f10x_rcc.c ****   *     @arg RCC_IT_HSERDY: HSE ready interrupt
 694:Libraries/STM32F10x_StdPeriph_Driver/src/stm32f10x_rcc.c ****   *     @arg RCC_IT_PLLRDY: PLL ready interrupt
 695:Libraries/STM32F10x_StdPeriph_Driver/src/stm32f10x_rcc.c ****   *       
 696:Libraries/STM32F10x_StdPeriph_Driver/src/stm32f10x_rcc.c ****   * @param  NewState: new state of the specified RCC interrupts.
 697:Libraries/STM32F10x_StdPeriph_Driver/src/stm32f10x_rcc.c ****   *   This parameter can be: ENABLE or DISABLE.
 698:Libraries/STM32F10x_StdPeriph_Driver/src/stm32f10x_rcc.c ****   * @retval None
 699:Libraries/STM32F10x_StdPeriph_Driver/src/stm32f10x_rcc.c ****   */
 700:Libraries/STM32F10x_StdPeriph_Driver/src/stm32f10x_rcc.c **** void RCC_ITConfig(uint8_t RCC_IT, FunctionalState NewState)
 701:Libraries/STM32F10x_StdPeriph_Driver/src/stm32f10x_rcc.c **** {
 491              		.loc 1 701 0
 492              		.cfi_startproc
 493              		@ args = 0, pretend = 0, frame = 0
 494              		@ frame_needed = 0, uses_anonymous_args = 0
ARM GAS  /var/folders/lp/0dm50ddn51vc39svyzv_6fp00000gn/T//ccS91u3A.s 			page 22


 495              		@ link register save eliminated.
 496              	.LVL33:
 497 0134 044B     		ldr	r3, .L46	@ tmp131,
 702:Libraries/STM32F10x_StdPeriph_Driver/src/stm32f10x_rcc.c ****   /* Check the parameters */
 703:Libraries/STM32F10x_StdPeriph_Driver/src/stm32f10x_rcc.c ****   assert_param(IS_RCC_IT(RCC_IT));
 704:Libraries/STM32F10x_StdPeriph_Driver/src/stm32f10x_rcc.c ****   assert_param(IS_FUNCTIONAL_STATE(NewState));
 705:Libraries/STM32F10x_StdPeriph_Driver/src/stm32f10x_rcc.c ****   if (NewState != DISABLE)
 706:Libraries/STM32F10x_StdPeriph_Driver/src/stm32f10x_rcc.c ****   {
 707:Libraries/STM32F10x_StdPeriph_Driver/src/stm32f10x_rcc.c ****     /* Perform Byte access to RCC_CIR bits to enable the selected interrupts */
 708:Libraries/STM32F10x_StdPeriph_Driver/src/stm32f10x_rcc.c ****     *(__IO uint8_t *) CIR_BYTE2_ADDRESS |= RCC_IT;
 498              		.loc 1 708 0
 499 0136 1A78     		ldrb	r2, [r3]	@ zero_extendqisi2	@ MEM[(volatile uint8_t *)1073877001B],
 705:Libraries/STM32F10x_StdPeriph_Driver/src/stm32f10x_rcc.c ****   {
 500              		.loc 1 705 0
 501 0138 09B1     		cbz	r1, .L43	@ NewState,
 502              		.loc 1 708 0
 503 013a 1043     		orrs	r0, r0, r2	@, D.6977, RCC_IT, MEM[(volatile uint8_t *)1073877001B]
 504              	.LVL34:
 505 013c 01E0     		b	.L45	@
 506              	.LVL35:
 507              	.L43:
 709:Libraries/STM32F10x_StdPeriph_Driver/src/stm32f10x_rcc.c ****   }
 710:Libraries/STM32F10x_StdPeriph_Driver/src/stm32f10x_rcc.c ****   else
 711:Libraries/STM32F10x_StdPeriph_Driver/src/stm32f10x_rcc.c ****   {
 712:Libraries/STM32F10x_StdPeriph_Driver/src/stm32f10x_rcc.c ****     /* Perform Byte access to RCC_CIR bits to disable the selected interrupts */
 713:Libraries/STM32F10x_StdPeriph_Driver/src/stm32f10x_rcc.c ****     *(__IO uint8_t *) CIR_BYTE2_ADDRESS &= (uint8_t)~RCC_IT;
 508              		.loc 1 713 0
 509 013e 22EA0000 		bic	r0, r2, r0	@ D.6977, MEM[(volatile uint8_t *)1073877001B], RCC_IT
 510              	.LVL36:
 511              	.L45:
 512 0142 1870     		strb	r0, [r3]	@ D.6977,
 513 0144 7047     		bx	lr	@
 514              	.L47:
 515 0146 00BF     		.align	2
 516              	.L46:
 517 0148 09100240 		.word	1073877001
 518              		.cfi_endproc
 519              	.LFE42:
 520              		.size	RCC_ITConfig, .-RCC_ITConfig
 521              		.align	1
 522              		.global	RCC_USBCLKConfig
 523              		.thumb
 524              		.thumb_func
 525              		.type	RCC_USBCLKConfig, %function
 526              	RCC_USBCLKConfig:
 527              	.LFB43:
 714:Libraries/STM32F10x_StdPeriph_Driver/src/stm32f10x_rcc.c ****   }
 715:Libraries/STM32F10x_StdPeriph_Driver/src/stm32f10x_rcc.c **** }
 716:Libraries/STM32F10x_StdPeriph_Driver/src/stm32f10x_rcc.c **** 
 717:Libraries/STM32F10x_StdPeriph_Driver/src/stm32f10x_rcc.c **** #ifndef STM32F10X_CL
 718:Libraries/STM32F10x_StdPeriph_Driver/src/stm32f10x_rcc.c **** /**
 719:Libraries/STM32F10x_StdPeriph_Driver/src/stm32f10x_rcc.c ****   * @brief  Configures the USB clock (USBCLK).
 720:Libraries/STM32F10x_StdPeriph_Driver/src/stm32f10x_rcc.c ****   * @param  RCC_USBCLKSource: specifies the USB clock source. This clock is 
 721:Libraries/STM32F10x_StdPeriph_Driver/src/stm32f10x_rcc.c ****   *   derived from the PLL output.
 722:Libraries/STM32F10x_StdPeriph_Driver/src/stm32f10x_rcc.c ****   *   This parameter can be one of the following values:
 723:Libraries/STM32F10x_StdPeriph_Driver/src/stm32f10x_rcc.c ****   *     @arg RCC_USBCLKSource_PLLCLK_1Div5: PLL clock divided by 1,5 selected as USB 
 724:Libraries/STM32F10x_StdPeriph_Driver/src/stm32f10x_rcc.c ****   *                                     clock source
ARM GAS  /var/folders/lp/0dm50ddn51vc39svyzv_6fp00000gn/T//ccS91u3A.s 			page 23


 725:Libraries/STM32F10x_StdPeriph_Driver/src/stm32f10x_rcc.c ****   *     @arg RCC_USBCLKSource_PLLCLK_Div1: PLL clock selected as USB clock source
 726:Libraries/STM32F10x_StdPeriph_Driver/src/stm32f10x_rcc.c ****   * @retval None
 727:Libraries/STM32F10x_StdPeriph_Driver/src/stm32f10x_rcc.c ****   */
 728:Libraries/STM32F10x_StdPeriph_Driver/src/stm32f10x_rcc.c **** void RCC_USBCLKConfig(uint32_t RCC_USBCLKSource)
 729:Libraries/STM32F10x_StdPeriph_Driver/src/stm32f10x_rcc.c **** {
 528              		.loc 1 729 0
 529              		.cfi_startproc
 530              		@ args = 0, pretend = 0, frame = 0
 531              		@ frame_needed = 0, uses_anonymous_args = 0
 532              		@ link register save eliminated.
 533              	.LVL37:
 730:Libraries/STM32F10x_StdPeriph_Driver/src/stm32f10x_rcc.c ****   /* Check the parameters */
 731:Libraries/STM32F10x_StdPeriph_Driver/src/stm32f10x_rcc.c ****   assert_param(IS_RCC_USBCLK_SOURCE(RCC_USBCLKSource));
 732:Libraries/STM32F10x_StdPeriph_Driver/src/stm32f10x_rcc.c **** 
 733:Libraries/STM32F10x_StdPeriph_Driver/src/stm32f10x_rcc.c ****   *(__IO uint32_t *) CFGR_USBPRE_BB = RCC_USBCLKSource;
 534              		.loc 1 733 0
 535 014c 014B     		ldr	r3, .L49	@ tmp111,
 536 014e 1860     		str	r0, [r3]	@ RCC_USBCLKSource, MEM[(volatile uint32_t *)1111621848B]
 537 0150 7047     		bx	lr	@
 538              	.L50:
 539 0152 00BF     		.align	2
 540              	.L49:
 541 0154 D8004242 		.word	1111621848
 542              		.cfi_endproc
 543              	.LFE43:
 544              		.size	RCC_USBCLKConfig, .-RCC_USBCLKConfig
 545              		.align	1
 546              		.global	RCC_ADCCLKConfig
 547              		.thumb
 548              		.thumb_func
 549              		.type	RCC_ADCCLKConfig, %function
 550              	RCC_ADCCLKConfig:
 551              	.LFB44:
 734:Libraries/STM32F10x_StdPeriph_Driver/src/stm32f10x_rcc.c **** }
 735:Libraries/STM32F10x_StdPeriph_Driver/src/stm32f10x_rcc.c **** #else
 736:Libraries/STM32F10x_StdPeriph_Driver/src/stm32f10x_rcc.c **** /**
 737:Libraries/STM32F10x_StdPeriph_Driver/src/stm32f10x_rcc.c ****   * @brief  Configures the USB OTG FS clock (OTGFSCLK).
 738:Libraries/STM32F10x_StdPeriph_Driver/src/stm32f10x_rcc.c ****   *   This function applies only to STM32 Connectivity line devices.
 739:Libraries/STM32F10x_StdPeriph_Driver/src/stm32f10x_rcc.c ****   * @param  RCC_OTGFSCLKSource: specifies the USB OTG FS clock source.
 740:Libraries/STM32F10x_StdPeriph_Driver/src/stm32f10x_rcc.c ****   *   This clock is derived from the PLL output.
 741:Libraries/STM32F10x_StdPeriph_Driver/src/stm32f10x_rcc.c ****   *   This parameter can be one of the following values:
 742:Libraries/STM32F10x_StdPeriph_Driver/src/stm32f10x_rcc.c ****   *     @arg  RCC_OTGFSCLKSource_PLLVCO_Div3: PLL VCO clock divided by 2 selected as USB OTG FS clo
 743:Libraries/STM32F10x_StdPeriph_Driver/src/stm32f10x_rcc.c ****   *     @arg  RCC_OTGFSCLKSource_PLLVCO_Div2: PLL VCO clock divided by 2 selected as USB OTG FS clo
 744:Libraries/STM32F10x_StdPeriph_Driver/src/stm32f10x_rcc.c ****   * @retval None
 745:Libraries/STM32F10x_StdPeriph_Driver/src/stm32f10x_rcc.c ****   */
 746:Libraries/STM32F10x_StdPeriph_Driver/src/stm32f10x_rcc.c **** void RCC_OTGFSCLKConfig(uint32_t RCC_OTGFSCLKSource)
 747:Libraries/STM32F10x_StdPeriph_Driver/src/stm32f10x_rcc.c **** {
 748:Libraries/STM32F10x_StdPeriph_Driver/src/stm32f10x_rcc.c ****   /* Check the parameters */
 749:Libraries/STM32F10x_StdPeriph_Driver/src/stm32f10x_rcc.c ****   assert_param(IS_RCC_OTGFSCLK_SOURCE(RCC_OTGFSCLKSource));
 750:Libraries/STM32F10x_StdPeriph_Driver/src/stm32f10x_rcc.c **** 
 751:Libraries/STM32F10x_StdPeriph_Driver/src/stm32f10x_rcc.c ****   *(__IO uint32_t *) CFGR_OTGFSPRE_BB = RCC_OTGFSCLKSource;
 752:Libraries/STM32F10x_StdPeriph_Driver/src/stm32f10x_rcc.c **** }
 753:Libraries/STM32F10x_StdPeriph_Driver/src/stm32f10x_rcc.c **** #endif /* STM32F10X_CL */ 
 754:Libraries/STM32F10x_StdPeriph_Driver/src/stm32f10x_rcc.c **** 
 755:Libraries/STM32F10x_StdPeriph_Driver/src/stm32f10x_rcc.c **** /**
 756:Libraries/STM32F10x_StdPeriph_Driver/src/stm32f10x_rcc.c ****   * @brief  Configures the ADC clock (ADCCLK).
 757:Libraries/STM32F10x_StdPeriph_Driver/src/stm32f10x_rcc.c ****   * @param  RCC_PCLK2: defines the ADC clock divider. This clock is derived from 
ARM GAS  /var/folders/lp/0dm50ddn51vc39svyzv_6fp00000gn/T//ccS91u3A.s 			page 24


 758:Libraries/STM32F10x_StdPeriph_Driver/src/stm32f10x_rcc.c ****   *   the APB2 clock (PCLK2).
 759:Libraries/STM32F10x_StdPeriph_Driver/src/stm32f10x_rcc.c ****   *   This parameter can be one of the following values:
 760:Libraries/STM32F10x_StdPeriph_Driver/src/stm32f10x_rcc.c ****   *     @arg RCC_PCLK2_Div2: ADC clock = PCLK2/2
 761:Libraries/STM32F10x_StdPeriph_Driver/src/stm32f10x_rcc.c ****   *     @arg RCC_PCLK2_Div4: ADC clock = PCLK2/4
 762:Libraries/STM32F10x_StdPeriph_Driver/src/stm32f10x_rcc.c ****   *     @arg RCC_PCLK2_Div6: ADC clock = PCLK2/6
 763:Libraries/STM32F10x_StdPeriph_Driver/src/stm32f10x_rcc.c ****   *     @arg RCC_PCLK2_Div8: ADC clock = PCLK2/8
 764:Libraries/STM32F10x_StdPeriph_Driver/src/stm32f10x_rcc.c ****   * @retval None
 765:Libraries/STM32F10x_StdPeriph_Driver/src/stm32f10x_rcc.c ****   */
 766:Libraries/STM32F10x_StdPeriph_Driver/src/stm32f10x_rcc.c **** void RCC_ADCCLKConfig(uint32_t RCC_PCLK2)
 767:Libraries/STM32F10x_StdPeriph_Driver/src/stm32f10x_rcc.c **** {
 552              		.loc 1 767 0
 553              		.cfi_startproc
 554              		@ args = 0, pretend = 0, frame = 0
 555              		@ frame_needed = 0, uses_anonymous_args = 0
 556              		@ link register save eliminated.
 557              	.LVL38:
 768:Libraries/STM32F10x_StdPeriph_Driver/src/stm32f10x_rcc.c ****   uint32_t tmpreg = 0;
 769:Libraries/STM32F10x_StdPeriph_Driver/src/stm32f10x_rcc.c ****   /* Check the parameters */
 770:Libraries/STM32F10x_StdPeriph_Driver/src/stm32f10x_rcc.c ****   assert_param(IS_RCC_ADCCLK(RCC_PCLK2));
 771:Libraries/STM32F10x_StdPeriph_Driver/src/stm32f10x_rcc.c ****   tmpreg = RCC->CFGR;
 558              		.loc 1 771 0
 559 0158 034A     		ldr	r2, .L52	@ tmp114,
 560 015a 5368     		ldr	r3, [r2, #4]	@ tmpreg, MEM[(struct RCC_TypeDef *)1073876992B].CFGR
 561              	.LVL39:
 772:Libraries/STM32F10x_StdPeriph_Driver/src/stm32f10x_rcc.c ****   /* Clear ADCPRE[1:0] bits */
 773:Libraries/STM32F10x_StdPeriph_Driver/src/stm32f10x_rcc.c ****   tmpreg &= CFGR_ADCPRE_Reset_Mask;
 562              		.loc 1 773 0
 563 015c 23F44043 		bic	r3, r3, #49152	@ tmpreg, tmpreg,
 564              	.LVL40:
 774:Libraries/STM32F10x_StdPeriph_Driver/src/stm32f10x_rcc.c ****   /* Set ADCPRE[1:0] bits according to RCC_PCLK2 value */
 775:Libraries/STM32F10x_StdPeriph_Driver/src/stm32f10x_rcc.c ****   tmpreg |= RCC_PCLK2;
 565              		.loc 1 775 0
 566 0160 1843     		orrs	r0, r0, r3	@, tmpreg, RCC_PCLK2, tmpreg
 567              	.LVL41:
 776:Libraries/STM32F10x_StdPeriph_Driver/src/stm32f10x_rcc.c ****   /* Store the new value */
 777:Libraries/STM32F10x_StdPeriph_Driver/src/stm32f10x_rcc.c ****   RCC->CFGR = tmpreg;
 568              		.loc 1 777 0
 569 0162 5060     		str	r0, [r2, #4]	@ tmpreg, MEM[(struct RCC_TypeDef *)1073876992B].CFGR
 570 0164 7047     		bx	lr	@
 571              	.L53:
 572 0166 00BF     		.align	2
 573              	.L52:
 574 0168 00100240 		.word	1073876992
 575              		.cfi_endproc
 576              	.LFE44:
 577              		.size	RCC_ADCCLKConfig, .-RCC_ADCCLKConfig
 578              		.align	1
 579              		.global	RCC_LSEConfig
 580              		.thumb
 581              		.thumb_func
 582              		.type	RCC_LSEConfig, %function
 583              	RCC_LSEConfig:
 584              	.LFB45:
 778:Libraries/STM32F10x_StdPeriph_Driver/src/stm32f10x_rcc.c **** }
 779:Libraries/STM32F10x_StdPeriph_Driver/src/stm32f10x_rcc.c **** 
 780:Libraries/STM32F10x_StdPeriph_Driver/src/stm32f10x_rcc.c **** #ifdef STM32F10X_CL
 781:Libraries/STM32F10x_StdPeriph_Driver/src/stm32f10x_rcc.c **** /**
ARM GAS  /var/folders/lp/0dm50ddn51vc39svyzv_6fp00000gn/T//ccS91u3A.s 			page 25


 782:Libraries/STM32F10x_StdPeriph_Driver/src/stm32f10x_rcc.c ****   * @brief  Configures the I2S2 clock source(I2S2CLK).
 783:Libraries/STM32F10x_StdPeriph_Driver/src/stm32f10x_rcc.c ****   * @note
 784:Libraries/STM32F10x_StdPeriph_Driver/src/stm32f10x_rcc.c ****   *   - This function must be called before enabling I2S2 APB clock.
 785:Libraries/STM32F10x_StdPeriph_Driver/src/stm32f10x_rcc.c ****   *   - This function applies only to STM32 Connectivity line devices.
 786:Libraries/STM32F10x_StdPeriph_Driver/src/stm32f10x_rcc.c ****   * @param  RCC_I2S2CLKSource: specifies the I2S2 clock source.
 787:Libraries/STM32F10x_StdPeriph_Driver/src/stm32f10x_rcc.c ****   *   This parameter can be one of the following values:
 788:Libraries/STM32F10x_StdPeriph_Driver/src/stm32f10x_rcc.c ****   *     @arg RCC_I2S2CLKSource_SYSCLK: system clock selected as I2S2 clock entry
 789:Libraries/STM32F10x_StdPeriph_Driver/src/stm32f10x_rcc.c ****   *     @arg RCC_I2S2CLKSource_PLL3_VCO: PLL3 VCO clock selected as I2S2 clock entry
 790:Libraries/STM32F10x_StdPeriph_Driver/src/stm32f10x_rcc.c ****   * @retval None
 791:Libraries/STM32F10x_StdPeriph_Driver/src/stm32f10x_rcc.c ****   */
 792:Libraries/STM32F10x_StdPeriph_Driver/src/stm32f10x_rcc.c **** void RCC_I2S2CLKConfig(uint32_t RCC_I2S2CLKSource)
 793:Libraries/STM32F10x_StdPeriph_Driver/src/stm32f10x_rcc.c **** {
 794:Libraries/STM32F10x_StdPeriph_Driver/src/stm32f10x_rcc.c ****   /* Check the parameters */
 795:Libraries/STM32F10x_StdPeriph_Driver/src/stm32f10x_rcc.c ****   assert_param(IS_RCC_I2S2CLK_SOURCE(RCC_I2S2CLKSource));
 796:Libraries/STM32F10x_StdPeriph_Driver/src/stm32f10x_rcc.c **** 
 797:Libraries/STM32F10x_StdPeriph_Driver/src/stm32f10x_rcc.c ****   *(__IO uint32_t *) CFGR2_I2S2SRC_BB = RCC_I2S2CLKSource;
 798:Libraries/STM32F10x_StdPeriph_Driver/src/stm32f10x_rcc.c **** }
 799:Libraries/STM32F10x_StdPeriph_Driver/src/stm32f10x_rcc.c **** 
 800:Libraries/STM32F10x_StdPeriph_Driver/src/stm32f10x_rcc.c **** /**
 801:Libraries/STM32F10x_StdPeriph_Driver/src/stm32f10x_rcc.c ****   * @brief  Configures the I2S3 clock source(I2S2CLK).
 802:Libraries/STM32F10x_StdPeriph_Driver/src/stm32f10x_rcc.c ****   * @note
 803:Libraries/STM32F10x_StdPeriph_Driver/src/stm32f10x_rcc.c ****   *   - This function must be called before enabling I2S3 APB clock.
 804:Libraries/STM32F10x_StdPeriph_Driver/src/stm32f10x_rcc.c ****   *   - This function applies only to STM32 Connectivity line devices.
 805:Libraries/STM32F10x_StdPeriph_Driver/src/stm32f10x_rcc.c ****   * @param  RCC_I2S3CLKSource: specifies the I2S3 clock source.
 806:Libraries/STM32F10x_StdPeriph_Driver/src/stm32f10x_rcc.c ****   *   This parameter can be one of the following values:
 807:Libraries/STM32F10x_StdPeriph_Driver/src/stm32f10x_rcc.c ****   *     @arg RCC_I2S3CLKSource_SYSCLK: system clock selected as I2S3 clock entry
 808:Libraries/STM32F10x_StdPeriph_Driver/src/stm32f10x_rcc.c ****   *     @arg RCC_I2S3CLKSource_PLL3_VCO: PLL3 VCO clock selected as I2S3 clock entry
 809:Libraries/STM32F10x_StdPeriph_Driver/src/stm32f10x_rcc.c ****   * @retval None
 810:Libraries/STM32F10x_StdPeriph_Driver/src/stm32f10x_rcc.c ****   */
 811:Libraries/STM32F10x_StdPeriph_Driver/src/stm32f10x_rcc.c **** void RCC_I2S3CLKConfig(uint32_t RCC_I2S3CLKSource)
 812:Libraries/STM32F10x_StdPeriph_Driver/src/stm32f10x_rcc.c **** {
 813:Libraries/STM32F10x_StdPeriph_Driver/src/stm32f10x_rcc.c ****   /* Check the parameters */
 814:Libraries/STM32F10x_StdPeriph_Driver/src/stm32f10x_rcc.c ****   assert_param(IS_RCC_I2S3CLK_SOURCE(RCC_I2S3CLKSource));
 815:Libraries/STM32F10x_StdPeriph_Driver/src/stm32f10x_rcc.c **** 
 816:Libraries/STM32F10x_StdPeriph_Driver/src/stm32f10x_rcc.c ****   *(__IO uint32_t *) CFGR2_I2S3SRC_BB = RCC_I2S3CLKSource;
 817:Libraries/STM32F10x_StdPeriph_Driver/src/stm32f10x_rcc.c **** }
 818:Libraries/STM32F10x_StdPeriph_Driver/src/stm32f10x_rcc.c **** #endif /* STM32F10X_CL */
 819:Libraries/STM32F10x_StdPeriph_Driver/src/stm32f10x_rcc.c **** 
 820:Libraries/STM32F10x_StdPeriph_Driver/src/stm32f10x_rcc.c **** /**
 821:Libraries/STM32F10x_StdPeriph_Driver/src/stm32f10x_rcc.c ****   * @brief  Configures the External Low Speed oscillator (LSE).
 822:Libraries/STM32F10x_StdPeriph_Driver/src/stm32f10x_rcc.c ****   * @param  RCC_LSE: specifies the new state of the LSE.
 823:Libraries/STM32F10x_StdPeriph_Driver/src/stm32f10x_rcc.c ****   *   This parameter can be one of the following values:
 824:Libraries/STM32F10x_StdPeriph_Driver/src/stm32f10x_rcc.c ****   *     @arg RCC_LSE_OFF: LSE oscillator OFF
 825:Libraries/STM32F10x_StdPeriph_Driver/src/stm32f10x_rcc.c ****   *     @arg RCC_LSE_ON: LSE oscillator ON
 826:Libraries/STM32F10x_StdPeriph_Driver/src/stm32f10x_rcc.c ****   *     @arg RCC_LSE_Bypass: LSE oscillator bypassed with external clock
 827:Libraries/STM32F10x_StdPeriph_Driver/src/stm32f10x_rcc.c ****   * @retval None
 828:Libraries/STM32F10x_StdPeriph_Driver/src/stm32f10x_rcc.c ****   */
 829:Libraries/STM32F10x_StdPeriph_Driver/src/stm32f10x_rcc.c **** void RCC_LSEConfig(uint8_t RCC_LSE)
 830:Libraries/STM32F10x_StdPeriph_Driver/src/stm32f10x_rcc.c **** {
 585              		.loc 1 830 0
 586              		.cfi_startproc
 587              		@ args = 0, pretend = 0, frame = 0
 588              		@ frame_needed = 0, uses_anonymous_args = 0
 589              		@ link register save eliminated.
 590              	.LVL42:
 831:Libraries/STM32F10x_StdPeriph_Driver/src/stm32f10x_rcc.c ****   /* Check the parameters */
 832:Libraries/STM32F10x_StdPeriph_Driver/src/stm32f10x_rcc.c ****   assert_param(IS_RCC_LSE(RCC_LSE));
ARM GAS  /var/folders/lp/0dm50ddn51vc39svyzv_6fp00000gn/T//ccS91u3A.s 			page 26


 833:Libraries/STM32F10x_StdPeriph_Driver/src/stm32f10x_rcc.c ****   /* Reset LSEON and LSEBYP bits before configuring the LSE ------------------*/
 834:Libraries/STM32F10x_StdPeriph_Driver/src/stm32f10x_rcc.c ****   /* Reset LSEON bit */
 835:Libraries/STM32F10x_StdPeriph_Driver/src/stm32f10x_rcc.c ****   *(__IO uint8_t *) BDCR_ADDRESS = RCC_LSE_OFF;
 591              		.loc 1 835 0
 592 016c 064B     		ldr	r3, .L58	@ tmp111,
 593 016e 0022     		movs	r2, #0	@ tmp112,
 836:Libraries/STM32F10x_StdPeriph_Driver/src/stm32f10x_rcc.c ****   /* Reset LSEBYP bit */
 837:Libraries/STM32F10x_StdPeriph_Driver/src/stm32f10x_rcc.c ****   *(__IO uint8_t *) BDCR_ADDRESS = RCC_LSE_OFF;
 838:Libraries/STM32F10x_StdPeriph_Driver/src/stm32f10x_rcc.c ****   /* Configure LSE (RCC_LSE_OFF is already covered by the code section above) */
 839:Libraries/STM32F10x_StdPeriph_Driver/src/stm32f10x_rcc.c ****   switch(RCC_LSE)
 594              		.loc 1 839 0
 595 0170 0128     		cmp	r0, #1	@ RCC_LSE,
 835:Libraries/STM32F10x_StdPeriph_Driver/src/stm32f10x_rcc.c ****   /* Reset LSEBYP bit */
 596              		.loc 1 835 0
 597 0172 1A70     		strb	r2, [r3]	@ tmp112, MEM[(volatile uint8_t *)1073877024B]
 837:Libraries/STM32F10x_StdPeriph_Driver/src/stm32f10x_rcc.c ****   /* Configure LSE (RCC_LSE_OFF is already covered by the code section above) */
 598              		.loc 1 837 0
 599 0174 1A70     		strb	r2, [r3]	@ tmp112, MEM[(volatile uint8_t *)1073877024B]
 600              		.loc 1 839 0
 601 0176 02D0     		beq	.L56	@,
 602 0178 0428     		cmp	r0, #4	@ RCC_LSE,
 603 017a 02D0     		beq	.L57	@,
 604 017c 7047     		bx	lr	@
 605              	.L56:
 840:Libraries/STM32F10x_StdPeriph_Driver/src/stm32f10x_rcc.c ****   {
 841:Libraries/STM32F10x_StdPeriph_Driver/src/stm32f10x_rcc.c ****     case RCC_LSE_ON:
 842:Libraries/STM32F10x_StdPeriph_Driver/src/stm32f10x_rcc.c ****       /* Set LSEON bit */
 843:Libraries/STM32F10x_StdPeriph_Driver/src/stm32f10x_rcc.c ****       *(__IO uint8_t *) BDCR_ADDRESS = RCC_LSE_ON;
 606              		.loc 1 843 0
 607 017e 1870     		strb	r0, [r3]	@ RCC_LSE, MEM[(volatile uint8_t *)1073877024B]
 844:Libraries/STM32F10x_StdPeriph_Driver/src/stm32f10x_rcc.c ****       break;
 608              		.loc 1 844 0
 609 0180 7047     		bx	lr	@
 610              	.L57:
 845:Libraries/STM32F10x_StdPeriph_Driver/src/stm32f10x_rcc.c ****       
 846:Libraries/STM32F10x_StdPeriph_Driver/src/stm32f10x_rcc.c ****     case RCC_LSE_Bypass:
 847:Libraries/STM32F10x_StdPeriph_Driver/src/stm32f10x_rcc.c ****       /* Set LSEBYP and LSEON bits */
 848:Libraries/STM32F10x_StdPeriph_Driver/src/stm32f10x_rcc.c ****       *(__IO uint8_t *) BDCR_ADDRESS = RCC_LSE_Bypass | RCC_LSE_ON;
 611              		.loc 1 848 0
 612 0182 0522     		movs	r2, #5	@ tmp121,
 613 0184 1A70     		strb	r2, [r3]	@ tmp121, MEM[(volatile uint8_t *)1073877024B]
 614 0186 7047     		bx	lr	@
 615              	.L59:
 616              		.align	2
 617              	.L58:
 618 0188 20100240 		.word	1073877024
 619              		.cfi_endproc
 620              	.LFE45:
 621              		.size	RCC_LSEConfig, .-RCC_LSEConfig
 622              		.align	1
 623              		.global	RCC_LSICmd
 624              		.thumb
 625              		.thumb_func
 626              		.type	RCC_LSICmd, %function
 627              	RCC_LSICmd:
 628              	.LFB46:
 849:Libraries/STM32F10x_StdPeriph_Driver/src/stm32f10x_rcc.c ****       break;            
ARM GAS  /var/folders/lp/0dm50ddn51vc39svyzv_6fp00000gn/T//ccS91u3A.s 			page 27


 850:Libraries/STM32F10x_StdPeriph_Driver/src/stm32f10x_rcc.c ****       
 851:Libraries/STM32F10x_StdPeriph_Driver/src/stm32f10x_rcc.c ****     default:
 852:Libraries/STM32F10x_StdPeriph_Driver/src/stm32f10x_rcc.c ****       break;      
 853:Libraries/STM32F10x_StdPeriph_Driver/src/stm32f10x_rcc.c ****   }
 854:Libraries/STM32F10x_StdPeriph_Driver/src/stm32f10x_rcc.c **** }
 855:Libraries/STM32F10x_StdPeriph_Driver/src/stm32f10x_rcc.c **** 
 856:Libraries/STM32F10x_StdPeriph_Driver/src/stm32f10x_rcc.c **** /**
 857:Libraries/STM32F10x_StdPeriph_Driver/src/stm32f10x_rcc.c ****   * @brief  Enables or disables the Internal Low Speed oscillator (LSI).
 858:Libraries/STM32F10x_StdPeriph_Driver/src/stm32f10x_rcc.c ****   * @note   LSI can not be disabled if the IWDG is running.
 859:Libraries/STM32F10x_StdPeriph_Driver/src/stm32f10x_rcc.c ****   * @param  NewState: new state of the LSI. This parameter can be: ENABLE or DISABLE.
 860:Libraries/STM32F10x_StdPeriph_Driver/src/stm32f10x_rcc.c ****   * @retval None
 861:Libraries/STM32F10x_StdPeriph_Driver/src/stm32f10x_rcc.c ****   */
 862:Libraries/STM32F10x_StdPeriph_Driver/src/stm32f10x_rcc.c **** void RCC_LSICmd(FunctionalState NewState)
 863:Libraries/STM32F10x_StdPeriph_Driver/src/stm32f10x_rcc.c **** {
 629              		.loc 1 863 0
 630              		.cfi_startproc
 631              		@ args = 0, pretend = 0, frame = 0
 632              		@ frame_needed = 0, uses_anonymous_args = 0
 633              		@ link register save eliminated.
 634              	.LVL43:
 864:Libraries/STM32F10x_StdPeriph_Driver/src/stm32f10x_rcc.c ****   /* Check the parameters */
 865:Libraries/STM32F10x_StdPeriph_Driver/src/stm32f10x_rcc.c ****   assert_param(IS_FUNCTIONAL_STATE(NewState));
 866:Libraries/STM32F10x_StdPeriph_Driver/src/stm32f10x_rcc.c ****   *(__IO uint32_t *) CSR_LSION_BB = (uint32_t)NewState;
 635              		.loc 1 866 0
 636 018c 014B     		ldr	r3, .L61	@ tmp112,
 637 018e 1860     		str	r0, [r3]	@ NewState, MEM[(volatile uint32_t *)1111622784B]
 638 0190 7047     		bx	lr	@
 639              	.L62:
 640 0192 00BF     		.align	2
 641              	.L61:
 642 0194 80044242 		.word	1111622784
 643              		.cfi_endproc
 644              	.LFE46:
 645              		.size	RCC_LSICmd, .-RCC_LSICmd
 646              		.align	1
 647              		.global	RCC_RTCCLKConfig
 648              		.thumb
 649              		.thumb_func
 650              		.type	RCC_RTCCLKConfig, %function
 651              	RCC_RTCCLKConfig:
 652              	.LFB47:
 867:Libraries/STM32F10x_StdPeriph_Driver/src/stm32f10x_rcc.c **** }
 868:Libraries/STM32F10x_StdPeriph_Driver/src/stm32f10x_rcc.c **** 
 869:Libraries/STM32F10x_StdPeriph_Driver/src/stm32f10x_rcc.c **** /**
 870:Libraries/STM32F10x_StdPeriph_Driver/src/stm32f10x_rcc.c ****   * @brief  Configures the RTC clock (RTCCLK).
 871:Libraries/STM32F10x_StdPeriph_Driver/src/stm32f10x_rcc.c ****   * @note   Once the RTC clock is selected it can't be changed unless the Backup domain is reset.
 872:Libraries/STM32F10x_StdPeriph_Driver/src/stm32f10x_rcc.c ****   * @param  RCC_RTCCLKSource: specifies the RTC clock source.
 873:Libraries/STM32F10x_StdPeriph_Driver/src/stm32f10x_rcc.c ****   *   This parameter can be one of the following values:
 874:Libraries/STM32F10x_StdPeriph_Driver/src/stm32f10x_rcc.c ****   *     @arg RCC_RTCCLKSource_LSE: LSE selected as RTC clock
 875:Libraries/STM32F10x_StdPeriph_Driver/src/stm32f10x_rcc.c ****   *     @arg RCC_RTCCLKSource_LSI: LSI selected as RTC clock
 876:Libraries/STM32F10x_StdPeriph_Driver/src/stm32f10x_rcc.c ****   *     @arg RCC_RTCCLKSource_HSE_Div128: HSE clock divided by 128 selected as RTC clock
 877:Libraries/STM32F10x_StdPeriph_Driver/src/stm32f10x_rcc.c ****   * @retval None
 878:Libraries/STM32F10x_StdPeriph_Driver/src/stm32f10x_rcc.c ****   */
 879:Libraries/STM32F10x_StdPeriph_Driver/src/stm32f10x_rcc.c **** void RCC_RTCCLKConfig(uint32_t RCC_RTCCLKSource)
 880:Libraries/STM32F10x_StdPeriph_Driver/src/stm32f10x_rcc.c **** {
 653              		.loc 1 880 0
 654              		.cfi_startproc
ARM GAS  /var/folders/lp/0dm50ddn51vc39svyzv_6fp00000gn/T//ccS91u3A.s 			page 28


 655              		@ args = 0, pretend = 0, frame = 0
 656              		@ frame_needed = 0, uses_anonymous_args = 0
 657              		@ link register save eliminated.
 658              	.LVL44:
 881:Libraries/STM32F10x_StdPeriph_Driver/src/stm32f10x_rcc.c ****   /* Check the parameters */
 882:Libraries/STM32F10x_StdPeriph_Driver/src/stm32f10x_rcc.c ****   assert_param(IS_RCC_RTCCLK_SOURCE(RCC_RTCCLKSource));
 883:Libraries/STM32F10x_StdPeriph_Driver/src/stm32f10x_rcc.c ****   /* Select the RTC clock source */
 884:Libraries/STM32F10x_StdPeriph_Driver/src/stm32f10x_rcc.c ****   RCC->BDCR |= RCC_RTCCLKSource;
 659              		.loc 1 884 0
 660 0198 024A     		ldr	r2, .L64	@ tmp113,
 661 019a 136A     		ldr	r3, [r2, #32]	@ D.6991, MEM[(struct RCC_TypeDef *)1073876992B].BDCR
 662 019c 1843     		orrs	r0, r0, r3	@, D.6991, RCC_RTCCLKSource, D.6991
 663              	.LVL45:
 664 019e 1062     		str	r0, [r2, #32]	@ D.6991, MEM[(struct RCC_TypeDef *)1073876992B].BDCR
 665 01a0 7047     		bx	lr	@
 666              	.L65:
 667 01a2 00BF     		.align	2
 668              	.L64:
 669 01a4 00100240 		.word	1073876992
 670              		.cfi_endproc
 671              	.LFE47:
 672              		.size	RCC_RTCCLKConfig, .-RCC_RTCCLKConfig
 673              		.align	1
 674              		.global	RCC_RTCCLKCmd
 675              		.thumb
 676              		.thumb_func
 677              		.type	RCC_RTCCLKCmd, %function
 678              	RCC_RTCCLKCmd:
 679              	.LFB48:
 885:Libraries/STM32F10x_StdPeriph_Driver/src/stm32f10x_rcc.c **** }
 886:Libraries/STM32F10x_StdPeriph_Driver/src/stm32f10x_rcc.c **** 
 887:Libraries/STM32F10x_StdPeriph_Driver/src/stm32f10x_rcc.c **** /**
 888:Libraries/STM32F10x_StdPeriph_Driver/src/stm32f10x_rcc.c ****   * @brief  Enables or disables the RTC clock.
 889:Libraries/STM32F10x_StdPeriph_Driver/src/stm32f10x_rcc.c ****   * @note   This function must be used only after the RTC clock was selected using the RCC_RTCCLKCo
 890:Libraries/STM32F10x_StdPeriph_Driver/src/stm32f10x_rcc.c ****   * @param  NewState: new state of the RTC clock. This parameter can be: ENABLE or DISABLE.
 891:Libraries/STM32F10x_StdPeriph_Driver/src/stm32f10x_rcc.c ****   * @retval None
 892:Libraries/STM32F10x_StdPeriph_Driver/src/stm32f10x_rcc.c ****   */
 893:Libraries/STM32F10x_StdPeriph_Driver/src/stm32f10x_rcc.c **** void RCC_RTCCLKCmd(FunctionalState NewState)
 894:Libraries/STM32F10x_StdPeriph_Driver/src/stm32f10x_rcc.c **** {
 680              		.loc 1 894 0
 681              		.cfi_startproc
 682              		@ args = 0, pretend = 0, frame = 0
 683              		@ frame_needed = 0, uses_anonymous_args = 0
 684              		@ link register save eliminated.
 685              	.LVL46:
 895:Libraries/STM32F10x_StdPeriph_Driver/src/stm32f10x_rcc.c ****   /* Check the parameters */
 896:Libraries/STM32F10x_StdPeriph_Driver/src/stm32f10x_rcc.c ****   assert_param(IS_FUNCTIONAL_STATE(NewState));
 897:Libraries/STM32F10x_StdPeriph_Driver/src/stm32f10x_rcc.c ****   *(__IO uint32_t *) BDCR_RTCEN_BB = (uint32_t)NewState;
 686              		.loc 1 897 0
 687 01a8 014B     		ldr	r3, .L67	@ tmp112,
 688 01aa 1860     		str	r0, [r3]	@ NewState, MEM[(volatile uint32_t *)1111622716B]
 689 01ac 7047     		bx	lr	@
 690              	.L68:
 691 01ae 00BF     		.align	2
 692              	.L67:
 693 01b0 3C044242 		.word	1111622716
 694              		.cfi_endproc
ARM GAS  /var/folders/lp/0dm50ddn51vc39svyzv_6fp00000gn/T//ccS91u3A.s 			page 29


 695              	.LFE48:
 696              		.size	RCC_RTCCLKCmd, .-RCC_RTCCLKCmd
 697              		.align	1
 698              		.global	RCC_GetClocksFreq
 699              		.thumb
 700              		.thumb_func
 701              		.type	RCC_GetClocksFreq, %function
 702              	RCC_GetClocksFreq:
 703              	.LFB49:
 898:Libraries/STM32F10x_StdPeriph_Driver/src/stm32f10x_rcc.c **** }
 899:Libraries/STM32F10x_StdPeriph_Driver/src/stm32f10x_rcc.c **** 
 900:Libraries/STM32F10x_StdPeriph_Driver/src/stm32f10x_rcc.c **** /**
 901:Libraries/STM32F10x_StdPeriph_Driver/src/stm32f10x_rcc.c ****   * @brief  Returns the frequencies of different on chip clocks.
 902:Libraries/STM32F10x_StdPeriph_Driver/src/stm32f10x_rcc.c ****   * @param  RCC_Clocks: pointer to a RCC_ClocksTypeDef structure which will hold
 903:Libraries/STM32F10x_StdPeriph_Driver/src/stm32f10x_rcc.c ****   *         the clocks frequencies.
 904:Libraries/STM32F10x_StdPeriph_Driver/src/stm32f10x_rcc.c ****   * @note   The result of this function could be not correct when using 
 905:Libraries/STM32F10x_StdPeriph_Driver/src/stm32f10x_rcc.c ****   *         fractional value for HSE crystal.  
 906:Libraries/STM32F10x_StdPeriph_Driver/src/stm32f10x_rcc.c ****   * @retval None
 907:Libraries/STM32F10x_StdPeriph_Driver/src/stm32f10x_rcc.c ****   */
 908:Libraries/STM32F10x_StdPeriph_Driver/src/stm32f10x_rcc.c **** void RCC_GetClocksFreq(RCC_ClocksTypeDef* RCC_Clocks)
 909:Libraries/STM32F10x_StdPeriph_Driver/src/stm32f10x_rcc.c **** {
 704              		.loc 1 909 0
 705              		.cfi_startproc
 706              		@ args = 0, pretend = 0, frame = 0
 707              		@ frame_needed = 0, uses_anonymous_args = 0
 708              	.LVL47:
 910:Libraries/STM32F10x_StdPeriph_Driver/src/stm32f10x_rcc.c ****   uint32_t tmp = 0, pllmull = 0, pllsource = 0, presc = 0;
 911:Libraries/STM32F10x_StdPeriph_Driver/src/stm32f10x_rcc.c **** 
 912:Libraries/STM32F10x_StdPeriph_Driver/src/stm32f10x_rcc.c **** #ifdef  STM32F10X_CL
 913:Libraries/STM32F10x_StdPeriph_Driver/src/stm32f10x_rcc.c ****   uint32_t prediv1source = 0, prediv1factor = 0, prediv2factor = 0, pll2mull = 0;
 914:Libraries/STM32F10x_StdPeriph_Driver/src/stm32f10x_rcc.c **** #endif /* STM32F10X_CL */
 915:Libraries/STM32F10x_StdPeriph_Driver/src/stm32f10x_rcc.c **** 
 916:Libraries/STM32F10x_StdPeriph_Driver/src/stm32f10x_rcc.c **** #if defined (STM32F10X_LD_VL) || defined (STM32F10X_MD_VL) || defined (STM32F10X_HD_VL)
 917:Libraries/STM32F10x_StdPeriph_Driver/src/stm32f10x_rcc.c ****   uint32_t prediv1factor = 0;
 918:Libraries/STM32F10x_StdPeriph_Driver/src/stm32f10x_rcc.c **** #endif
 919:Libraries/STM32F10x_StdPeriph_Driver/src/stm32f10x_rcc.c ****     
 920:Libraries/STM32F10x_StdPeriph_Driver/src/stm32f10x_rcc.c ****   /* Get SYSCLK source -------------------------------------------------------*/
 921:Libraries/STM32F10x_StdPeriph_Driver/src/stm32f10x_rcc.c ****   tmp = RCC->CFGR & CFGR_SWS_Mask;
 709              		.loc 1 921 0
 710 01b4 1D4A     		ldr	r2, .L78	@ tmp150,
 909:Libraries/STM32F10x_StdPeriph_Driver/src/stm32f10x_rcc.c ****   uint32_t tmp = 0, pllmull = 0, pllsource = 0, presc = 0;
 711              		.loc 1 909 0
 712 01b6 10B5     		push	{r4, lr}	@
 713              	.LCFI0:
 714              		.cfi_def_cfa_offset 8
 715              		.cfi_offset 4, -8
 716              		.cfi_offset 14, -4
 717              		.loc 1 921 0
 718 01b8 5368     		ldr	r3, [r2, #4]	@ D.6997, MEM[(struct RCC_TypeDef *)1073876992B].CFGR
 719              	.LVL48:
 922:Libraries/STM32F10x_StdPeriph_Driver/src/stm32f10x_rcc.c ****   
 923:Libraries/STM32F10x_StdPeriph_Driver/src/stm32f10x_rcc.c ****   switch (tmp)
 720              		.loc 1 923 0
 721 01ba 03F00C03 		and	r3, r3, #12	@ tmp, D.6997,
 722              	.LVL49:
 723 01be 042B     		cmp	r3, #4	@ tmp,
 724 01c0 01D0     		beq	.L71	@,
ARM GAS  /var/folders/lp/0dm50ddn51vc39svyzv_6fp00000gn/T//ccS91u3A.s 			page 30


 725 01c2 082B     		cmp	r3, #8	@ tmp,
 726 01c4 01D0     		beq	.L72	@,
 727              	.L71:
 924:Libraries/STM32F10x_StdPeriph_Driver/src/stm32f10x_rcc.c ****   {
 925:Libraries/STM32F10x_StdPeriph_Driver/src/stm32f10x_rcc.c ****     case 0x00:  /* HSI used as system clock */
 926:Libraries/STM32F10x_StdPeriph_Driver/src/stm32f10x_rcc.c ****       RCC_Clocks->SYSCLK_Frequency = HSI_VALUE;
 927:Libraries/STM32F10x_StdPeriph_Driver/src/stm32f10x_rcc.c ****       break;
 928:Libraries/STM32F10x_StdPeriph_Driver/src/stm32f10x_rcc.c ****     case 0x04:  /* HSE used as system clock */
 929:Libraries/STM32F10x_StdPeriph_Driver/src/stm32f10x_rcc.c ****       RCC_Clocks->SYSCLK_Frequency = HSE_VALUE;
 728              		.loc 1 929 0
 729 01c6 1A4B     		ldr	r3, .L78+4	@ tmp153,
 730              	.LVL50:
 731 01c8 10E0     		b	.L76	@
 732              	.LVL51:
 733              	.L72:
 930:Libraries/STM32F10x_StdPeriph_Driver/src/stm32f10x_rcc.c ****       break;
 931:Libraries/STM32F10x_StdPeriph_Driver/src/stm32f10x_rcc.c ****     case 0x08:  /* PLL used as system clock */
 932:Libraries/STM32F10x_StdPeriph_Driver/src/stm32f10x_rcc.c **** 
 933:Libraries/STM32F10x_StdPeriph_Driver/src/stm32f10x_rcc.c ****       /* Get PLL clock source and multiplication factor ----------------------*/
 934:Libraries/STM32F10x_StdPeriph_Driver/src/stm32f10x_rcc.c ****       pllmull = RCC->CFGR & CFGR_PLLMull_Mask;
 734              		.loc 1 934 0
 735 01ca 5368     		ldr	r3, [r2, #4]	@ D.6997, MEM[(struct RCC_TypeDef *)1073876992B].CFGR
 736              	.LVL52:
 935:Libraries/STM32F10x_StdPeriph_Driver/src/stm32f10x_rcc.c ****       pllsource = RCC->CFGR & CFGR_PLLSRC_Mask;
 737              		.loc 1 935 0
 738 01cc 5168     		ldr	r1, [r2, #4]	@ D.6997, MEM[(struct RCC_TypeDef *)1073876992B].CFGR
 739              	.LVL53:
 936:Libraries/STM32F10x_StdPeriph_Driver/src/stm32f10x_rcc.c ****       
 937:Libraries/STM32F10x_StdPeriph_Driver/src/stm32f10x_rcc.c **** #ifndef STM32F10X_CL      
 938:Libraries/STM32F10x_StdPeriph_Driver/src/stm32f10x_rcc.c ****       pllmull = ( pllmull >> 18) + 2;
 740              		.loc 1 938 0
 741 01ce C3F38343 		ubfx	r3, r3, #18, #4	@ D.6997, D.6997,,
 742              	.LVL54:
 939:Libraries/STM32F10x_StdPeriph_Driver/src/stm32f10x_rcc.c ****       
 940:Libraries/STM32F10x_StdPeriph_Driver/src/stm32f10x_rcc.c ****       if (pllsource == 0x00)
 743              		.loc 1 940 0
 744 01d2 C903     		lsls	r1, r1, #15	@, D.6997,
 745              	.LVL55:
 941:Libraries/STM32F10x_StdPeriph_Driver/src/stm32f10x_rcc.c ****       {/* HSI oscillator clock divided by 2 selected as PLL clock entry */
 942:Libraries/STM32F10x_StdPeriph_Driver/src/stm32f10x_rcc.c ****         RCC_Clocks->SYSCLK_Frequency = (HSI_VALUE >> 1) * pllmull;
 943:Libraries/STM32F10x_StdPeriph_Driver/src/stm32f10x_rcc.c ****       }
 944:Libraries/STM32F10x_StdPeriph_Driver/src/stm32f10x_rcc.c ****       else
 945:Libraries/STM32F10x_StdPeriph_Driver/src/stm32f10x_rcc.c ****       {
 946:Libraries/STM32F10x_StdPeriph_Driver/src/stm32f10x_rcc.c ****  #if defined (STM32F10X_LD_VL) || defined (STM32F10X_MD_VL) || defined (STM32F10X_HD_VL)
 947:Libraries/STM32F10x_StdPeriph_Driver/src/stm32f10x_rcc.c ****        prediv1factor = (RCC->CFGR2 & CFGR2_PREDIV1) + 1;
 746              		.loc 1 947 0
 747 01d4 41BF     		itttt	mi
 748 01d6 D16A     		ldrmi	r1, [r2, #44]	@ D.6997, MEM[(struct RCC_TypeDef *)1073876992B].CFGR2
 948:Libraries/STM32F10x_StdPeriph_Driver/src/stm32f10x_rcc.c ****        /* HSE oscillator clock selected as PREDIV1 clock entry */
 949:Libraries/STM32F10x_StdPeriph_Driver/src/stm32f10x_rcc.c ****        RCC_Clocks->SYSCLK_Frequency = (HSE_VALUE / prediv1factor) * pllmull; 
 749              		.loc 1 949 0
 750 01d8 154C     		ldrmi	r4, .L78+4	@ tmp166,
 751 01da 01F00F01 		andmi	r1, r1, #15	@ D.6997, D.6997,
 752 01de 0131     		addmi	r1, r1, #1	@ prediv1factor, D.6997,
 753 01e0 4CBF     		ite	mi
 754 01e2 B4FBF1F1 		udivmi	r1, r4, r1	@ D.6997, tmp166, prediv1factor
 942:Libraries/STM32F10x_StdPeriph_Driver/src/stm32f10x_rcc.c ****       }
ARM GAS  /var/folders/lp/0dm50ddn51vc39svyzv_6fp00000gn/T//ccS91u3A.s 			page 31


 755              		.loc 1 942 0
 756 01e6 1349     		ldrpl	r1, .L78+8	@ tmp160,
 938:Libraries/STM32F10x_StdPeriph_Driver/src/stm32f10x_rcc.c ****       
 757              		.loc 1 938 0
 758 01e8 0233     		adds	r3, r3, #2	@ pllmull, D.6997,
 759              	.LVL56:
 760              		.loc 1 949 0
 761 01ea 4B43     		muls	r3, r1, r3	@ D.6997, D.6997
 762              	.LVL57:
 763              	.L76:
 764 01ec 0360     		str	r3, [r0]	@ D.6997, RCC_Clocks_10(D)->SYSCLK_Frequency
 950:Libraries/STM32F10x_StdPeriph_Driver/src/stm32f10x_rcc.c ****  #else
 951:Libraries/STM32F10x_StdPeriph_Driver/src/stm32f10x_rcc.c ****         /* HSE selected as PLL clock entry */
 952:Libraries/STM32F10x_StdPeriph_Driver/src/stm32f10x_rcc.c ****         if ((RCC->CFGR & CFGR_PLLXTPRE_Mask) != (uint32_t)RESET)
 953:Libraries/STM32F10x_StdPeriph_Driver/src/stm32f10x_rcc.c ****         {/* HSE oscillator clock divided by 2 */
 954:Libraries/STM32F10x_StdPeriph_Driver/src/stm32f10x_rcc.c ****           RCC_Clocks->SYSCLK_Frequency = (HSE_VALUE >> 1) * pllmull;
 955:Libraries/STM32F10x_StdPeriph_Driver/src/stm32f10x_rcc.c ****         }
 956:Libraries/STM32F10x_StdPeriph_Driver/src/stm32f10x_rcc.c ****         else
 957:Libraries/STM32F10x_StdPeriph_Driver/src/stm32f10x_rcc.c ****         {
 958:Libraries/STM32F10x_StdPeriph_Driver/src/stm32f10x_rcc.c ****           RCC_Clocks->SYSCLK_Frequency = HSE_VALUE * pllmull;
 959:Libraries/STM32F10x_StdPeriph_Driver/src/stm32f10x_rcc.c ****         }
 960:Libraries/STM32F10x_StdPeriph_Driver/src/stm32f10x_rcc.c ****  #endif
 961:Libraries/STM32F10x_StdPeriph_Driver/src/stm32f10x_rcc.c ****       }
 962:Libraries/STM32F10x_StdPeriph_Driver/src/stm32f10x_rcc.c **** #else
 963:Libraries/STM32F10x_StdPeriph_Driver/src/stm32f10x_rcc.c ****       pllmull = pllmull >> 18;
 964:Libraries/STM32F10x_StdPeriph_Driver/src/stm32f10x_rcc.c ****       
 965:Libraries/STM32F10x_StdPeriph_Driver/src/stm32f10x_rcc.c ****       if (pllmull != 0x0D)
 966:Libraries/STM32F10x_StdPeriph_Driver/src/stm32f10x_rcc.c ****       {
 967:Libraries/STM32F10x_StdPeriph_Driver/src/stm32f10x_rcc.c ****          pllmull += 2;
 968:Libraries/STM32F10x_StdPeriph_Driver/src/stm32f10x_rcc.c ****       }
 969:Libraries/STM32F10x_StdPeriph_Driver/src/stm32f10x_rcc.c ****       else
 970:Libraries/STM32F10x_StdPeriph_Driver/src/stm32f10x_rcc.c ****       { /* PLL multiplication factor = PLL input clock * 6.5 */
 971:Libraries/STM32F10x_StdPeriph_Driver/src/stm32f10x_rcc.c ****         pllmull = 13 / 2; 
 972:Libraries/STM32F10x_StdPeriph_Driver/src/stm32f10x_rcc.c ****       }
 973:Libraries/STM32F10x_StdPeriph_Driver/src/stm32f10x_rcc.c ****             
 974:Libraries/STM32F10x_StdPeriph_Driver/src/stm32f10x_rcc.c ****       if (pllsource == 0x00)
 975:Libraries/STM32F10x_StdPeriph_Driver/src/stm32f10x_rcc.c ****       {/* HSI oscillator clock divided by 2 selected as PLL clock entry */
 976:Libraries/STM32F10x_StdPeriph_Driver/src/stm32f10x_rcc.c ****         RCC_Clocks->SYSCLK_Frequency = (HSI_VALUE >> 1) * pllmull;
 977:Libraries/STM32F10x_StdPeriph_Driver/src/stm32f10x_rcc.c ****       }
 978:Libraries/STM32F10x_StdPeriph_Driver/src/stm32f10x_rcc.c ****       else
 979:Libraries/STM32F10x_StdPeriph_Driver/src/stm32f10x_rcc.c ****       {/* PREDIV1 selected as PLL clock entry */
 980:Libraries/STM32F10x_StdPeriph_Driver/src/stm32f10x_rcc.c ****         
 981:Libraries/STM32F10x_StdPeriph_Driver/src/stm32f10x_rcc.c ****         /* Get PREDIV1 clock source and division factor */
 982:Libraries/STM32F10x_StdPeriph_Driver/src/stm32f10x_rcc.c ****         prediv1source = RCC->CFGR2 & CFGR2_PREDIV1SRC;
 983:Libraries/STM32F10x_StdPeriph_Driver/src/stm32f10x_rcc.c ****         prediv1factor = (RCC->CFGR2 & CFGR2_PREDIV1) + 1;
 984:Libraries/STM32F10x_StdPeriph_Driver/src/stm32f10x_rcc.c ****         
 985:Libraries/STM32F10x_StdPeriph_Driver/src/stm32f10x_rcc.c ****         if (prediv1source == 0)
 986:Libraries/STM32F10x_StdPeriph_Driver/src/stm32f10x_rcc.c ****         { /* HSE oscillator clock selected as PREDIV1 clock entry */
 987:Libraries/STM32F10x_StdPeriph_Driver/src/stm32f10x_rcc.c ****           RCC_Clocks->SYSCLK_Frequency = (HSE_VALUE / prediv1factor) * pllmull;          
 988:Libraries/STM32F10x_StdPeriph_Driver/src/stm32f10x_rcc.c ****         }
 989:Libraries/STM32F10x_StdPeriph_Driver/src/stm32f10x_rcc.c ****         else
 990:Libraries/STM32F10x_StdPeriph_Driver/src/stm32f10x_rcc.c ****         {/* PLL2 clock selected as PREDIV1 clock entry */
 991:Libraries/STM32F10x_StdPeriph_Driver/src/stm32f10x_rcc.c ****           
 992:Libraries/STM32F10x_StdPeriph_Driver/src/stm32f10x_rcc.c ****           /* Get PREDIV2 division factor and PLL2 multiplication factor */
 993:Libraries/STM32F10x_StdPeriph_Driver/src/stm32f10x_rcc.c ****           prediv2factor = ((RCC->CFGR2 & CFGR2_PREDIV2) >> 4) + 1;
 994:Libraries/STM32F10x_StdPeriph_Driver/src/stm32f10x_rcc.c ****           pll2mull = ((RCC->CFGR2 & CFGR2_PLL2MUL) >> 8 ) + 2; 
 995:Libraries/STM32F10x_StdPeriph_Driver/src/stm32f10x_rcc.c ****           RCC_Clocks->SYSCLK_Frequency = (((HSE_VALUE / prediv2factor) * pll2mull) / prediv1factor)
ARM GAS  /var/folders/lp/0dm50ddn51vc39svyzv_6fp00000gn/T//ccS91u3A.s 			page 32


 996:Libraries/STM32F10x_StdPeriph_Driver/src/stm32f10x_rcc.c ****         }
 997:Libraries/STM32F10x_StdPeriph_Driver/src/stm32f10x_rcc.c ****       }
 998:Libraries/STM32F10x_StdPeriph_Driver/src/stm32f10x_rcc.c **** #endif /* STM32F10X_CL */ 
 999:Libraries/STM32F10x_StdPeriph_Driver/src/stm32f10x_rcc.c ****       break;
1000:Libraries/STM32F10x_StdPeriph_Driver/src/stm32f10x_rcc.c **** 
1001:Libraries/STM32F10x_StdPeriph_Driver/src/stm32f10x_rcc.c ****     default:
1002:Libraries/STM32F10x_StdPeriph_Driver/src/stm32f10x_rcc.c ****       RCC_Clocks->SYSCLK_Frequency = HSI_VALUE;
1003:Libraries/STM32F10x_StdPeriph_Driver/src/stm32f10x_rcc.c ****       break;
1004:Libraries/STM32F10x_StdPeriph_Driver/src/stm32f10x_rcc.c ****   }
1005:Libraries/STM32F10x_StdPeriph_Driver/src/stm32f10x_rcc.c **** 
1006:Libraries/STM32F10x_StdPeriph_Driver/src/stm32f10x_rcc.c ****   /* Compute HCLK, PCLK1, PCLK2 and ADCCLK clocks frequencies ----------------*/
1007:Libraries/STM32F10x_StdPeriph_Driver/src/stm32f10x_rcc.c ****   /* Get HCLK prescaler */
1008:Libraries/STM32F10x_StdPeriph_Driver/src/stm32f10x_rcc.c ****   tmp = RCC->CFGR & CFGR_HPRE_Set_Mask;
 765              		.loc 1 1008 0
 766 01ee 5368     		ldr	r3, [r2, #4]	@ D.6997, MEM[(struct RCC_TypeDef *)1073876992B].CFGR
 767              	.LVL58:
1009:Libraries/STM32F10x_StdPeriph_Driver/src/stm32f10x_rcc.c ****   tmp = tmp >> 4;
1010:Libraries/STM32F10x_StdPeriph_Driver/src/stm32f10x_rcc.c ****   presc = APBAHBPrescTable[tmp];
 768              		.loc 1 1010 0
 769 01f0 1149     		ldr	r1, .L78+12	@ tmp171,
1009:Libraries/STM32F10x_StdPeriph_Driver/src/stm32f10x_rcc.c ****   tmp = tmp >> 4;
 770              		.loc 1 1009 0
 771 01f2 C3F30313 		ubfx	r3, r3, #4, #4	@ tmp, D.6997,,
 772              	.LVL59:
 773              		.loc 1 1010 0
 774 01f6 CC5C     		ldrb	r4, [r1, r3]	@ zero_extendqisi2	@ tmp174, APBAHBPrescTable
 775              	.LVL60:
1011:Libraries/STM32F10x_StdPeriph_Driver/src/stm32f10x_rcc.c ****   /* HCLK clock frequency */
1012:Libraries/STM32F10x_StdPeriph_Driver/src/stm32f10x_rcc.c ****   RCC_Clocks->HCLK_Frequency = RCC_Clocks->SYSCLK_Frequency >> presc;
 776              		.loc 1 1012 0
 777 01f8 0368     		ldr	r3, [r0]	@ RCC_Clocks_10(D)->SYSCLK_Frequency, RCC_Clocks_10(D)->SYSCLK_Frequency
 778              	.LVL61:
 779 01fa E340     		lsrs	r3, r3, r4	@ D.6997, RCC_Clocks_10(D)->SYSCLK_Frequency, tmp174
 780 01fc 4360     		str	r3, [r0, #4]	@ D.6997, RCC_Clocks_10(D)->HCLK_Frequency
1013:Libraries/STM32F10x_StdPeriph_Driver/src/stm32f10x_rcc.c ****   /* Get PCLK1 prescaler */
1014:Libraries/STM32F10x_StdPeriph_Driver/src/stm32f10x_rcc.c ****   tmp = RCC->CFGR & CFGR_PPRE1_Set_Mask;
 781              		.loc 1 1014 0
 782 01fe 5468     		ldr	r4, [r2, #4]	@ D.6997, MEM[(struct RCC_TypeDef *)1073876992B].CFGR
 783              	.LVL62:
1015:Libraries/STM32F10x_StdPeriph_Driver/src/stm32f10x_rcc.c ****   tmp = tmp >> 8;
 784              		.loc 1 1015 0
 785 0200 C4F30224 		ubfx	r4, r4, #8, #3	@ tmp, D.6997,,
 786              	.LVL63:
1016:Libraries/STM32F10x_StdPeriph_Driver/src/stm32f10x_rcc.c ****   presc = APBAHBPrescTable[tmp];
 787              		.loc 1 1016 0
 788 0204 0C5D     		ldrb	r4, [r1, r4]	@ zero_extendqisi2	@ tmp181, APBAHBPrescTable
 789              	.LVL64:
1017:Libraries/STM32F10x_StdPeriph_Driver/src/stm32f10x_rcc.c ****   /* PCLK1 clock frequency */
1018:Libraries/STM32F10x_StdPeriph_Driver/src/stm32f10x_rcc.c ****   RCC_Clocks->PCLK1_Frequency = RCC_Clocks->HCLK_Frequency >> presc;
 790              		.loc 1 1018 0
 791 0206 23FA04F4 		lsr	r4, r3, r4	@ D.6997, D.6997, tmp181
 792              	.LVL65:
 793 020a 8460     		str	r4, [r0, #8]	@ D.6997, RCC_Clocks_10(D)->PCLK1_Frequency
1019:Libraries/STM32F10x_StdPeriph_Driver/src/stm32f10x_rcc.c ****   /* Get PCLK2 prescaler */
1020:Libraries/STM32F10x_StdPeriph_Driver/src/stm32f10x_rcc.c ****   tmp = RCC->CFGR & CFGR_PPRE2_Set_Mask;
 794              		.loc 1 1020 0
 795 020c 5468     		ldr	r4, [r2, #4]	@ D.6997, MEM[(struct RCC_TypeDef *)1073876992B].CFGR
ARM GAS  /var/folders/lp/0dm50ddn51vc39svyzv_6fp00000gn/T//ccS91u3A.s 			page 33


 796              	.LVL66:
1021:Libraries/STM32F10x_StdPeriph_Driver/src/stm32f10x_rcc.c ****   tmp = tmp >> 11;
 797              		.loc 1 1021 0
 798 020e C4F3C224 		ubfx	r4, r4, #11, #3	@ tmp, D.6997,,
 799              	.LVL67:
1022:Libraries/STM32F10x_StdPeriph_Driver/src/stm32f10x_rcc.c ****   presc = APBAHBPrescTable[tmp];
 800              		.loc 1 1022 0
 801 0212 0C5D     		ldrb	r4, [r1, r4]	@ zero_extendqisi2	@ tmp188, APBAHBPrescTable
 802              	.LVL68:
1023:Libraries/STM32F10x_StdPeriph_Driver/src/stm32f10x_rcc.c ****   /* PCLK2 clock frequency */
1024:Libraries/STM32F10x_StdPeriph_Driver/src/stm32f10x_rcc.c ****   RCC_Clocks->PCLK2_Frequency = RCC_Clocks->HCLK_Frequency >> presc;
 803              		.loc 1 1024 0
 804 0214 E340     		lsrs	r3, r3, r4	@ D.6997, D.6997, tmp188
 805 0216 C360     		str	r3, [r0, #12]	@ D.6997, RCC_Clocks_10(D)->PCLK2_Frequency
1025:Libraries/STM32F10x_StdPeriph_Driver/src/stm32f10x_rcc.c ****   /* Get ADCCLK prescaler */
1026:Libraries/STM32F10x_StdPeriph_Driver/src/stm32f10x_rcc.c ****   tmp = RCC->CFGR & CFGR_ADCPRE_Set_Mask;
 806              		.loc 1 1026 0
 807 0218 5268     		ldr	r2, [r2, #4]	@ D.6997, MEM[(struct RCC_TypeDef *)1073876992B].CFGR
 808              	.LVL69:
1027:Libraries/STM32F10x_StdPeriph_Driver/src/stm32f10x_rcc.c ****   tmp = tmp >> 14;
 809              		.loc 1 1027 0
 810 021a C2F38132 		ubfx	r2, r2, #14, #2	@ tmp, D.6997,,
 811              	.LVL70:
1028:Libraries/STM32F10x_StdPeriph_Driver/src/stm32f10x_rcc.c ****   presc = ADCPrescTable[tmp];
 812              		.loc 1 1028 0
 813 021e 0A44     		add	r2, r2, r1	@ tmp192, tmp171
 814              	.LVL71:
 815 0220 127C     		ldrb	r2, [r2, #16]	@ zero_extendqisi2	@ tmp195, ADCPrescTable
 816              	.LVL72:
1029:Libraries/STM32F10x_StdPeriph_Driver/src/stm32f10x_rcc.c ****   /* ADCCLK clock frequency */
1030:Libraries/STM32F10x_StdPeriph_Driver/src/stm32f10x_rcc.c ****   RCC_Clocks->ADCCLK_Frequency = RCC_Clocks->PCLK2_Frequency / presc;
 817              		.loc 1 1030 0
 818 0222 B3FBF2F3 		udiv	r3, r3, r2	@ D.6997, D.6997, tmp195
 819 0226 0361     		str	r3, [r0, #16]	@ D.6997, RCC_Clocks_10(D)->ADCCLK_Frequency
 820 0228 10BD     		pop	{r4, pc}	@
 821              	.L79:
 822 022a 00BF     		.align	2
 823              	.L78:
 824 022c 00100240 		.word	1073876992
 825 0230 00127A00 		.word	8000000
 826 0234 00093D00 		.word	4000000
 827 0238 00000000 		.word	.LANCHOR0
 828              		.cfi_endproc
 829              	.LFE49:
 830              		.size	RCC_GetClocksFreq, .-RCC_GetClocksFreq
 831              		.align	1
 832              		.global	RCC_AHBPeriphClockCmd
 833              		.thumb
 834              		.thumb_func
 835              		.type	RCC_AHBPeriphClockCmd, %function
 836              	RCC_AHBPeriphClockCmd:
 837              	.LFB50:
1031:Libraries/STM32F10x_StdPeriph_Driver/src/stm32f10x_rcc.c **** }
1032:Libraries/STM32F10x_StdPeriph_Driver/src/stm32f10x_rcc.c **** 
1033:Libraries/STM32F10x_StdPeriph_Driver/src/stm32f10x_rcc.c **** /**
1034:Libraries/STM32F10x_StdPeriph_Driver/src/stm32f10x_rcc.c ****   * @brief  Enables or disables the AHB peripheral clock.
1035:Libraries/STM32F10x_StdPeriph_Driver/src/stm32f10x_rcc.c ****   * @param  RCC_AHBPeriph: specifies the AHB peripheral to gates its clock.
ARM GAS  /var/folders/lp/0dm50ddn51vc39svyzv_6fp00000gn/T//ccS91u3A.s 			page 34


1036:Libraries/STM32F10x_StdPeriph_Driver/src/stm32f10x_rcc.c ****   *   
1037:Libraries/STM32F10x_StdPeriph_Driver/src/stm32f10x_rcc.c ****   *   For @b STM32_Connectivity_line_devices, this parameter can be any combination
1038:Libraries/STM32F10x_StdPeriph_Driver/src/stm32f10x_rcc.c ****   *   of the following values:        
1039:Libraries/STM32F10x_StdPeriph_Driver/src/stm32f10x_rcc.c ****   *     @arg RCC_AHBPeriph_DMA1
1040:Libraries/STM32F10x_StdPeriph_Driver/src/stm32f10x_rcc.c ****   *     @arg RCC_AHBPeriph_DMA2
1041:Libraries/STM32F10x_StdPeriph_Driver/src/stm32f10x_rcc.c ****   *     @arg RCC_AHBPeriph_SRAM
1042:Libraries/STM32F10x_StdPeriph_Driver/src/stm32f10x_rcc.c ****   *     @arg RCC_AHBPeriph_FLITF
1043:Libraries/STM32F10x_StdPeriph_Driver/src/stm32f10x_rcc.c ****   *     @arg RCC_AHBPeriph_CRC
1044:Libraries/STM32F10x_StdPeriph_Driver/src/stm32f10x_rcc.c ****   *     @arg RCC_AHBPeriph_OTG_FS    
1045:Libraries/STM32F10x_StdPeriph_Driver/src/stm32f10x_rcc.c ****   *     @arg RCC_AHBPeriph_ETH_MAC   
1046:Libraries/STM32F10x_StdPeriph_Driver/src/stm32f10x_rcc.c ****   *     @arg RCC_AHBPeriph_ETH_MAC_Tx
1047:Libraries/STM32F10x_StdPeriph_Driver/src/stm32f10x_rcc.c ****   *     @arg RCC_AHBPeriph_ETH_MAC_Rx
1048:Libraries/STM32F10x_StdPeriph_Driver/src/stm32f10x_rcc.c ****   * 
1049:Libraries/STM32F10x_StdPeriph_Driver/src/stm32f10x_rcc.c ****   *   For @b other_STM32_devices, this parameter can be any combination of the 
1050:Libraries/STM32F10x_StdPeriph_Driver/src/stm32f10x_rcc.c ****   *   following values:        
1051:Libraries/STM32F10x_StdPeriph_Driver/src/stm32f10x_rcc.c ****   *     @arg RCC_AHBPeriph_DMA1
1052:Libraries/STM32F10x_StdPeriph_Driver/src/stm32f10x_rcc.c ****   *     @arg RCC_AHBPeriph_DMA2
1053:Libraries/STM32F10x_StdPeriph_Driver/src/stm32f10x_rcc.c ****   *     @arg RCC_AHBPeriph_SRAM
1054:Libraries/STM32F10x_StdPeriph_Driver/src/stm32f10x_rcc.c ****   *     @arg RCC_AHBPeriph_FLITF
1055:Libraries/STM32F10x_StdPeriph_Driver/src/stm32f10x_rcc.c ****   *     @arg RCC_AHBPeriph_CRC
1056:Libraries/STM32F10x_StdPeriph_Driver/src/stm32f10x_rcc.c ****   *     @arg RCC_AHBPeriph_FSMC
1057:Libraries/STM32F10x_StdPeriph_Driver/src/stm32f10x_rcc.c ****   *     @arg RCC_AHBPeriph_SDIO
1058:Libraries/STM32F10x_StdPeriph_Driver/src/stm32f10x_rcc.c ****   *   
1059:Libraries/STM32F10x_StdPeriph_Driver/src/stm32f10x_rcc.c ****   * @note SRAM and FLITF clock can be disabled only during sleep mode.
1060:Libraries/STM32F10x_StdPeriph_Driver/src/stm32f10x_rcc.c ****   * @param  NewState: new state of the specified peripheral clock.
1061:Libraries/STM32F10x_StdPeriph_Driver/src/stm32f10x_rcc.c ****   *   This parameter can be: ENABLE or DISABLE.
1062:Libraries/STM32F10x_StdPeriph_Driver/src/stm32f10x_rcc.c ****   * @retval None
1063:Libraries/STM32F10x_StdPeriph_Driver/src/stm32f10x_rcc.c ****   */
1064:Libraries/STM32F10x_StdPeriph_Driver/src/stm32f10x_rcc.c **** void RCC_AHBPeriphClockCmd(uint32_t RCC_AHBPeriph, FunctionalState NewState)
1065:Libraries/STM32F10x_StdPeriph_Driver/src/stm32f10x_rcc.c **** {
 838              		.loc 1 1065 0
 839              		.cfi_startproc
 840              		@ args = 0, pretend = 0, frame = 0
 841              		@ frame_needed = 0, uses_anonymous_args = 0
 842              		@ link register save eliminated.
 843              	.LVL73:
 844 023c 044B     		ldr	r3, .L84	@ tmp122,
1066:Libraries/STM32F10x_StdPeriph_Driver/src/stm32f10x_rcc.c ****   /* Check the parameters */
1067:Libraries/STM32F10x_StdPeriph_Driver/src/stm32f10x_rcc.c ****   assert_param(IS_RCC_AHB_PERIPH(RCC_AHBPeriph));
1068:Libraries/STM32F10x_StdPeriph_Driver/src/stm32f10x_rcc.c ****   assert_param(IS_FUNCTIONAL_STATE(NewState));
1069:Libraries/STM32F10x_StdPeriph_Driver/src/stm32f10x_rcc.c **** 
1070:Libraries/STM32F10x_StdPeriph_Driver/src/stm32f10x_rcc.c ****   if (NewState != DISABLE)
1071:Libraries/STM32F10x_StdPeriph_Driver/src/stm32f10x_rcc.c ****   {
1072:Libraries/STM32F10x_StdPeriph_Driver/src/stm32f10x_rcc.c ****     RCC->AHBENR |= RCC_AHBPeriph;
 845              		.loc 1 1072 0
 846 023e 5A69     		ldr	r2, [r3, #20]	@ D.7001,
1070:Libraries/STM32F10x_StdPeriph_Driver/src/stm32f10x_rcc.c ****   {
 847              		.loc 1 1070 0
 848 0240 09B1     		cbz	r1, .L81	@ NewState,
 849              		.loc 1 1072 0
 850 0242 1043     		orrs	r0, r0, r2	@, D.7001, RCC_AHBPeriph, D.7001
 851              	.LVL74:
 852 0244 01E0     		b	.L83	@
 853              	.LVL75:
 854              	.L81:
1073:Libraries/STM32F10x_StdPeriph_Driver/src/stm32f10x_rcc.c ****   }
1074:Libraries/STM32F10x_StdPeriph_Driver/src/stm32f10x_rcc.c ****   else
ARM GAS  /var/folders/lp/0dm50ddn51vc39svyzv_6fp00000gn/T//ccS91u3A.s 			page 35


1075:Libraries/STM32F10x_StdPeriph_Driver/src/stm32f10x_rcc.c ****   {
1076:Libraries/STM32F10x_StdPeriph_Driver/src/stm32f10x_rcc.c ****     RCC->AHBENR &= ~RCC_AHBPeriph;
 855              		.loc 1 1076 0
 856 0246 22EA0000 		bic	r0, r2, r0	@ D.7001, D.7001, RCC_AHBPeriph
 857              	.LVL76:
 858              	.L83:
 859 024a 5861     		str	r0, [r3, #20]	@ D.7001,
 860 024c 7047     		bx	lr	@
 861              	.L85:
 862 024e 00BF     		.align	2
 863              	.L84:
 864 0250 00100240 		.word	1073876992
 865              		.cfi_endproc
 866              	.LFE50:
 867              		.size	RCC_AHBPeriphClockCmd, .-RCC_AHBPeriphClockCmd
 868              		.align	1
 869              		.global	RCC_APB2PeriphClockCmd
 870              		.thumb
 871              		.thumb_func
 872              		.type	RCC_APB2PeriphClockCmd, %function
 873              	RCC_APB2PeriphClockCmd:
 874              	.LFB51:
1077:Libraries/STM32F10x_StdPeriph_Driver/src/stm32f10x_rcc.c ****   }
1078:Libraries/STM32F10x_StdPeriph_Driver/src/stm32f10x_rcc.c **** }
1079:Libraries/STM32F10x_StdPeriph_Driver/src/stm32f10x_rcc.c **** 
1080:Libraries/STM32F10x_StdPeriph_Driver/src/stm32f10x_rcc.c **** /**
1081:Libraries/STM32F10x_StdPeriph_Driver/src/stm32f10x_rcc.c ****   * @brief  Enables or disables the High Speed APB (APB2) peripheral clock.
1082:Libraries/STM32F10x_StdPeriph_Driver/src/stm32f10x_rcc.c ****   * @param  RCC_APB2Periph: specifies the APB2 peripheral to gates its clock.
1083:Libraries/STM32F10x_StdPeriph_Driver/src/stm32f10x_rcc.c ****   *   This parameter can be any combination of the following values:
1084:Libraries/STM32F10x_StdPeriph_Driver/src/stm32f10x_rcc.c ****   *     @arg RCC_APB2Periph_AFIO, RCC_APB2Periph_GPIOA, RCC_APB2Periph_GPIOB,
1085:Libraries/STM32F10x_StdPeriph_Driver/src/stm32f10x_rcc.c ****   *          RCC_APB2Periph_GPIOC, RCC_APB2Periph_GPIOD, RCC_APB2Periph_GPIOE,
1086:Libraries/STM32F10x_StdPeriph_Driver/src/stm32f10x_rcc.c ****   *          RCC_APB2Periph_GPIOF, RCC_APB2Periph_GPIOG, RCC_APB2Periph_ADC1,
1087:Libraries/STM32F10x_StdPeriph_Driver/src/stm32f10x_rcc.c ****   *          RCC_APB2Periph_ADC2, RCC_APB2Periph_TIM1, RCC_APB2Periph_SPI1,
1088:Libraries/STM32F10x_StdPeriph_Driver/src/stm32f10x_rcc.c ****   *          RCC_APB2Periph_TIM8, RCC_APB2Periph_USART1, RCC_APB2Periph_ADC3,
1089:Libraries/STM32F10x_StdPeriph_Driver/src/stm32f10x_rcc.c ****   *          RCC_APB2Periph_TIM15, RCC_APB2Periph_TIM16, RCC_APB2Periph_TIM17,
1090:Libraries/STM32F10x_StdPeriph_Driver/src/stm32f10x_rcc.c ****   *          RCC_APB2Periph_TIM9, RCC_APB2Periph_TIM10, RCC_APB2Periph_TIM11     
1091:Libraries/STM32F10x_StdPeriph_Driver/src/stm32f10x_rcc.c ****   * @param  NewState: new state of the specified peripheral clock.
1092:Libraries/STM32F10x_StdPeriph_Driver/src/stm32f10x_rcc.c ****   *   This parameter can be: ENABLE or DISABLE.
1093:Libraries/STM32F10x_StdPeriph_Driver/src/stm32f10x_rcc.c ****   * @retval None
1094:Libraries/STM32F10x_StdPeriph_Driver/src/stm32f10x_rcc.c ****   */
1095:Libraries/STM32F10x_StdPeriph_Driver/src/stm32f10x_rcc.c **** void RCC_APB2PeriphClockCmd(uint32_t RCC_APB2Periph, FunctionalState NewState)
1096:Libraries/STM32F10x_StdPeriph_Driver/src/stm32f10x_rcc.c **** {
 875              		.loc 1 1096 0
 876              		.cfi_startproc
 877              		@ args = 0, pretend = 0, frame = 0
 878              		@ frame_needed = 0, uses_anonymous_args = 0
 879              		@ link register save eliminated.
 880              	.LVL77:
 881 0254 044B     		ldr	r3, .L90	@ tmp122,
1097:Libraries/STM32F10x_StdPeriph_Driver/src/stm32f10x_rcc.c ****   /* Check the parameters */
1098:Libraries/STM32F10x_StdPeriph_Driver/src/stm32f10x_rcc.c ****   assert_param(IS_RCC_APB2_PERIPH(RCC_APB2Periph));
1099:Libraries/STM32F10x_StdPeriph_Driver/src/stm32f10x_rcc.c ****   assert_param(IS_FUNCTIONAL_STATE(NewState));
1100:Libraries/STM32F10x_StdPeriph_Driver/src/stm32f10x_rcc.c ****   if (NewState != DISABLE)
1101:Libraries/STM32F10x_StdPeriph_Driver/src/stm32f10x_rcc.c ****   {
1102:Libraries/STM32F10x_StdPeriph_Driver/src/stm32f10x_rcc.c ****     RCC->APB2ENR |= RCC_APB2Periph;
 882              		.loc 1 1102 0
 883 0256 9A69     		ldr	r2, [r3, #24]	@ D.7004,
ARM GAS  /var/folders/lp/0dm50ddn51vc39svyzv_6fp00000gn/T//ccS91u3A.s 			page 36


1100:Libraries/STM32F10x_StdPeriph_Driver/src/stm32f10x_rcc.c ****   {
 884              		.loc 1 1100 0
 885 0258 09B1     		cbz	r1, .L87	@ NewState,
 886              		.loc 1 1102 0
 887 025a 1043     		orrs	r0, r0, r2	@, D.7004, RCC_APB2Periph, D.7004
 888              	.LVL78:
 889 025c 01E0     		b	.L89	@
 890              	.LVL79:
 891              	.L87:
1103:Libraries/STM32F10x_StdPeriph_Driver/src/stm32f10x_rcc.c ****   }
1104:Libraries/STM32F10x_StdPeriph_Driver/src/stm32f10x_rcc.c ****   else
1105:Libraries/STM32F10x_StdPeriph_Driver/src/stm32f10x_rcc.c ****   {
1106:Libraries/STM32F10x_StdPeriph_Driver/src/stm32f10x_rcc.c ****     RCC->APB2ENR &= ~RCC_APB2Periph;
 892              		.loc 1 1106 0
 893 025e 22EA0000 		bic	r0, r2, r0	@ D.7004, D.7004, RCC_APB2Periph
 894              	.LVL80:
 895              	.L89:
 896 0262 9861     		str	r0, [r3, #24]	@ D.7004,
 897 0264 7047     		bx	lr	@
 898              	.L91:
 899 0266 00BF     		.align	2
 900              	.L90:
 901 0268 00100240 		.word	1073876992
 902              		.cfi_endproc
 903              	.LFE51:
 904              		.size	RCC_APB2PeriphClockCmd, .-RCC_APB2PeriphClockCmd
 905              		.align	1
 906              		.global	RCC_APB1PeriphClockCmd
 907              		.thumb
 908              		.thumb_func
 909              		.type	RCC_APB1PeriphClockCmd, %function
 910              	RCC_APB1PeriphClockCmd:
 911              	.LFB52:
1107:Libraries/STM32F10x_StdPeriph_Driver/src/stm32f10x_rcc.c ****   }
1108:Libraries/STM32F10x_StdPeriph_Driver/src/stm32f10x_rcc.c **** }
1109:Libraries/STM32F10x_StdPeriph_Driver/src/stm32f10x_rcc.c **** 
1110:Libraries/STM32F10x_StdPeriph_Driver/src/stm32f10x_rcc.c **** /**
1111:Libraries/STM32F10x_StdPeriph_Driver/src/stm32f10x_rcc.c ****   * @brief  Enables or disables the Low Speed APB (APB1) peripheral clock.
1112:Libraries/STM32F10x_StdPeriph_Driver/src/stm32f10x_rcc.c ****   * @param  RCC_APB1Periph: specifies the APB1 peripheral to gates its clock.
1113:Libraries/STM32F10x_StdPeriph_Driver/src/stm32f10x_rcc.c ****   *   This parameter can be any combination of the following values:
1114:Libraries/STM32F10x_StdPeriph_Driver/src/stm32f10x_rcc.c ****   *     @arg RCC_APB1Periph_TIM2, RCC_APB1Periph_TIM3, RCC_APB1Periph_TIM4,
1115:Libraries/STM32F10x_StdPeriph_Driver/src/stm32f10x_rcc.c ****   *          RCC_APB1Periph_TIM5, RCC_APB1Periph_TIM6, RCC_APB1Periph_TIM7,
1116:Libraries/STM32F10x_StdPeriph_Driver/src/stm32f10x_rcc.c ****   *          RCC_APB1Periph_WWDG, RCC_APB1Periph_SPI2, RCC_APB1Periph_SPI3,
1117:Libraries/STM32F10x_StdPeriph_Driver/src/stm32f10x_rcc.c ****   *          RCC_APB1Periph_USART2, RCC_APB1Periph_USART3, RCC_APB1Periph_USART4, 
1118:Libraries/STM32F10x_StdPeriph_Driver/src/stm32f10x_rcc.c ****   *          RCC_APB1Periph_USART5, RCC_APB1Periph_I2C1, RCC_APB1Periph_I2C2,
1119:Libraries/STM32F10x_StdPeriph_Driver/src/stm32f10x_rcc.c ****   *          RCC_APB1Periph_USB, RCC_APB1Periph_CAN1, RCC_APB1Periph_BKP,
1120:Libraries/STM32F10x_StdPeriph_Driver/src/stm32f10x_rcc.c ****   *          RCC_APB1Periph_PWR, RCC_APB1Periph_DAC, RCC_APB1Periph_CEC,
1121:Libraries/STM32F10x_StdPeriph_Driver/src/stm32f10x_rcc.c ****   *          RCC_APB1Periph_TIM12, RCC_APB1Periph_TIM13, RCC_APB1Periph_TIM14
1122:Libraries/STM32F10x_StdPeriph_Driver/src/stm32f10x_rcc.c ****   * @param  NewState: new state of the specified peripheral clock.
1123:Libraries/STM32F10x_StdPeriph_Driver/src/stm32f10x_rcc.c ****   *   This parameter can be: ENABLE or DISABLE.
1124:Libraries/STM32F10x_StdPeriph_Driver/src/stm32f10x_rcc.c ****   * @retval None
1125:Libraries/STM32F10x_StdPeriph_Driver/src/stm32f10x_rcc.c ****   */
1126:Libraries/STM32F10x_StdPeriph_Driver/src/stm32f10x_rcc.c **** void RCC_APB1PeriphClockCmd(uint32_t RCC_APB1Periph, FunctionalState NewState)
1127:Libraries/STM32F10x_StdPeriph_Driver/src/stm32f10x_rcc.c **** {
 912              		.loc 1 1127 0
 913              		.cfi_startproc
 914              		@ args = 0, pretend = 0, frame = 0
ARM GAS  /var/folders/lp/0dm50ddn51vc39svyzv_6fp00000gn/T//ccS91u3A.s 			page 37


 915              		@ frame_needed = 0, uses_anonymous_args = 0
 916              		@ link register save eliminated.
 917              	.LVL81:
 918 026c 044B     		ldr	r3, .L96	@ tmp122,
1128:Libraries/STM32F10x_StdPeriph_Driver/src/stm32f10x_rcc.c ****   /* Check the parameters */
1129:Libraries/STM32F10x_StdPeriph_Driver/src/stm32f10x_rcc.c ****   assert_param(IS_RCC_APB1_PERIPH(RCC_APB1Periph));
1130:Libraries/STM32F10x_StdPeriph_Driver/src/stm32f10x_rcc.c ****   assert_param(IS_FUNCTIONAL_STATE(NewState));
1131:Libraries/STM32F10x_StdPeriph_Driver/src/stm32f10x_rcc.c ****   if (NewState != DISABLE)
1132:Libraries/STM32F10x_StdPeriph_Driver/src/stm32f10x_rcc.c ****   {
1133:Libraries/STM32F10x_StdPeriph_Driver/src/stm32f10x_rcc.c ****     RCC->APB1ENR |= RCC_APB1Periph;
 919              		.loc 1 1133 0
 920 026e DA69     		ldr	r2, [r3, #28]	@ D.7007,
1131:Libraries/STM32F10x_StdPeriph_Driver/src/stm32f10x_rcc.c ****   {
 921              		.loc 1 1131 0
 922 0270 09B1     		cbz	r1, .L93	@ NewState,
 923              		.loc 1 1133 0
 924 0272 1043     		orrs	r0, r0, r2	@, D.7007, RCC_APB1Periph, D.7007
 925              	.LVL82:
 926 0274 01E0     		b	.L95	@
 927              	.LVL83:
 928              	.L93:
1134:Libraries/STM32F10x_StdPeriph_Driver/src/stm32f10x_rcc.c ****   }
1135:Libraries/STM32F10x_StdPeriph_Driver/src/stm32f10x_rcc.c ****   else
1136:Libraries/STM32F10x_StdPeriph_Driver/src/stm32f10x_rcc.c ****   {
1137:Libraries/STM32F10x_StdPeriph_Driver/src/stm32f10x_rcc.c ****     RCC->APB1ENR &= ~RCC_APB1Periph;
 929              		.loc 1 1137 0
 930 0276 22EA0000 		bic	r0, r2, r0	@ D.7007, D.7007, RCC_APB1Periph
 931              	.LVL84:
 932              	.L95:
 933 027a D861     		str	r0, [r3, #28]	@ D.7007,
 934 027c 7047     		bx	lr	@
 935              	.L97:
 936 027e 00BF     		.align	2
 937              	.L96:
 938 0280 00100240 		.word	1073876992
 939              		.cfi_endproc
 940              	.LFE52:
 941              		.size	RCC_APB1PeriphClockCmd, .-RCC_APB1PeriphClockCmd
 942              		.align	1
 943              		.global	RCC_APB2PeriphResetCmd
 944              		.thumb
 945              		.thumb_func
 946              		.type	RCC_APB2PeriphResetCmd, %function
 947              	RCC_APB2PeriphResetCmd:
 948              	.LFB53:
1138:Libraries/STM32F10x_StdPeriph_Driver/src/stm32f10x_rcc.c ****   }
1139:Libraries/STM32F10x_StdPeriph_Driver/src/stm32f10x_rcc.c **** }
1140:Libraries/STM32F10x_StdPeriph_Driver/src/stm32f10x_rcc.c **** 
1141:Libraries/STM32F10x_StdPeriph_Driver/src/stm32f10x_rcc.c **** #ifdef STM32F10X_CL
1142:Libraries/STM32F10x_StdPeriph_Driver/src/stm32f10x_rcc.c **** /**
1143:Libraries/STM32F10x_StdPeriph_Driver/src/stm32f10x_rcc.c ****   * @brief  Forces or releases AHB peripheral reset.
1144:Libraries/STM32F10x_StdPeriph_Driver/src/stm32f10x_rcc.c ****   * @note   This function applies only to STM32 Connectivity line devices.
1145:Libraries/STM32F10x_StdPeriph_Driver/src/stm32f10x_rcc.c ****   * @param  RCC_AHBPeriph: specifies the AHB peripheral to reset.
1146:Libraries/STM32F10x_StdPeriph_Driver/src/stm32f10x_rcc.c ****   *   This parameter can be any combination of the following values:
1147:Libraries/STM32F10x_StdPeriph_Driver/src/stm32f10x_rcc.c ****   *     @arg RCC_AHBPeriph_OTG_FS 
1148:Libraries/STM32F10x_StdPeriph_Driver/src/stm32f10x_rcc.c ****   *     @arg RCC_AHBPeriph_ETH_MAC
1149:Libraries/STM32F10x_StdPeriph_Driver/src/stm32f10x_rcc.c ****   * @param  NewState: new state of the specified peripheral reset.
ARM GAS  /var/folders/lp/0dm50ddn51vc39svyzv_6fp00000gn/T//ccS91u3A.s 			page 38


1150:Libraries/STM32F10x_StdPeriph_Driver/src/stm32f10x_rcc.c ****   *   This parameter can be: ENABLE or DISABLE.
1151:Libraries/STM32F10x_StdPeriph_Driver/src/stm32f10x_rcc.c ****   * @retval None
1152:Libraries/STM32F10x_StdPeriph_Driver/src/stm32f10x_rcc.c ****   */
1153:Libraries/STM32F10x_StdPeriph_Driver/src/stm32f10x_rcc.c **** void RCC_AHBPeriphResetCmd(uint32_t RCC_AHBPeriph, FunctionalState NewState)
1154:Libraries/STM32F10x_StdPeriph_Driver/src/stm32f10x_rcc.c **** {
1155:Libraries/STM32F10x_StdPeriph_Driver/src/stm32f10x_rcc.c ****   /* Check the parameters */
1156:Libraries/STM32F10x_StdPeriph_Driver/src/stm32f10x_rcc.c ****   assert_param(IS_RCC_AHB_PERIPH_RESET(RCC_AHBPeriph));
1157:Libraries/STM32F10x_StdPeriph_Driver/src/stm32f10x_rcc.c ****   assert_param(IS_FUNCTIONAL_STATE(NewState));
1158:Libraries/STM32F10x_StdPeriph_Driver/src/stm32f10x_rcc.c **** 
1159:Libraries/STM32F10x_StdPeriph_Driver/src/stm32f10x_rcc.c ****   if (NewState != DISABLE)
1160:Libraries/STM32F10x_StdPeriph_Driver/src/stm32f10x_rcc.c ****   {
1161:Libraries/STM32F10x_StdPeriph_Driver/src/stm32f10x_rcc.c ****     RCC->AHBRSTR |= RCC_AHBPeriph;
1162:Libraries/STM32F10x_StdPeriph_Driver/src/stm32f10x_rcc.c ****   }
1163:Libraries/STM32F10x_StdPeriph_Driver/src/stm32f10x_rcc.c ****   else
1164:Libraries/STM32F10x_StdPeriph_Driver/src/stm32f10x_rcc.c ****   {
1165:Libraries/STM32F10x_StdPeriph_Driver/src/stm32f10x_rcc.c ****     RCC->AHBRSTR &= ~RCC_AHBPeriph;
1166:Libraries/STM32F10x_StdPeriph_Driver/src/stm32f10x_rcc.c ****   }
1167:Libraries/STM32F10x_StdPeriph_Driver/src/stm32f10x_rcc.c **** }
1168:Libraries/STM32F10x_StdPeriph_Driver/src/stm32f10x_rcc.c **** #endif /* STM32F10X_CL */ 
1169:Libraries/STM32F10x_StdPeriph_Driver/src/stm32f10x_rcc.c **** 
1170:Libraries/STM32F10x_StdPeriph_Driver/src/stm32f10x_rcc.c **** /**
1171:Libraries/STM32F10x_StdPeriph_Driver/src/stm32f10x_rcc.c ****   * @brief  Forces or releases High Speed APB (APB2) peripheral reset.
1172:Libraries/STM32F10x_StdPeriph_Driver/src/stm32f10x_rcc.c ****   * @param  RCC_APB2Periph: specifies the APB2 peripheral to reset.
1173:Libraries/STM32F10x_StdPeriph_Driver/src/stm32f10x_rcc.c ****   *   This parameter can be any combination of the following values:
1174:Libraries/STM32F10x_StdPeriph_Driver/src/stm32f10x_rcc.c ****   *     @arg RCC_APB2Periph_AFIO, RCC_APB2Periph_GPIOA, RCC_APB2Periph_GPIOB,
1175:Libraries/STM32F10x_StdPeriph_Driver/src/stm32f10x_rcc.c ****   *          RCC_APB2Periph_GPIOC, RCC_APB2Periph_GPIOD, RCC_APB2Periph_GPIOE,
1176:Libraries/STM32F10x_StdPeriph_Driver/src/stm32f10x_rcc.c ****   *          RCC_APB2Periph_GPIOF, RCC_APB2Periph_GPIOG, RCC_APB2Periph_ADC1,
1177:Libraries/STM32F10x_StdPeriph_Driver/src/stm32f10x_rcc.c ****   *          RCC_APB2Periph_ADC2, RCC_APB2Periph_TIM1, RCC_APB2Periph_SPI1,
1178:Libraries/STM32F10x_StdPeriph_Driver/src/stm32f10x_rcc.c ****   *          RCC_APB2Periph_TIM8, RCC_APB2Periph_USART1, RCC_APB2Periph_ADC3,
1179:Libraries/STM32F10x_StdPeriph_Driver/src/stm32f10x_rcc.c ****   *          RCC_APB2Periph_TIM15, RCC_APB2Periph_TIM16, RCC_APB2Periph_TIM17,
1180:Libraries/STM32F10x_StdPeriph_Driver/src/stm32f10x_rcc.c ****   *          RCC_APB2Periph_TIM9, RCC_APB2Periph_TIM10, RCC_APB2Periph_TIM11  
1181:Libraries/STM32F10x_StdPeriph_Driver/src/stm32f10x_rcc.c ****   * @param  NewState: new state of the specified peripheral reset.
1182:Libraries/STM32F10x_StdPeriph_Driver/src/stm32f10x_rcc.c ****   *   This parameter can be: ENABLE or DISABLE.
1183:Libraries/STM32F10x_StdPeriph_Driver/src/stm32f10x_rcc.c ****   * @retval None
1184:Libraries/STM32F10x_StdPeriph_Driver/src/stm32f10x_rcc.c ****   */
1185:Libraries/STM32F10x_StdPeriph_Driver/src/stm32f10x_rcc.c **** void RCC_APB2PeriphResetCmd(uint32_t RCC_APB2Periph, FunctionalState NewState)
1186:Libraries/STM32F10x_StdPeriph_Driver/src/stm32f10x_rcc.c **** {
 949              		.loc 1 1186 0
 950              		.cfi_startproc
 951              		@ args = 0, pretend = 0, frame = 0
 952              		@ frame_needed = 0, uses_anonymous_args = 0
 953              		@ link register save eliminated.
 954              	.LVL85:
 955 0284 044B     		ldr	r3, .L102	@ tmp122,
1187:Libraries/STM32F10x_StdPeriph_Driver/src/stm32f10x_rcc.c ****   /* Check the parameters */
1188:Libraries/STM32F10x_StdPeriph_Driver/src/stm32f10x_rcc.c ****   assert_param(IS_RCC_APB2_PERIPH(RCC_APB2Periph));
1189:Libraries/STM32F10x_StdPeriph_Driver/src/stm32f10x_rcc.c ****   assert_param(IS_FUNCTIONAL_STATE(NewState));
1190:Libraries/STM32F10x_StdPeriph_Driver/src/stm32f10x_rcc.c ****   if (NewState != DISABLE)
1191:Libraries/STM32F10x_StdPeriph_Driver/src/stm32f10x_rcc.c ****   {
1192:Libraries/STM32F10x_StdPeriph_Driver/src/stm32f10x_rcc.c ****     RCC->APB2RSTR |= RCC_APB2Periph;
 956              		.loc 1 1192 0
 957 0286 DA68     		ldr	r2, [r3, #12]	@ D.7010,
1190:Libraries/STM32F10x_StdPeriph_Driver/src/stm32f10x_rcc.c ****   {
 958              		.loc 1 1190 0
 959 0288 09B1     		cbz	r1, .L99	@ NewState,
 960              		.loc 1 1192 0
 961 028a 1043     		orrs	r0, r0, r2	@, D.7010, RCC_APB2Periph, D.7010
ARM GAS  /var/folders/lp/0dm50ddn51vc39svyzv_6fp00000gn/T//ccS91u3A.s 			page 39


 962              	.LVL86:
 963 028c 01E0     		b	.L101	@
 964              	.LVL87:
 965              	.L99:
1193:Libraries/STM32F10x_StdPeriph_Driver/src/stm32f10x_rcc.c ****   }
1194:Libraries/STM32F10x_StdPeriph_Driver/src/stm32f10x_rcc.c ****   else
1195:Libraries/STM32F10x_StdPeriph_Driver/src/stm32f10x_rcc.c ****   {
1196:Libraries/STM32F10x_StdPeriph_Driver/src/stm32f10x_rcc.c ****     RCC->APB2RSTR &= ~RCC_APB2Periph;
 966              		.loc 1 1196 0
 967 028e 22EA0000 		bic	r0, r2, r0	@ D.7010, D.7010, RCC_APB2Periph
 968              	.LVL88:
 969              	.L101:
 970 0292 D860     		str	r0, [r3, #12]	@ D.7010,
 971 0294 7047     		bx	lr	@
 972              	.L103:
 973 0296 00BF     		.align	2
 974              	.L102:
 975 0298 00100240 		.word	1073876992
 976              		.cfi_endproc
 977              	.LFE53:
 978              		.size	RCC_APB2PeriphResetCmd, .-RCC_APB2PeriphResetCmd
 979              		.align	1
 980              		.global	RCC_APB1PeriphResetCmd
 981              		.thumb
 982              		.thumb_func
 983              		.type	RCC_APB1PeriphResetCmd, %function
 984              	RCC_APB1PeriphResetCmd:
 985              	.LFB54:
1197:Libraries/STM32F10x_StdPeriph_Driver/src/stm32f10x_rcc.c ****   }
1198:Libraries/STM32F10x_StdPeriph_Driver/src/stm32f10x_rcc.c **** }
1199:Libraries/STM32F10x_StdPeriph_Driver/src/stm32f10x_rcc.c **** 
1200:Libraries/STM32F10x_StdPeriph_Driver/src/stm32f10x_rcc.c **** /**
1201:Libraries/STM32F10x_StdPeriph_Driver/src/stm32f10x_rcc.c ****   * @brief  Forces or releases Low Speed APB (APB1) peripheral reset.
1202:Libraries/STM32F10x_StdPeriph_Driver/src/stm32f10x_rcc.c ****   * @param  RCC_APB1Periph: specifies the APB1 peripheral to reset.
1203:Libraries/STM32F10x_StdPeriph_Driver/src/stm32f10x_rcc.c ****   *   This parameter can be any combination of the following values:
1204:Libraries/STM32F10x_StdPeriph_Driver/src/stm32f10x_rcc.c ****   *     @arg RCC_APB1Periph_TIM2, RCC_APB1Periph_TIM3, RCC_APB1Periph_TIM4,
1205:Libraries/STM32F10x_StdPeriph_Driver/src/stm32f10x_rcc.c ****   *          RCC_APB1Periph_TIM5, RCC_APB1Periph_TIM6, RCC_APB1Periph_TIM7,
1206:Libraries/STM32F10x_StdPeriph_Driver/src/stm32f10x_rcc.c ****   *          RCC_APB1Periph_WWDG, RCC_APB1Periph_SPI2, RCC_APB1Periph_SPI3,
1207:Libraries/STM32F10x_StdPeriph_Driver/src/stm32f10x_rcc.c ****   *          RCC_APB1Periph_USART2, RCC_APB1Periph_USART3, RCC_APB1Periph_USART4, 
1208:Libraries/STM32F10x_StdPeriph_Driver/src/stm32f10x_rcc.c ****   *          RCC_APB1Periph_USART5, RCC_APB1Periph_I2C1, RCC_APB1Periph_I2C2,
1209:Libraries/STM32F10x_StdPeriph_Driver/src/stm32f10x_rcc.c ****   *          RCC_APB1Periph_USB, RCC_APB1Periph_CAN1, RCC_APB1Periph_BKP,
1210:Libraries/STM32F10x_StdPeriph_Driver/src/stm32f10x_rcc.c ****   *          RCC_APB1Periph_PWR, RCC_APB1Periph_DAC, RCC_APB1Periph_CEC,
1211:Libraries/STM32F10x_StdPeriph_Driver/src/stm32f10x_rcc.c ****   *          RCC_APB1Periph_TIM12, RCC_APB1Periph_TIM13, RCC_APB1Periph_TIM14  
1212:Libraries/STM32F10x_StdPeriph_Driver/src/stm32f10x_rcc.c ****   * @param  NewState: new state of the specified peripheral clock.
1213:Libraries/STM32F10x_StdPeriph_Driver/src/stm32f10x_rcc.c ****   *   This parameter can be: ENABLE or DISABLE.
1214:Libraries/STM32F10x_StdPeriph_Driver/src/stm32f10x_rcc.c ****   * @retval None
1215:Libraries/STM32F10x_StdPeriph_Driver/src/stm32f10x_rcc.c ****   */
1216:Libraries/STM32F10x_StdPeriph_Driver/src/stm32f10x_rcc.c **** void RCC_APB1PeriphResetCmd(uint32_t RCC_APB1Periph, FunctionalState NewState)
1217:Libraries/STM32F10x_StdPeriph_Driver/src/stm32f10x_rcc.c **** {
 986              		.loc 1 1217 0
 987              		.cfi_startproc
 988              		@ args = 0, pretend = 0, frame = 0
 989              		@ frame_needed = 0, uses_anonymous_args = 0
 990              		@ link register save eliminated.
 991              	.LVL89:
 992 029c 044B     		ldr	r3, .L108	@ tmp122,
1218:Libraries/STM32F10x_StdPeriph_Driver/src/stm32f10x_rcc.c ****   /* Check the parameters */
ARM GAS  /var/folders/lp/0dm50ddn51vc39svyzv_6fp00000gn/T//ccS91u3A.s 			page 40


1219:Libraries/STM32F10x_StdPeriph_Driver/src/stm32f10x_rcc.c ****   assert_param(IS_RCC_APB1_PERIPH(RCC_APB1Periph));
1220:Libraries/STM32F10x_StdPeriph_Driver/src/stm32f10x_rcc.c ****   assert_param(IS_FUNCTIONAL_STATE(NewState));
1221:Libraries/STM32F10x_StdPeriph_Driver/src/stm32f10x_rcc.c ****   if (NewState != DISABLE)
1222:Libraries/STM32F10x_StdPeriph_Driver/src/stm32f10x_rcc.c ****   {
1223:Libraries/STM32F10x_StdPeriph_Driver/src/stm32f10x_rcc.c ****     RCC->APB1RSTR |= RCC_APB1Periph;
 993              		.loc 1 1223 0
 994 029e 1A69     		ldr	r2, [r3, #16]	@ D.7013,
1221:Libraries/STM32F10x_StdPeriph_Driver/src/stm32f10x_rcc.c ****   {
 995              		.loc 1 1221 0
 996 02a0 09B1     		cbz	r1, .L105	@ NewState,
 997              		.loc 1 1223 0
 998 02a2 1043     		orrs	r0, r0, r2	@, D.7013, RCC_APB1Periph, D.7013
 999              	.LVL90:
 1000 02a4 01E0     		b	.L107	@
 1001              	.LVL91:
 1002              	.L105:
1224:Libraries/STM32F10x_StdPeriph_Driver/src/stm32f10x_rcc.c ****   }
1225:Libraries/STM32F10x_StdPeriph_Driver/src/stm32f10x_rcc.c ****   else
1226:Libraries/STM32F10x_StdPeriph_Driver/src/stm32f10x_rcc.c ****   {
1227:Libraries/STM32F10x_StdPeriph_Driver/src/stm32f10x_rcc.c ****     RCC->APB1RSTR &= ~RCC_APB1Periph;
 1003              		.loc 1 1227 0
 1004 02a6 22EA0000 		bic	r0, r2, r0	@ D.7013, D.7013, RCC_APB1Periph
 1005              	.LVL92:
 1006              	.L107:
 1007 02aa 1861     		str	r0, [r3, #16]	@ D.7013,
 1008 02ac 7047     		bx	lr	@
 1009              	.L109:
 1010 02ae 00BF     		.align	2
 1011              	.L108:
 1012 02b0 00100240 		.word	1073876992
 1013              		.cfi_endproc
 1014              	.LFE54:
 1015              		.size	RCC_APB1PeriphResetCmd, .-RCC_APB1PeriphResetCmd
 1016              		.align	1
 1017              		.global	RCC_BackupResetCmd
 1018              		.thumb
 1019              		.thumb_func
 1020              		.type	RCC_BackupResetCmd, %function
 1021              	RCC_BackupResetCmd:
 1022              	.LFB55:
1228:Libraries/STM32F10x_StdPeriph_Driver/src/stm32f10x_rcc.c ****   }
1229:Libraries/STM32F10x_StdPeriph_Driver/src/stm32f10x_rcc.c **** }
1230:Libraries/STM32F10x_StdPeriph_Driver/src/stm32f10x_rcc.c **** 
1231:Libraries/STM32F10x_StdPeriph_Driver/src/stm32f10x_rcc.c **** /**
1232:Libraries/STM32F10x_StdPeriph_Driver/src/stm32f10x_rcc.c ****   * @brief  Forces or releases the Backup domain reset.
1233:Libraries/STM32F10x_StdPeriph_Driver/src/stm32f10x_rcc.c ****   * @param  NewState: new state of the Backup domain reset.
1234:Libraries/STM32F10x_StdPeriph_Driver/src/stm32f10x_rcc.c ****   *   This parameter can be: ENABLE or DISABLE.
1235:Libraries/STM32F10x_StdPeriph_Driver/src/stm32f10x_rcc.c ****   * @retval None
1236:Libraries/STM32F10x_StdPeriph_Driver/src/stm32f10x_rcc.c ****   */
1237:Libraries/STM32F10x_StdPeriph_Driver/src/stm32f10x_rcc.c **** void RCC_BackupResetCmd(FunctionalState NewState)
1238:Libraries/STM32F10x_StdPeriph_Driver/src/stm32f10x_rcc.c **** {
 1023              		.loc 1 1238 0
 1024              		.cfi_startproc
 1025              		@ args = 0, pretend = 0, frame = 0
 1026              		@ frame_needed = 0, uses_anonymous_args = 0
 1027              		@ link register save eliminated.
 1028              	.LVL93:
ARM GAS  /var/folders/lp/0dm50ddn51vc39svyzv_6fp00000gn/T//ccS91u3A.s 			page 41


1239:Libraries/STM32F10x_StdPeriph_Driver/src/stm32f10x_rcc.c ****   /* Check the parameters */
1240:Libraries/STM32F10x_StdPeriph_Driver/src/stm32f10x_rcc.c ****   assert_param(IS_FUNCTIONAL_STATE(NewState));
1241:Libraries/STM32F10x_StdPeriph_Driver/src/stm32f10x_rcc.c ****   *(__IO uint32_t *) BDCR_BDRST_BB = (uint32_t)NewState;
 1029              		.loc 1 1241 0
 1030 02b4 014B     		ldr	r3, .L111	@ tmp112,
 1031 02b6 1860     		str	r0, [r3]	@ NewState, MEM[(volatile uint32_t *)1111622720B]
 1032 02b8 7047     		bx	lr	@
 1033              	.L112:
 1034 02ba 00BF     		.align	2
 1035              	.L111:
 1036 02bc 40044242 		.word	1111622720
 1037              		.cfi_endproc
 1038              	.LFE55:
 1039              		.size	RCC_BackupResetCmd, .-RCC_BackupResetCmd
 1040              		.align	1
 1041              		.global	RCC_ClockSecuritySystemCmd
 1042              		.thumb
 1043              		.thumb_func
 1044              		.type	RCC_ClockSecuritySystemCmd, %function
 1045              	RCC_ClockSecuritySystemCmd:
 1046              	.LFB56:
1242:Libraries/STM32F10x_StdPeriph_Driver/src/stm32f10x_rcc.c **** }
1243:Libraries/STM32F10x_StdPeriph_Driver/src/stm32f10x_rcc.c **** 
1244:Libraries/STM32F10x_StdPeriph_Driver/src/stm32f10x_rcc.c **** /**
1245:Libraries/STM32F10x_StdPeriph_Driver/src/stm32f10x_rcc.c ****   * @brief  Enables or disables the Clock Security System.
1246:Libraries/STM32F10x_StdPeriph_Driver/src/stm32f10x_rcc.c ****   * @param  NewState: new state of the Clock Security System..
1247:Libraries/STM32F10x_StdPeriph_Driver/src/stm32f10x_rcc.c ****   *   This parameter can be: ENABLE or DISABLE.
1248:Libraries/STM32F10x_StdPeriph_Driver/src/stm32f10x_rcc.c ****   * @retval None
1249:Libraries/STM32F10x_StdPeriph_Driver/src/stm32f10x_rcc.c ****   */
1250:Libraries/STM32F10x_StdPeriph_Driver/src/stm32f10x_rcc.c **** void RCC_ClockSecuritySystemCmd(FunctionalState NewState)
1251:Libraries/STM32F10x_StdPeriph_Driver/src/stm32f10x_rcc.c **** {
 1047              		.loc 1 1251 0
 1048              		.cfi_startproc
 1049              		@ args = 0, pretend = 0, frame = 0
 1050              		@ frame_needed = 0, uses_anonymous_args = 0
 1051              		@ link register save eliminated.
 1052              	.LVL94:
1252:Libraries/STM32F10x_StdPeriph_Driver/src/stm32f10x_rcc.c ****   /* Check the parameters */
1253:Libraries/STM32F10x_StdPeriph_Driver/src/stm32f10x_rcc.c ****   assert_param(IS_FUNCTIONAL_STATE(NewState));
1254:Libraries/STM32F10x_StdPeriph_Driver/src/stm32f10x_rcc.c ****   *(__IO uint32_t *) CR_CSSON_BB = (uint32_t)NewState;
 1053              		.loc 1 1254 0
 1054 02c0 014B     		ldr	r3, .L114	@ tmp112,
 1055 02c2 1860     		str	r0, [r3]	@ NewState, MEM[(volatile uint32_t *)1111621708B]
 1056 02c4 7047     		bx	lr	@
 1057              	.L115:
 1058 02c6 00BF     		.align	2
 1059              	.L114:
 1060 02c8 4C004242 		.word	1111621708
 1061              		.cfi_endproc
 1062              	.LFE56:
 1063              		.size	RCC_ClockSecuritySystemCmd, .-RCC_ClockSecuritySystemCmd
 1064              		.align	1
 1065              		.global	RCC_MCOConfig
 1066              		.thumb
 1067              		.thumb_func
 1068              		.type	RCC_MCOConfig, %function
 1069              	RCC_MCOConfig:
ARM GAS  /var/folders/lp/0dm50ddn51vc39svyzv_6fp00000gn/T//ccS91u3A.s 			page 42


 1070              	.LFB57:
1255:Libraries/STM32F10x_StdPeriph_Driver/src/stm32f10x_rcc.c **** }
1256:Libraries/STM32F10x_StdPeriph_Driver/src/stm32f10x_rcc.c **** 
1257:Libraries/STM32F10x_StdPeriph_Driver/src/stm32f10x_rcc.c **** /**
1258:Libraries/STM32F10x_StdPeriph_Driver/src/stm32f10x_rcc.c ****   * @brief  Selects the clock source to output on MCO pin.
1259:Libraries/STM32F10x_StdPeriph_Driver/src/stm32f10x_rcc.c ****   * @param  RCC_MCO: specifies the clock source to output.
1260:Libraries/STM32F10x_StdPeriph_Driver/src/stm32f10x_rcc.c ****   *   
1261:Libraries/STM32F10x_StdPeriph_Driver/src/stm32f10x_rcc.c ****   *   For @b STM32_Connectivity_line_devices, this parameter can be one of the
1262:Libraries/STM32F10x_StdPeriph_Driver/src/stm32f10x_rcc.c ****   *   following values:       
1263:Libraries/STM32F10x_StdPeriph_Driver/src/stm32f10x_rcc.c ****   *     @arg RCC_MCO_NoClock: No clock selected
1264:Libraries/STM32F10x_StdPeriph_Driver/src/stm32f10x_rcc.c ****   *     @arg RCC_MCO_SYSCLK: System clock selected
1265:Libraries/STM32F10x_StdPeriph_Driver/src/stm32f10x_rcc.c ****   *     @arg RCC_MCO_HSI: HSI oscillator clock selected
1266:Libraries/STM32F10x_StdPeriph_Driver/src/stm32f10x_rcc.c ****   *     @arg RCC_MCO_HSE: HSE oscillator clock selected
1267:Libraries/STM32F10x_StdPeriph_Driver/src/stm32f10x_rcc.c ****   *     @arg RCC_MCO_PLLCLK_Div2: PLL clock divided by 2 selected
1268:Libraries/STM32F10x_StdPeriph_Driver/src/stm32f10x_rcc.c ****   *     @arg RCC_MCO_PLL2CLK: PLL2 clock selected                     
1269:Libraries/STM32F10x_StdPeriph_Driver/src/stm32f10x_rcc.c ****   *     @arg RCC_MCO_PLL3CLK_Div2: PLL3 clock divided by 2 selected   
1270:Libraries/STM32F10x_StdPeriph_Driver/src/stm32f10x_rcc.c ****   *     @arg RCC_MCO_XT1: External 3-25 MHz oscillator clock selected  
1271:Libraries/STM32F10x_StdPeriph_Driver/src/stm32f10x_rcc.c ****   *     @arg RCC_MCO_PLL3CLK: PLL3 clock selected 
1272:Libraries/STM32F10x_StdPeriph_Driver/src/stm32f10x_rcc.c ****   * 
1273:Libraries/STM32F10x_StdPeriph_Driver/src/stm32f10x_rcc.c ****   *   For  @b other_STM32_devices, this parameter can be one of the following values:        
1274:Libraries/STM32F10x_StdPeriph_Driver/src/stm32f10x_rcc.c ****   *     @arg RCC_MCO_NoClock: No clock selected
1275:Libraries/STM32F10x_StdPeriph_Driver/src/stm32f10x_rcc.c ****   *     @arg RCC_MCO_SYSCLK: System clock selected
1276:Libraries/STM32F10x_StdPeriph_Driver/src/stm32f10x_rcc.c ****   *     @arg RCC_MCO_HSI: HSI oscillator clock selected
1277:Libraries/STM32F10x_StdPeriph_Driver/src/stm32f10x_rcc.c ****   *     @arg RCC_MCO_HSE: HSE oscillator clock selected
1278:Libraries/STM32F10x_StdPeriph_Driver/src/stm32f10x_rcc.c ****   *     @arg RCC_MCO_PLLCLK_Div2: PLL clock divided by 2 selected
1279:Libraries/STM32F10x_StdPeriph_Driver/src/stm32f10x_rcc.c ****   *   
1280:Libraries/STM32F10x_StdPeriph_Driver/src/stm32f10x_rcc.c ****   * @retval None
1281:Libraries/STM32F10x_StdPeriph_Driver/src/stm32f10x_rcc.c ****   */
1282:Libraries/STM32F10x_StdPeriph_Driver/src/stm32f10x_rcc.c **** void RCC_MCOConfig(uint8_t RCC_MCO)
1283:Libraries/STM32F10x_StdPeriph_Driver/src/stm32f10x_rcc.c **** {
 1071              		.loc 1 1283 0
 1072              		.cfi_startproc
 1073              		@ args = 0, pretend = 0, frame = 0
 1074              		@ frame_needed = 0, uses_anonymous_args = 0
 1075              		@ link register save eliminated.
 1076              	.LVL95:
1284:Libraries/STM32F10x_StdPeriph_Driver/src/stm32f10x_rcc.c ****   /* Check the parameters */
1285:Libraries/STM32F10x_StdPeriph_Driver/src/stm32f10x_rcc.c ****   assert_param(IS_RCC_MCO(RCC_MCO));
1286:Libraries/STM32F10x_StdPeriph_Driver/src/stm32f10x_rcc.c **** 
1287:Libraries/STM32F10x_StdPeriph_Driver/src/stm32f10x_rcc.c ****   /* Perform Byte access to MCO bits to select the MCO source */
1288:Libraries/STM32F10x_StdPeriph_Driver/src/stm32f10x_rcc.c ****   *(__IO uint8_t *) CFGR_BYTE4_ADDRESS = RCC_MCO;
 1077              		.loc 1 1288 0
 1078 02cc 014B     		ldr	r3, .L117	@ tmp111,
 1079 02ce 1870     		strb	r0, [r3]	@ RCC_MCO, MEM[(volatile uint8_t *)1073876999B]
 1080 02d0 7047     		bx	lr	@
 1081              	.L118:
 1082 02d2 00BF     		.align	2
 1083              	.L117:
 1084 02d4 07100240 		.word	1073876999
 1085              		.cfi_endproc
 1086              	.LFE57:
 1087              		.size	RCC_MCOConfig, .-RCC_MCOConfig
 1088              		.align	1
 1089              		.global	RCC_GetFlagStatus
 1090              		.thumb
 1091              		.thumb_func
 1092              		.type	RCC_GetFlagStatus, %function
ARM GAS  /var/folders/lp/0dm50ddn51vc39svyzv_6fp00000gn/T//ccS91u3A.s 			page 43


 1093              	RCC_GetFlagStatus:
 1094              	.LFB58:
1289:Libraries/STM32F10x_StdPeriph_Driver/src/stm32f10x_rcc.c **** }
1290:Libraries/STM32F10x_StdPeriph_Driver/src/stm32f10x_rcc.c **** 
1291:Libraries/STM32F10x_StdPeriph_Driver/src/stm32f10x_rcc.c **** /**
1292:Libraries/STM32F10x_StdPeriph_Driver/src/stm32f10x_rcc.c ****   * @brief  Checks whether the specified RCC flag is set or not.
1293:Libraries/STM32F10x_StdPeriph_Driver/src/stm32f10x_rcc.c ****   * @param  RCC_FLAG: specifies the flag to check.
1294:Libraries/STM32F10x_StdPeriph_Driver/src/stm32f10x_rcc.c ****   *   
1295:Libraries/STM32F10x_StdPeriph_Driver/src/stm32f10x_rcc.c ****   *   For @b STM32_Connectivity_line_devices, this parameter can be one of the
1296:Libraries/STM32F10x_StdPeriph_Driver/src/stm32f10x_rcc.c ****   *   following values:
1297:Libraries/STM32F10x_StdPeriph_Driver/src/stm32f10x_rcc.c ****   *     @arg RCC_FLAG_HSIRDY: HSI oscillator clock ready
1298:Libraries/STM32F10x_StdPeriph_Driver/src/stm32f10x_rcc.c ****   *     @arg RCC_FLAG_HSERDY: HSE oscillator clock ready
1299:Libraries/STM32F10x_StdPeriph_Driver/src/stm32f10x_rcc.c ****   *     @arg RCC_FLAG_PLLRDY: PLL clock ready
1300:Libraries/STM32F10x_StdPeriph_Driver/src/stm32f10x_rcc.c ****   *     @arg RCC_FLAG_PLL2RDY: PLL2 clock ready      
1301:Libraries/STM32F10x_StdPeriph_Driver/src/stm32f10x_rcc.c ****   *     @arg RCC_FLAG_PLL3RDY: PLL3 clock ready                           
1302:Libraries/STM32F10x_StdPeriph_Driver/src/stm32f10x_rcc.c ****   *     @arg RCC_FLAG_LSERDY: LSE oscillator clock ready
1303:Libraries/STM32F10x_StdPeriph_Driver/src/stm32f10x_rcc.c ****   *     @arg RCC_FLAG_LSIRDY: LSI oscillator clock ready
1304:Libraries/STM32F10x_StdPeriph_Driver/src/stm32f10x_rcc.c ****   *     @arg RCC_FLAG_PINRST: Pin reset
1305:Libraries/STM32F10x_StdPeriph_Driver/src/stm32f10x_rcc.c ****   *     @arg RCC_FLAG_PORRST: POR/PDR reset
1306:Libraries/STM32F10x_StdPeriph_Driver/src/stm32f10x_rcc.c ****   *     @arg RCC_FLAG_SFTRST: Software reset
1307:Libraries/STM32F10x_StdPeriph_Driver/src/stm32f10x_rcc.c ****   *     @arg RCC_FLAG_IWDGRST: Independent Watchdog reset
1308:Libraries/STM32F10x_StdPeriph_Driver/src/stm32f10x_rcc.c ****   *     @arg RCC_FLAG_WWDGRST: Window Watchdog reset
1309:Libraries/STM32F10x_StdPeriph_Driver/src/stm32f10x_rcc.c ****   *     @arg RCC_FLAG_LPWRRST: Low Power reset
1310:Libraries/STM32F10x_StdPeriph_Driver/src/stm32f10x_rcc.c ****   * 
1311:Libraries/STM32F10x_StdPeriph_Driver/src/stm32f10x_rcc.c ****   *   For @b other_STM32_devices, this parameter can be one of the following values:        
1312:Libraries/STM32F10x_StdPeriph_Driver/src/stm32f10x_rcc.c ****   *     @arg RCC_FLAG_HSIRDY: HSI oscillator clock ready
1313:Libraries/STM32F10x_StdPeriph_Driver/src/stm32f10x_rcc.c ****   *     @arg RCC_FLAG_HSERDY: HSE oscillator clock ready
1314:Libraries/STM32F10x_StdPeriph_Driver/src/stm32f10x_rcc.c ****   *     @arg RCC_FLAG_PLLRDY: PLL clock ready
1315:Libraries/STM32F10x_StdPeriph_Driver/src/stm32f10x_rcc.c ****   *     @arg RCC_FLAG_LSERDY: LSE oscillator clock ready
1316:Libraries/STM32F10x_StdPeriph_Driver/src/stm32f10x_rcc.c ****   *     @arg RCC_FLAG_LSIRDY: LSI oscillator clock ready
1317:Libraries/STM32F10x_StdPeriph_Driver/src/stm32f10x_rcc.c ****   *     @arg RCC_FLAG_PINRST: Pin reset
1318:Libraries/STM32F10x_StdPeriph_Driver/src/stm32f10x_rcc.c ****   *     @arg RCC_FLAG_PORRST: POR/PDR reset
1319:Libraries/STM32F10x_StdPeriph_Driver/src/stm32f10x_rcc.c ****   *     @arg RCC_FLAG_SFTRST: Software reset
1320:Libraries/STM32F10x_StdPeriph_Driver/src/stm32f10x_rcc.c ****   *     @arg RCC_FLAG_IWDGRST: Independent Watchdog reset
1321:Libraries/STM32F10x_StdPeriph_Driver/src/stm32f10x_rcc.c ****   *     @arg RCC_FLAG_WWDGRST: Window Watchdog reset
1322:Libraries/STM32F10x_StdPeriph_Driver/src/stm32f10x_rcc.c ****   *     @arg RCC_FLAG_LPWRRST: Low Power reset
1323:Libraries/STM32F10x_StdPeriph_Driver/src/stm32f10x_rcc.c ****   *   
1324:Libraries/STM32F10x_StdPeriph_Driver/src/stm32f10x_rcc.c ****   * @retval The new state of RCC_FLAG (SET or RESET).
1325:Libraries/STM32F10x_StdPeriph_Driver/src/stm32f10x_rcc.c ****   */
1326:Libraries/STM32F10x_StdPeriph_Driver/src/stm32f10x_rcc.c **** FlagStatus RCC_GetFlagStatus(uint8_t RCC_FLAG)
1327:Libraries/STM32F10x_StdPeriph_Driver/src/stm32f10x_rcc.c **** {
 1095              		.loc 1 1327 0
 1096              		.cfi_startproc
 1097              		@ args = 0, pretend = 0, frame = 0
 1098              		@ frame_needed = 0, uses_anonymous_args = 0
 1099              		@ link register save eliminated.
 1100              	.LVL96:
1328:Libraries/STM32F10x_StdPeriph_Driver/src/stm32f10x_rcc.c ****   uint32_t tmp = 0;
1329:Libraries/STM32F10x_StdPeriph_Driver/src/stm32f10x_rcc.c ****   uint32_t statusreg = 0;
1330:Libraries/STM32F10x_StdPeriph_Driver/src/stm32f10x_rcc.c ****   FlagStatus bitstatus = RESET;
1331:Libraries/STM32F10x_StdPeriph_Driver/src/stm32f10x_rcc.c ****   /* Check the parameters */
1332:Libraries/STM32F10x_StdPeriph_Driver/src/stm32f10x_rcc.c ****   assert_param(IS_RCC_FLAG(RCC_FLAG));
1333:Libraries/STM32F10x_StdPeriph_Driver/src/stm32f10x_rcc.c **** 
1334:Libraries/STM32F10x_StdPeriph_Driver/src/stm32f10x_rcc.c ****   /* Get the RCC register index */
1335:Libraries/STM32F10x_StdPeriph_Driver/src/stm32f10x_rcc.c ****   tmp = RCC_FLAG >> 5;
 1101              		.loc 1 1335 0
 1102 02d8 4209     		lsrs	r2, r0, #5	@ D.7025, RCC_FLAG,
ARM GAS  /var/folders/lp/0dm50ddn51vc39svyzv_6fp00000gn/T//ccS91u3A.s 			page 44


 1103              	.LVL97:
1336:Libraries/STM32F10x_StdPeriph_Driver/src/stm32f10x_rcc.c ****   if (tmp == 1)               /* The flag to check is in CR register */
 1104              		.loc 1 1336 0
 1105 02da 012A     		cmp	r2, #1	@ D.7025,
 1106 02dc 074B     		ldr	r3, .L123	@ tmp129,
 1107 02de 01D1     		bne	.L120	@,
1337:Libraries/STM32F10x_StdPeriph_Driver/src/stm32f10x_rcc.c ****   {
1338:Libraries/STM32F10x_StdPeriph_Driver/src/stm32f10x_rcc.c ****     statusreg = RCC->CR;
 1108              		.loc 1 1338 0
 1109 02e0 1B68     		ldr	r3, [r3]	@ statusreg, MEM[(struct RCC_TypeDef *)1073876992B].CR
 1110              	.LVL98:
 1111 02e2 03E0     		b	.L121	@
 1112              	.LVL99:
 1113              	.L120:
1339:Libraries/STM32F10x_StdPeriph_Driver/src/stm32f10x_rcc.c ****   }
1340:Libraries/STM32F10x_StdPeriph_Driver/src/stm32f10x_rcc.c ****   else if (tmp == 2)          /* The flag to check is in BDCR register */
 1114              		.loc 1 1340 0
 1115 02e4 022A     		cmp	r2, #2	@ D.7025,
1341:Libraries/STM32F10x_StdPeriph_Driver/src/stm32f10x_rcc.c ****   {
1342:Libraries/STM32F10x_StdPeriph_Driver/src/stm32f10x_rcc.c ****     statusreg = RCC->BDCR;
 1116              		.loc 1 1342 0
 1117 02e6 0CBF     		ite	eq
 1118 02e8 1B6A     		ldreq	r3, [r3, #32]	@ statusreg, MEM[(struct RCC_TypeDef *)1073876992B].BDCR
 1119              	.LVL100:
1343:Libraries/STM32F10x_StdPeriph_Driver/src/stm32f10x_rcc.c ****   }
1344:Libraries/STM32F10x_StdPeriph_Driver/src/stm32f10x_rcc.c ****   else                       /* The flag to check is in CSR register */
1345:Libraries/STM32F10x_StdPeriph_Driver/src/stm32f10x_rcc.c ****   {
1346:Libraries/STM32F10x_StdPeriph_Driver/src/stm32f10x_rcc.c ****     statusreg = RCC->CSR;
 1120              		.loc 1 1346 0
 1121 02ea 5B6A     		ldrne	r3, [r3, #36]	@ statusreg, MEM[(struct RCC_TypeDef *)1073876992B].CSR
 1122              	.LVL101:
 1123              	.L121:
1347:Libraries/STM32F10x_StdPeriph_Driver/src/stm32f10x_rcc.c ****   }
1348:Libraries/STM32F10x_StdPeriph_Driver/src/stm32f10x_rcc.c **** 
1349:Libraries/STM32F10x_StdPeriph_Driver/src/stm32f10x_rcc.c ****   /* Get the flag position */
1350:Libraries/STM32F10x_StdPeriph_Driver/src/stm32f10x_rcc.c ****   tmp = RCC_FLAG & FLAG_Mask;
1351:Libraries/STM32F10x_StdPeriph_Driver/src/stm32f10x_rcc.c ****   if ((statusreg & ((uint32_t)1 << tmp)) != (uint32_t)RESET)
1352:Libraries/STM32F10x_StdPeriph_Driver/src/stm32f10x_rcc.c ****   {
1353:Libraries/STM32F10x_StdPeriph_Driver/src/stm32f10x_rcc.c ****     bitstatus = SET;
1354:Libraries/STM32F10x_StdPeriph_Driver/src/stm32f10x_rcc.c ****   }
1355:Libraries/STM32F10x_StdPeriph_Driver/src/stm32f10x_rcc.c ****   else
1356:Libraries/STM32F10x_StdPeriph_Driver/src/stm32f10x_rcc.c ****   {
1357:Libraries/STM32F10x_StdPeriph_Driver/src/stm32f10x_rcc.c ****     bitstatus = RESET;
1358:Libraries/STM32F10x_StdPeriph_Driver/src/stm32f10x_rcc.c ****   }
1359:Libraries/STM32F10x_StdPeriph_Driver/src/stm32f10x_rcc.c **** 
1360:Libraries/STM32F10x_StdPeriph_Driver/src/stm32f10x_rcc.c ****   /* Return the flag status */
1361:Libraries/STM32F10x_StdPeriph_Driver/src/stm32f10x_rcc.c ****   return bitstatus;
 1124              		.loc 1 1361 0
 1125 02ec 00F01F00 		and	r0, r0, #31	@ tmp, RCC_FLAG,
 1126              	.LVL102:
 1127 02f0 23FA00F0 		lsr	r0, r3, r0	@ D.7026, statusreg, tmp
1362:Libraries/STM32F10x_StdPeriph_Driver/src/stm32f10x_rcc.c **** }
 1128              		.loc 1 1362 0
 1129 02f4 00F00100 		and	r0, r0, #1	@, D.7026,
 1130 02f8 7047     		bx	lr	@
 1131              	.L124:
 1132 02fa 00BF     		.align	2
ARM GAS  /var/folders/lp/0dm50ddn51vc39svyzv_6fp00000gn/T//ccS91u3A.s 			page 45


 1133              	.L123:
 1134 02fc 00100240 		.word	1073876992
 1135              		.cfi_endproc
 1136              	.LFE58:
 1137              		.size	RCC_GetFlagStatus, .-RCC_GetFlagStatus
 1138              		.align	1
 1139              		.global	RCC_WaitForHSEStartUp
 1140              		.thumb
 1141              		.thumb_func
 1142              		.type	RCC_WaitForHSEStartUp, %function
 1143              	RCC_WaitForHSEStartUp:
 1144              	.LFB31:
 305:Libraries/STM32F10x_StdPeriph_Driver/src/stm32f10x_rcc.c ****   __IO uint32_t StartUpCounter = 0;
 1145              		.loc 1 305 0
 1146              		.cfi_startproc
 1147              		@ args = 0, pretend = 0, frame = 8
 1148              		@ frame_needed = 0, uses_anonymous_args = 0
 1149 0300 07B5     		push	{r0, r1, r2, lr}	@
 1150              	.LCFI1:
 1151              		.cfi_def_cfa_offset 16
 1152              		.cfi_offset 14, -4
 306:Libraries/STM32F10x_StdPeriph_Driver/src/stm32f10x_rcc.c ****   ErrorStatus status = ERROR;
 1153              		.loc 1 306 0
 1154 0302 0023     		movs	r3, #0	@ tmp118,
 1155 0304 0193     		str	r3, [sp, #4]	@ tmp118, StartUpCounter
 1156              	.LVL103:
 1157              	.L127:
 313:Libraries/STM32F10x_StdPeriph_Driver/src/stm32f10x_rcc.c ****     StartUpCounter++;  
 1158              		.loc 1 313 0 discriminator 2
 1159 0306 3120     		movs	r0, #49	@,
 1160 0308 FFF7FEFF 		bl	RCC_GetFlagStatus	@
 1161              	.LVL104:
 314:Libraries/STM32F10x_StdPeriph_Driver/src/stm32f10x_rcc.c ****   } while((StartUpCounter != HSE_STARTUP_TIMEOUT) && (HSEStatus == RESET));
 1162              		.loc 1 314 0 discriminator 2
 1163 030c 019B     		ldr	r3, [sp, #4]	@ D.7031, StartUpCounter
 1164 030e 0133     		adds	r3, r3, #1	@ D.7031, D.7031,
 1165 0310 0193     		str	r3, [sp, #4]	@ D.7031, StartUpCounter
 315:Libraries/STM32F10x_StdPeriph_Driver/src/stm32f10x_rcc.c ****   
 1166              		.loc 1 315 0 discriminator 2
 1167 0312 019B     		ldr	r3, [sp, #4]	@ D.7031, StartUpCounter
 1168 0314 B3F5A06F 		cmp	r3, #1280	@ D.7031,
 1169 0318 01D0     		beq	.L126	@,
 315:Libraries/STM32F10x_StdPeriph_Driver/src/stm32f10x_rcc.c ****   
 1170              		.loc 1 315 0 is_stmt 0 discriminator 1
 1171 031a 0028     		cmp	r0, #0	@ tmp119
 1172 031c F3D0     		beq	.L127	@
 1173              	.L126:
 317:Libraries/STM32F10x_StdPeriph_Driver/src/stm32f10x_rcc.c ****   {
 1174              		.loc 1 317 0 is_stmt 1
 1175 031e 3120     		movs	r0, #49	@,
 1176              	.LVL105:
 1177 0320 FFF7FEFF 		bl	RCC_GetFlagStatus	@
 1178              	.LVL106:
 326:Libraries/STM32F10x_StdPeriph_Driver/src/stm32f10x_rcc.c **** 
 1179              		.loc 1 326 0
 1180 0324 0030     		adds	r0, r0, #0	@,,
 1181              	.LVL107:
ARM GAS  /var/folders/lp/0dm50ddn51vc39svyzv_6fp00000gn/T//ccS91u3A.s 			page 46


 1182 0326 18BF     		it	ne
 1183 0328 0120     		movne	r0, #1	@,
 1184 032a 03B0     		add	sp, sp, #12	@,,
 1185              	.LCFI2:
 1186              		.cfi_def_cfa_offset 4
 1187              		@ sp needed	@
 1188 032c 5DF804FB 		ldr	pc, [sp], #4	@
 1189              		.cfi_endproc
 1190              	.LFE31:
 1191              		.size	RCC_WaitForHSEStartUp, .-RCC_WaitForHSEStartUp
 1192              		.align	1
 1193              		.global	RCC_ClearFlag
 1194              		.thumb
 1195              		.thumb_func
 1196              		.type	RCC_ClearFlag, %function
 1197              	RCC_ClearFlag:
 1198              	.LFB59:
1363:Libraries/STM32F10x_StdPeriph_Driver/src/stm32f10x_rcc.c **** 
1364:Libraries/STM32F10x_StdPeriph_Driver/src/stm32f10x_rcc.c **** /**
1365:Libraries/STM32F10x_StdPeriph_Driver/src/stm32f10x_rcc.c ****   * @brief  Clears the RCC reset flags.
1366:Libraries/STM32F10x_StdPeriph_Driver/src/stm32f10x_rcc.c ****   * @note   The reset flags are: RCC_FLAG_PINRST, RCC_FLAG_PORRST, RCC_FLAG_SFTRST,
1367:Libraries/STM32F10x_StdPeriph_Driver/src/stm32f10x_rcc.c ****   *   RCC_FLAG_IWDGRST, RCC_FLAG_WWDGRST, RCC_FLAG_LPWRRST
1368:Libraries/STM32F10x_StdPeriph_Driver/src/stm32f10x_rcc.c ****   * @param  None
1369:Libraries/STM32F10x_StdPeriph_Driver/src/stm32f10x_rcc.c ****   * @retval None
1370:Libraries/STM32F10x_StdPeriph_Driver/src/stm32f10x_rcc.c ****   */
1371:Libraries/STM32F10x_StdPeriph_Driver/src/stm32f10x_rcc.c **** void RCC_ClearFlag(void)
1372:Libraries/STM32F10x_StdPeriph_Driver/src/stm32f10x_rcc.c **** {
 1199              		.loc 1 1372 0
 1200              		.cfi_startproc
 1201              		@ args = 0, pretend = 0, frame = 0
 1202              		@ frame_needed = 0, uses_anonymous_args = 0
 1203              		@ link register save eliminated.
1373:Libraries/STM32F10x_StdPeriph_Driver/src/stm32f10x_rcc.c ****   /* Set RMVF bit to clear the reset flags */
1374:Libraries/STM32F10x_StdPeriph_Driver/src/stm32f10x_rcc.c ****   RCC->CSR |= CSR_RMVF_Set;
 1204              		.loc 1 1374 0
 1205 0330 024A     		ldr	r2, .L134	@ tmp112,
 1206 0332 536A     		ldr	r3, [r2, #36]	@ D.7037, MEM[(struct RCC_TypeDef *)1073876992B].CSR
 1207 0334 43F08073 		orr	r3, r3, #16777216	@ D.7037, D.7037,
 1208 0338 5362     		str	r3, [r2, #36]	@ D.7037, MEM[(struct RCC_TypeDef *)1073876992B].CSR
 1209 033a 7047     		bx	lr	@
 1210              	.L135:
 1211              		.align	2
 1212              	.L134:
 1213 033c 00100240 		.word	1073876992
 1214              		.cfi_endproc
 1215              	.LFE59:
 1216              		.size	RCC_ClearFlag, .-RCC_ClearFlag
 1217              		.align	1
 1218              		.global	RCC_GetITStatus
 1219              		.thumb
 1220              		.thumb_func
 1221              		.type	RCC_GetITStatus, %function
 1222              	RCC_GetITStatus:
 1223              	.LFB60:
1375:Libraries/STM32F10x_StdPeriph_Driver/src/stm32f10x_rcc.c **** }
1376:Libraries/STM32F10x_StdPeriph_Driver/src/stm32f10x_rcc.c **** 
1377:Libraries/STM32F10x_StdPeriph_Driver/src/stm32f10x_rcc.c **** /**
ARM GAS  /var/folders/lp/0dm50ddn51vc39svyzv_6fp00000gn/T//ccS91u3A.s 			page 47


1378:Libraries/STM32F10x_StdPeriph_Driver/src/stm32f10x_rcc.c ****   * @brief  Checks whether the specified RCC interrupt has occurred or not.
1379:Libraries/STM32F10x_StdPeriph_Driver/src/stm32f10x_rcc.c ****   * @param  RCC_IT: specifies the RCC interrupt source to check.
1380:Libraries/STM32F10x_StdPeriph_Driver/src/stm32f10x_rcc.c ****   *   
1381:Libraries/STM32F10x_StdPeriph_Driver/src/stm32f10x_rcc.c ****   *   For @b STM32_Connectivity_line_devices, this parameter can be one of the
1382:Libraries/STM32F10x_StdPeriph_Driver/src/stm32f10x_rcc.c ****   *   following values:
1383:Libraries/STM32F10x_StdPeriph_Driver/src/stm32f10x_rcc.c ****   *     @arg RCC_IT_LSIRDY: LSI ready interrupt
1384:Libraries/STM32F10x_StdPeriph_Driver/src/stm32f10x_rcc.c ****   *     @arg RCC_IT_LSERDY: LSE ready interrupt
1385:Libraries/STM32F10x_StdPeriph_Driver/src/stm32f10x_rcc.c ****   *     @arg RCC_IT_HSIRDY: HSI ready interrupt
1386:Libraries/STM32F10x_StdPeriph_Driver/src/stm32f10x_rcc.c ****   *     @arg RCC_IT_HSERDY: HSE ready interrupt
1387:Libraries/STM32F10x_StdPeriph_Driver/src/stm32f10x_rcc.c ****   *     @arg RCC_IT_PLLRDY: PLL ready interrupt
1388:Libraries/STM32F10x_StdPeriph_Driver/src/stm32f10x_rcc.c ****   *     @arg RCC_IT_PLL2RDY: PLL2 ready interrupt 
1389:Libraries/STM32F10x_StdPeriph_Driver/src/stm32f10x_rcc.c ****   *     @arg RCC_IT_PLL3RDY: PLL3 ready interrupt                      
1390:Libraries/STM32F10x_StdPeriph_Driver/src/stm32f10x_rcc.c ****   *     @arg RCC_IT_CSS: Clock Security System interrupt
1391:Libraries/STM32F10x_StdPeriph_Driver/src/stm32f10x_rcc.c ****   * 
1392:Libraries/STM32F10x_StdPeriph_Driver/src/stm32f10x_rcc.c ****   *   For @b other_STM32_devices, this parameter can be one of the following values:        
1393:Libraries/STM32F10x_StdPeriph_Driver/src/stm32f10x_rcc.c ****   *     @arg RCC_IT_LSIRDY: LSI ready interrupt
1394:Libraries/STM32F10x_StdPeriph_Driver/src/stm32f10x_rcc.c ****   *     @arg RCC_IT_LSERDY: LSE ready interrupt
1395:Libraries/STM32F10x_StdPeriph_Driver/src/stm32f10x_rcc.c ****   *     @arg RCC_IT_HSIRDY: HSI ready interrupt
1396:Libraries/STM32F10x_StdPeriph_Driver/src/stm32f10x_rcc.c ****   *     @arg RCC_IT_HSERDY: HSE ready interrupt
1397:Libraries/STM32F10x_StdPeriph_Driver/src/stm32f10x_rcc.c ****   *     @arg RCC_IT_PLLRDY: PLL ready interrupt
1398:Libraries/STM32F10x_StdPeriph_Driver/src/stm32f10x_rcc.c ****   *     @arg RCC_IT_CSS: Clock Security System interrupt
1399:Libraries/STM32F10x_StdPeriph_Driver/src/stm32f10x_rcc.c ****   *   
1400:Libraries/STM32F10x_StdPeriph_Driver/src/stm32f10x_rcc.c ****   * @retval The new state of RCC_IT (SET or RESET).
1401:Libraries/STM32F10x_StdPeriph_Driver/src/stm32f10x_rcc.c ****   */
1402:Libraries/STM32F10x_StdPeriph_Driver/src/stm32f10x_rcc.c **** ITStatus RCC_GetITStatus(uint8_t RCC_IT)
1403:Libraries/STM32F10x_StdPeriph_Driver/src/stm32f10x_rcc.c **** {
 1224              		.loc 1 1403 0
 1225              		.cfi_startproc
 1226              		@ args = 0, pretend = 0, frame = 0
 1227              		@ frame_needed = 0, uses_anonymous_args = 0
 1228              		@ link register save eliminated.
 1229              	.LVL108:
1404:Libraries/STM32F10x_StdPeriph_Driver/src/stm32f10x_rcc.c ****   ITStatus bitstatus = RESET;
1405:Libraries/STM32F10x_StdPeriph_Driver/src/stm32f10x_rcc.c ****   /* Check the parameters */
1406:Libraries/STM32F10x_StdPeriph_Driver/src/stm32f10x_rcc.c ****   assert_param(IS_RCC_GET_IT(RCC_IT));
1407:Libraries/STM32F10x_StdPeriph_Driver/src/stm32f10x_rcc.c **** 
1408:Libraries/STM32F10x_StdPeriph_Driver/src/stm32f10x_rcc.c ****   /* Check the status of the specified RCC interrupt */
1409:Libraries/STM32F10x_StdPeriph_Driver/src/stm32f10x_rcc.c ****   if ((RCC->CIR & RCC_IT) != (uint32_t)RESET)
 1230              		.loc 1 1409 0
 1231 0340 034B     		ldr	r3, .L137	@ tmp117,
 1232 0342 9B68     		ldr	r3, [r3, #8]	@ D.7040, MEM[(struct RCC_TypeDef *)1073876992B].CIR
 1233              	.LVL109:
1410:Libraries/STM32F10x_StdPeriph_Driver/src/stm32f10x_rcc.c ****   {
1411:Libraries/STM32F10x_StdPeriph_Driver/src/stm32f10x_rcc.c ****     bitstatus = SET;
1412:Libraries/STM32F10x_StdPeriph_Driver/src/stm32f10x_rcc.c ****   }
1413:Libraries/STM32F10x_StdPeriph_Driver/src/stm32f10x_rcc.c ****   else
1414:Libraries/STM32F10x_StdPeriph_Driver/src/stm32f10x_rcc.c ****   {
1415:Libraries/STM32F10x_StdPeriph_Driver/src/stm32f10x_rcc.c ****     bitstatus = RESET;
1416:Libraries/STM32F10x_StdPeriph_Driver/src/stm32f10x_rcc.c ****   }
1417:Libraries/STM32F10x_StdPeriph_Driver/src/stm32f10x_rcc.c **** 
1418:Libraries/STM32F10x_StdPeriph_Driver/src/stm32f10x_rcc.c ****   /* Return the RCC_IT status */
1419:Libraries/STM32F10x_StdPeriph_Driver/src/stm32f10x_rcc.c ****   return  bitstatus;
 1234              		.loc 1 1419 0
 1235 0344 1842     		tst	r0, r3	@ RCC_IT, D.7040
1420:Libraries/STM32F10x_StdPeriph_Driver/src/stm32f10x_rcc.c **** }
 1236              		.loc 1 1420 0
 1237 0346 14BF     		ite	ne
ARM GAS  /var/folders/lp/0dm50ddn51vc39svyzv_6fp00000gn/T//ccS91u3A.s 			page 48


 1238 0348 0120     		movne	r0, #1	@,
 1239              	.LVL110:
 1240 034a 0020     		moveq	r0, #0	@,
 1241 034c 7047     		bx	lr	@
 1242              	.L138:
 1243 034e 00BF     		.align	2
 1244              	.L137:
 1245 0350 00100240 		.word	1073876992
 1246              		.cfi_endproc
 1247              	.LFE60:
 1248              		.size	RCC_GetITStatus, .-RCC_GetITStatus
 1249              		.align	1
 1250              		.global	RCC_ClearITPendingBit
 1251              		.thumb
 1252              		.thumb_func
 1253              		.type	RCC_ClearITPendingBit, %function
 1254              	RCC_ClearITPendingBit:
 1255              	.LFB61:
1421:Libraries/STM32F10x_StdPeriph_Driver/src/stm32f10x_rcc.c **** 
1422:Libraries/STM32F10x_StdPeriph_Driver/src/stm32f10x_rcc.c **** /**
1423:Libraries/STM32F10x_StdPeriph_Driver/src/stm32f10x_rcc.c ****   * @brief  Clears the RCC's interrupt pending bits.
1424:Libraries/STM32F10x_StdPeriph_Driver/src/stm32f10x_rcc.c ****   * @param  RCC_IT: specifies the interrupt pending bit to clear.
1425:Libraries/STM32F10x_StdPeriph_Driver/src/stm32f10x_rcc.c ****   *   
1426:Libraries/STM32F10x_StdPeriph_Driver/src/stm32f10x_rcc.c ****   *   For @b STM32_Connectivity_line_devices, this parameter can be any combination
1427:Libraries/STM32F10x_StdPeriph_Driver/src/stm32f10x_rcc.c ****   *   of the following values:
1428:Libraries/STM32F10x_StdPeriph_Driver/src/stm32f10x_rcc.c ****   *     @arg RCC_IT_LSIRDY: LSI ready interrupt
1429:Libraries/STM32F10x_StdPeriph_Driver/src/stm32f10x_rcc.c ****   *     @arg RCC_IT_LSERDY: LSE ready interrupt
1430:Libraries/STM32F10x_StdPeriph_Driver/src/stm32f10x_rcc.c ****   *     @arg RCC_IT_HSIRDY: HSI ready interrupt
1431:Libraries/STM32F10x_StdPeriph_Driver/src/stm32f10x_rcc.c ****   *     @arg RCC_IT_HSERDY: HSE ready interrupt
1432:Libraries/STM32F10x_StdPeriph_Driver/src/stm32f10x_rcc.c ****   *     @arg RCC_IT_PLLRDY: PLL ready interrupt
1433:Libraries/STM32F10x_StdPeriph_Driver/src/stm32f10x_rcc.c ****   *     @arg RCC_IT_PLL2RDY: PLL2 ready interrupt 
1434:Libraries/STM32F10x_StdPeriph_Driver/src/stm32f10x_rcc.c ****   *     @arg RCC_IT_PLL3RDY: PLL3 ready interrupt                      
1435:Libraries/STM32F10x_StdPeriph_Driver/src/stm32f10x_rcc.c ****   *     @arg RCC_IT_CSS: Clock Security System interrupt
1436:Libraries/STM32F10x_StdPeriph_Driver/src/stm32f10x_rcc.c ****   * 
1437:Libraries/STM32F10x_StdPeriph_Driver/src/stm32f10x_rcc.c ****   *   For @b other_STM32_devices, this parameter can be any combination of the
1438:Libraries/STM32F10x_StdPeriph_Driver/src/stm32f10x_rcc.c ****   *   following values:        
1439:Libraries/STM32F10x_StdPeriph_Driver/src/stm32f10x_rcc.c ****   *     @arg RCC_IT_LSIRDY: LSI ready interrupt
1440:Libraries/STM32F10x_StdPeriph_Driver/src/stm32f10x_rcc.c ****   *     @arg RCC_IT_LSERDY: LSE ready interrupt
1441:Libraries/STM32F10x_StdPeriph_Driver/src/stm32f10x_rcc.c ****   *     @arg RCC_IT_HSIRDY: HSI ready interrupt
1442:Libraries/STM32F10x_StdPeriph_Driver/src/stm32f10x_rcc.c ****   *     @arg RCC_IT_HSERDY: HSE ready interrupt
1443:Libraries/STM32F10x_StdPeriph_Driver/src/stm32f10x_rcc.c ****   *     @arg RCC_IT_PLLRDY: PLL ready interrupt
1444:Libraries/STM32F10x_StdPeriph_Driver/src/stm32f10x_rcc.c ****   *   
1445:Libraries/STM32F10x_StdPeriph_Driver/src/stm32f10x_rcc.c ****   *     @arg RCC_IT_CSS: Clock Security System interrupt
1446:Libraries/STM32F10x_StdPeriph_Driver/src/stm32f10x_rcc.c ****   * @retval None
1447:Libraries/STM32F10x_StdPeriph_Driver/src/stm32f10x_rcc.c ****   */
1448:Libraries/STM32F10x_StdPeriph_Driver/src/stm32f10x_rcc.c **** void RCC_ClearITPendingBit(uint8_t RCC_IT)
1449:Libraries/STM32F10x_StdPeriph_Driver/src/stm32f10x_rcc.c **** {
 1256              		.loc 1 1449 0
 1257              		.cfi_startproc
 1258              		@ args = 0, pretend = 0, frame = 0
 1259              		@ frame_needed = 0, uses_anonymous_args = 0
 1260              		@ link register save eliminated.
 1261              	.LVL111:
1450:Libraries/STM32F10x_StdPeriph_Driver/src/stm32f10x_rcc.c ****   /* Check the parameters */
1451:Libraries/STM32F10x_StdPeriph_Driver/src/stm32f10x_rcc.c ****   assert_param(IS_RCC_CLEAR_IT(RCC_IT));
1452:Libraries/STM32F10x_StdPeriph_Driver/src/stm32f10x_rcc.c **** 
1453:Libraries/STM32F10x_StdPeriph_Driver/src/stm32f10x_rcc.c ****   /* Perform Byte access to RCC_CIR[23:16] bits to clear the selected interrupt
ARM GAS  /var/folders/lp/0dm50ddn51vc39svyzv_6fp00000gn/T//ccS91u3A.s 			page 49


1454:Libraries/STM32F10x_StdPeriph_Driver/src/stm32f10x_rcc.c ****      pending bits */
1455:Libraries/STM32F10x_StdPeriph_Driver/src/stm32f10x_rcc.c ****   *(__IO uint8_t *) CIR_BYTE3_ADDRESS = RCC_IT;
 1262              		.loc 1 1455 0
 1263 0354 014B     		ldr	r3, .L140	@ tmp111,
 1264 0356 1870     		strb	r0, [r3]	@ RCC_IT, MEM[(volatile uint8_t *)1073877002B]
 1265 0358 7047     		bx	lr	@
 1266              	.L141:
 1267 035a 00BF     		.align	2
 1268              	.L140:
 1269 035c 0A100240 		.word	1073877002
 1270              		.cfi_endproc
 1271              	.LFE61:
 1272              		.size	RCC_ClearITPendingBit, .-RCC_ClearITPendingBit
 1273              		.data
 1274              		.set	.LANCHOR0,. + 0
 1275              		.type	APBAHBPrescTable, %object
 1276              		.size	APBAHBPrescTable, 16
 1277              	APBAHBPrescTable:
 1278 0000 00       		.byte	0
 1279 0001 00       		.byte	0
 1280 0002 00       		.byte	0
 1281 0003 00       		.byte	0
 1282 0004 01       		.byte	1
 1283 0005 02       		.byte	2
 1284 0006 03       		.byte	3
 1285 0007 04       		.byte	4
 1286 0008 01       		.byte	1
 1287 0009 02       		.byte	2
 1288 000a 03       		.byte	3
 1289 000b 04       		.byte	4
 1290 000c 06       		.byte	6
 1291 000d 07       		.byte	7
 1292 000e 08       		.byte	8
 1293 000f 09       		.byte	9
 1294              		.type	ADCPrescTable, %object
 1295              		.size	ADCPrescTable, 4
 1296              	ADCPrescTable:
 1297 0010 02       		.byte	2
 1298 0011 04       		.byte	4
 1299 0012 06       		.byte	6
 1300 0013 08       		.byte	8
 1301              		.text
 1302              	.Letext0:
 1303              		.file 2 "/usr/local/share/gcc-arm-none-eabi-5_4-2016q3/arm-none-eabi/include/machine/_default_type
 1304              		.file 3 "/usr/local/share/gcc-arm-none-eabi-5_4-2016q3/arm-none-eabi/include/sys/_stdint.h"
 1305              		.file 4 "./Libraries/CMSIS/CM3/DeviceSupport/ST/STM32F10x/stm32f10x.h"
 1306              		.file 5 "./Libraries/STM32F10x_StdPeriph_Driver/inc/stm32f10x_rcc.h"
 1307              		.file 6 "./Libraries/CMSIS/CM3/CoreSupport/core_cm3.h"