ARM GAS  /var/folders/lp/0dm50ddn51vc39svyzv_6fp00000gn/T//ccS91u3A.s 			page 1


   1              		.syntax unified
   2              		.cpu cortex-m3
   3              		.fpu softvfp
   4              		.eabi_attribute 20, 1	@ Tag_ABI_FP_denormal
   5              		.eabi_attribute 21, 1	@ Tag_ABI_FP_exceptions
   6              		.eabi_attribute 23, 3	@ Tag_ABI_FP_number_model
   7              		.eabi_attribute 24, 1	@ Tag_ABI_align8_needed
   8              		.eabi_attribute 25, 1	@ Tag_ABI_align8_preserved
   9              		.eabi_attribute 26, 1	@ Tag_ABI_enum_size
  10              		.eabi_attribute 30, 4	@ Tag_ABI_optimization_goals
  11              		.eabi_attribute 34, 1	@ Tag_CPU_unaligned_access
  12              		.eabi_attribute 18, 4	@ Tag_ABI_PCS_wchar_t
  13              		.file	"stm32f10x_rcc.c"
  14              	@ GNU C11 (GNU Tools for ARM Embedded Processors) version 5.4.1 20160919 (release) [ARM/embedded-5-
  15              	@	compiled by GNU C version 4.2.1 (Based on Apple Inc. build 5658) (LLVM build 2336.9.00), GMP vers
  16              	@ GGC heuristics: --param ggc-min-expand=100 --param ggc-min-heapsize=131072
  17              	@ options passed:  -I . -I ./user -I ./Libraries/CMSIS/CM3/CoreSupport
  18              	@ -I ./Libraries/CMSIS/CM3/DeviceSupport/ST/STM32F10x
  19              	@ -I ./Libraries/STM32F10x_StdPeriph_Driver/inc
  20              	@ -I ./Libraries/STM32F10x_StdPeriph_Driver -imultilib armv7-m
  21              	@ -iprefix /usr/local/share/gcc-arm-none-eabi-5_4-2016q3/bin/../lib/gcc/arm-none-eabi/5.4.1/
  22              	@ -isysroot /usr/local/share/gcc-arm-none-eabi-5_4-2016q3/bin/../arm-none-eabi
  23              	@ -D__USES_INITFINI__ -D STM32F10X_MD_VL -D USE_STDPERIPH_DRIVER
  24              	@ -D HSE_VALUE=8000000 -D RUN_FROM_FLASH=1
  25              	@ Libraries/STM32F10x_StdPeriph_Driver/src/stm32f10x_rcc.c -mcpu=cortex-m3
  26              	@ -mthumb
  27              	@ -auxbase-strip Libraries/STM32F10x_StdPeriph_Driver/src/stm32f10x_rcc.o
  28              	@ -g -gdwarf-2 -Os -Wall -fomit-frame-pointer -fverbose-asm
  29              	@ options enabled:  -faggressive-loop-optimizations -falign-functions
  30              	@ -falign-jumps -falign-labels -falign-loops -fauto-inc-dec
  31              	@ -fbranch-count-reg -fcaller-saves -fchkp-check-incomplete-type
  32              	@ -fchkp-check-read -fchkp-check-write -fchkp-instrument-calls
  33              	@ -fchkp-narrow-bounds -fchkp-optimize -fchkp-store-bounds
  34              	@ -fchkp-use-static-bounds -fchkp-use-static-const-bounds
  35              	@ -fchkp-use-wrappers -fcombine-stack-adjustments -fcommon -fcompare-elim
  36              	@ -fcprop-registers -fcrossjumping -fcse-follow-jumps -fdefer-pop
  37              	@ -fdelete-null-pointer-checks -fdevirtualize -fdevirtualize-speculatively
  38              	@ -fdwarf2-cfi-asm -fearly-inlining -feliminate-unused-debug-types
  39              	@ -fexpensive-optimizations -fforward-propagate -ffunction-cse -fgcse
  40              	@ -fgcse-lm -fgnu-runtime -fgnu-unique -fguess-branch-probability
  41              	@ -fhoist-adjacent-loads -fident -fif-conversion -fif-conversion2
  42              	@ -findirect-inlining -finline -finline-atomics -finline-functions
  43              	@ -finline-functions-called-once -finline-small-functions -fipa-cp
  44              	@ -fipa-cp-alignment -fipa-icf -fipa-icf-functions -fipa-icf-variables
  45              	@ -fipa-profile -fipa-pure-const -fipa-ra -fipa-reference -fipa-sra
  46              	@ -fira-hoist-pressure -fira-share-save-slots -fira-share-spill-slots
  47              	@ -fisolate-erroneous-paths-dereference -fivopts -fkeep-static-consts
  48              	@ -fleading-underscore -flifetime-dse -flra-remat -flto-odr-type-merging
  49              	@ -fmath-errno -fmerge-constants -fmerge-debug-strings
  50              	@ -fmove-loop-invariants -fomit-frame-pointer -foptimize-sibling-calls
  51              	@ -fpartial-inlining -fpeephole -fpeephole2 -fprefetch-loop-arrays
  52              	@ -freg-struct-return -freorder-blocks -freorder-functions
  53              	@ -frerun-cse-after-loop -fsched-critical-path-heuristic
  54              	@ -fsched-dep-count-heuristic -fsched-group-heuristic -fsched-interblock
  55              	@ -fsched-last-insn-heuristic -fsched-pressure -fsched-rank-heuristic
  56              	@ -fsched-spec -fsched-spec-insn-heuristic -fsched-stalled-insns-dep
  57              	@ -fschedule-insns2 -fsection-anchors -fsemantic-interposition
ARM GAS  /var/folders/lp/0dm50ddn51vc39svyzv_6fp00000gn/T//ccS91u3A.s 			page 2


  58              	@ -fshow-column -fsigned-zeros -fsplit-ivs-in-unroller -fsplit-wide-types
  59              	@ -fssa-phiopt -fstdarg-opt -fstrict-aliasing -fstrict-overflow
  60              	@ -fstrict-volatile-bitfields -fsync-libcalls -fthread-jumps
  61              	@ -ftoplevel-reorder -ftrapping-math -ftree-bit-ccp -ftree-builtin-call-dce
  62              	@ -ftree-ccp -ftree-ch -ftree-coalesce-vars -ftree-copy-prop
  63              	@ -ftree-copyrename -ftree-cselim -ftree-dce -ftree-dominator-opts
  64              	@ -ftree-dse -ftree-forwprop -ftree-fre -ftree-loop-if-convert
  65              	@ -ftree-loop-im -ftree-loop-ivcanon -ftree-loop-optimize
  66              	@ -ftree-parallelize-loops= -ftree-phiprop -ftree-pre -ftree-pta
  67              	@ -ftree-reassoc -ftree-scev-cprop -ftree-sink -ftree-slsr -ftree-sra
  68              	@ -ftree-switch-conversion -ftree-tail-merge -ftree-ter -ftree-vrp
  69              	@ -funit-at-a-time -fvar-tracking -fvar-tracking-assignments -fverbose-asm
  70              	@ -fzero-initialized-in-bss -masm-syntax-unified -mfix-cortex-m3-ldrd
  71              	@ -mlittle-endian -mpic-data-is-text-relative -msched-prolog -mthumb
  72              	@ -munaligned-access -mvectorize-with-neon-quad
  73              	
  74              		.text
  75              	.Ltext0:
  76              		.cfi_sections	.debug_frame
  77              		.align	1
  78              		.global	RCC_DeInit
  79              		.thumb
  80              		.thumb_func
  81              		.type	RCC_DeInit, %function
  82              	RCC_DeInit:
  83              	.LFB29:
  84              		.file 1 "Libraries/STM32F10x_StdPeriph_Driver/src/stm32f10x_rcc.c"
   1:Libraries/STM32F10x_StdPeriph_Driver/src/stm32f10x_rcc.c **** /**
   2:Libraries/STM32F10x_StdPeriph_Driver/src/stm32f10x_rcc.c ****   ******************************************************************************
   3:Libraries/STM32F10x_StdPeriph_Driver/src/stm32f10x_rcc.c ****   * @file    stm32f10x_rcc.c
   4:Libraries/STM32F10x_StdPeriph_Driver/src/stm32f10x_rcc.c ****   * @author  MCD Application Team
   5:Libraries/STM32F10x_StdPeriph_Driver/src/stm32f10x_rcc.c ****   * @version V3.5.0
   6:Libraries/STM32F10x_StdPeriph_Driver/src/stm32f10x_rcc.c ****   * @date    11-March-2011
   7:Libraries/STM32F10x_StdPeriph_Driver/src/stm32f10x_rcc.c ****   * @brief   This file provides all the RCC firmware functions.
   8:Libraries/STM32F10x_StdPeriph_Driver/src/stm32f10x_rcc.c ****   ******************************************************************************
   9:Libraries/STM32F10x_StdPeriph_Driver/src/stm32f10x_rcc.c ****   * @attention
  10:Libraries/STM32F10x_StdPeriph_Driver/src/stm32f10x_rcc.c ****   *
  11:Libraries/STM32F10x_StdPeriph_Driver/src/stm32f10x_rcc.c ****   * THE PRESENT FIRMWARE WHICH IS FOR GUIDANCE ONLY AIMS AT PROVIDING CUSTOMERS
  12:Libraries/STM32F10x_StdPeriph_Driver/src/stm32f10x_rcc.c ****   * WITH CODING INFORMATION REGARDING THEIR PRODUCTS IN ORDER FOR THEM TO SAVE
  13:Libraries/STM32F10x_StdPeriph_Driver/src/stm32f10x_rcc.c ****   * TIME. AS A RESULT, STMICROELECTRONICS SHALL NOT BE HELD LIABLE FOR ANY
  14:Libraries/STM32F10x_StdPeriph_Driver/src/stm32f10x_rcc.c ****   * DIRECT, INDIRECT OR CONSEQUENTIAL DAMAGES WITH RESPECT TO ANY CLAIMS ARISING
  15:Libraries/STM32F10x_StdPeriph_Driver/src/stm32f10x_rcc.c ****   * FROM THE CONTENT OF SUCH FIRMWARE AND/OR THE USE MADE BY CUSTOMERS OF THE
  16:Libraries/STM32F10x_StdPeriph_Driver/src/stm32f10x_rcc.c ****   * CODING INFORMATION CONTAINED HEREIN IN CONNECTION WITH THEIR PRODUCTS.
  17:Libraries/STM32F10x_StdPeriph_Driver/src/stm32f10x_rcc.c ****   *
  18:Libraries/STM32F10x_StdPeriph_Driver/src/stm32f10x_rcc.c ****   * <h2><center>&copy; COPYRIGHT 2011 STMicroelectronics</center></h2>
  19:Libraries/STM32F10x_StdPeriph_Driver/src/stm32f10x_rcc.c ****   ******************************************************************************
  20:Libraries/STM32F10x_StdPeriph_Driver/src/stm32f10x_rcc.c ****   */
  21:Libraries/STM32F10x_StdPeriph_Driver/src/stm32f10x_rcc.c **** 
  22:Libraries/STM32F10x_StdPeriph_Driver/src/stm32f10x_rcc.c **** /* Includes ------------------------------------------------------------------*/
  23:Libraries/STM32F10x_StdPeriph_Driver/src/stm32f10x_rcc.c **** #include "stm32f10x_rcc.h"
  24:Libraries/STM32F10x_StdPeriph_Driver/src/stm32f10x_rcc.c **** 
  25:Libraries/STM32F10x_StdPeriph_Driver/src/stm32f10x_rcc.c **** /** @addtogroup STM32F10x_StdPeriph_Driver
  26:Libraries/STM32F10x_StdPeriph_Driver/src/stm32f10x_rcc.c ****   * @{
  27:Libraries/STM32F10x_StdPeriph_Driver/src/stm32f10x_rcc.c ****   */
  28:Libraries/STM32F10x_StdPeriph_Driver/src/stm32f10x_rcc.c **** 
  29:Libraries/STM32F10x_StdPeriph_Driver/src/stm32f10x_rcc.c **** /** @defgroup RCC 
  30:Libraries/STM32F10x_StdPeriph_Driver/src/stm32f10x_rcc.c ****   * @brief RCC driver modules
ARM GAS  /var/folders/lp/0dm50ddn51vc39svyzv_6fp00000gn/T//ccS91u3A.s 			page 3


  31:Libraries/STM32F10x_StdPeriph_Driver/src/stm32f10x_rcc.c ****   * @{
  32:Libraries/STM32F10x_StdPeriph_Driver/src/stm32f10x_rcc.c ****   */ 
  33:Libraries/STM32F10x_StdPeriph_Driver/src/stm32f10x_rcc.c **** 
  34:Libraries/STM32F10x_StdPeriph_Driver/src/stm32f10x_rcc.c **** /** @defgroup RCC_Private_TypesDefinitions
  35:Libraries/STM32F10x_StdPeriph_Driver/src/stm32f10x_rcc.c ****   * @{
  36:Libraries/STM32F10x_StdPeriph_Driver/src/stm32f10x_rcc.c ****   */
  37:Libraries/STM32F10x_StdPeriph_Driver/src/stm32f10x_rcc.c **** 
  38:Libraries/STM32F10x_StdPeriph_Driver/src/stm32f10x_rcc.c **** /**
  39:Libraries/STM32F10x_StdPeriph_Driver/src/stm32f10x_rcc.c ****   * @}
  40:Libraries/STM32F10x_StdPeriph_Driver/src/stm32f10x_rcc.c ****   */
  41:Libraries/STM32F10x_StdPeriph_Driver/src/stm32f10x_rcc.c **** 
  42:Libraries/STM32F10x_StdPeriph_Driver/src/stm32f10x_rcc.c **** /** @defgroup RCC_Private_Defines
  43:Libraries/STM32F10x_StdPeriph_Driver/src/stm32f10x_rcc.c ****   * @{
  44:Libraries/STM32F10x_StdPeriph_Driver/src/stm32f10x_rcc.c ****   */
  45:Libraries/STM32F10x_StdPeriph_Driver/src/stm32f10x_rcc.c **** 
  46:Libraries/STM32F10x_StdPeriph_Driver/src/stm32f10x_rcc.c **** /* ------------ RCC registers bit address in the alias region ----------- */
  47:Libraries/STM32F10x_StdPeriph_Driver/src/stm32f10x_rcc.c **** #define RCC_OFFSET                (RCC_BASE - PERIPH_BASE)
  48:Libraries/STM32F10x_StdPeriph_Driver/src/stm32f10x_rcc.c **** 
  49:Libraries/STM32F10x_StdPeriph_Driver/src/stm32f10x_rcc.c **** /* --- CR Register ---*/
  50:Libraries/STM32F10x_StdPeriph_Driver/src/stm32f10x_rcc.c **** 
  51:Libraries/STM32F10x_StdPeriph_Driver/src/stm32f10x_rcc.c **** /* Alias word address of HSION bit */
  52:Libraries/STM32F10x_StdPeriph_Driver/src/stm32f10x_rcc.c **** #define CR_OFFSET                 (RCC_OFFSET + 0x00)
  53:Libraries/STM32F10x_StdPeriph_Driver/src/stm32f10x_rcc.c **** #define HSION_BitNumber           0x00
  54:Libraries/STM32F10x_StdPeriph_Driver/src/stm32f10x_rcc.c **** #define CR_HSION_BB               (PERIPH_BB_BASE + (CR_OFFSET * 32) + (HSION_BitNumber * 4))
  55:Libraries/STM32F10x_StdPeriph_Driver/src/stm32f10x_rcc.c **** 
  56:Libraries/STM32F10x_StdPeriph_Driver/src/stm32f10x_rcc.c **** /* Alias word address of PLLON bit */
  57:Libraries/STM32F10x_StdPeriph_Driver/src/stm32f10x_rcc.c **** #define PLLON_BitNumber           0x18
  58:Libraries/STM32F10x_StdPeriph_Driver/src/stm32f10x_rcc.c **** #define CR_PLLON_BB               (PERIPH_BB_BASE + (CR_OFFSET * 32) + (PLLON_BitNumber * 4))
  59:Libraries/STM32F10x_StdPeriph_Driver/src/stm32f10x_rcc.c **** 
  60:Libraries/STM32F10x_StdPeriph_Driver/src/stm32f10x_rcc.c **** #ifdef STM32F10X_CL
  61:Libraries/STM32F10x_StdPeriph_Driver/src/stm32f10x_rcc.c ****  /* Alias word address of PLL2ON bit */
  62:Libraries/STM32F10x_StdPeriph_Driver/src/stm32f10x_rcc.c ****  #define PLL2ON_BitNumber          0x1A
  63:Libraries/STM32F10x_StdPeriph_Driver/src/stm32f10x_rcc.c ****  #define CR_PLL2ON_BB              (PERIPH_BB_BASE + (CR_OFFSET * 32) + (PLL2ON_BitNumber * 4))
  64:Libraries/STM32F10x_StdPeriph_Driver/src/stm32f10x_rcc.c **** 
  65:Libraries/STM32F10x_StdPeriph_Driver/src/stm32f10x_rcc.c ****  /* Alias word address of PLL3ON bit */
  66:Libraries/STM32F10x_StdPeriph_Driver/src/stm32f10x_rcc.c ****  #define PLL3ON_BitNumber          0x1C
  67:Libraries/STM32F10x_StdPeriph_Driver/src/stm32f10x_rcc.c ****  #define CR_PLL3ON_BB              (PERIPH_BB_BASE + (CR_OFFSET * 32) + (PLL3ON_BitNumber * 4))
  68:Libraries/STM32F10x_StdPeriph_Driver/src/stm32f10x_rcc.c **** #endif /* STM32F10X_CL */ 
  69:Libraries/STM32F10x_StdPeriph_Driver/src/stm32f10x_rcc.c **** 
  70:Libraries/STM32F10x_StdPeriph_Driver/src/stm32f10x_rcc.c **** /* Alias word address of CSSON bit */
  71:Libraries/STM32F10x_StdPeriph_Driver/src/stm32f10x_rcc.c **** #define CSSON_BitNumber           0x13
  72:Libraries/STM32F10x_StdPeriph_Driver/src/stm32f10x_rcc.c **** #define CR_CSSON_BB               (PERIPH_BB_BASE + (CR_OFFSET * 32) + (CSSON_BitNumber * 4))
  73:Libraries/STM32F10x_StdPeriph_Driver/src/stm32f10x_rcc.c **** 
  74:Libraries/STM32F10x_StdPeriph_Driver/src/stm32f10x_rcc.c **** /* --- CFGR Register ---*/
  75:Libraries/STM32F10x_StdPeriph_Driver/src/stm32f10x_rcc.c **** 
  76:Libraries/STM32F10x_StdPeriph_Driver/src/stm32f10x_rcc.c **** /* Alias word address of USBPRE bit */
  77:Libraries/STM32F10x_StdPeriph_Driver/src/stm32f10x_rcc.c **** #define CFGR_OFFSET               (RCC_OFFSET + 0x04)
  78:Libraries/STM32F10x_StdPeriph_Driver/src/stm32f10x_rcc.c **** 
  79:Libraries/STM32F10x_StdPeriph_Driver/src/stm32f10x_rcc.c **** #ifndef STM32F10X_CL
  80:Libraries/STM32F10x_StdPeriph_Driver/src/stm32f10x_rcc.c ****  #define USBPRE_BitNumber          0x16
  81:Libraries/STM32F10x_StdPeriph_Driver/src/stm32f10x_rcc.c ****  #define CFGR_USBPRE_BB            (PERIPH_BB_BASE + (CFGR_OFFSET * 32) + (USBPRE_BitNumber * 4))
  82:Libraries/STM32F10x_StdPeriph_Driver/src/stm32f10x_rcc.c **** #else
  83:Libraries/STM32F10x_StdPeriph_Driver/src/stm32f10x_rcc.c ****  #define OTGFSPRE_BitNumber        0x16
  84:Libraries/STM32F10x_StdPeriph_Driver/src/stm32f10x_rcc.c ****  #define CFGR_OTGFSPRE_BB          (PERIPH_BB_BASE + (CFGR_OFFSET * 32) + (OTGFSPRE_BitNumber * 4))
  85:Libraries/STM32F10x_StdPeriph_Driver/src/stm32f10x_rcc.c **** #endif /* STM32F10X_CL */ 
  86:Libraries/STM32F10x_StdPeriph_Driver/src/stm32f10x_rcc.c **** 
  87:Libraries/STM32F10x_StdPeriph_Driver/src/stm32f10x_rcc.c **** /* --- BDCR Register ---*/
ARM GAS  /var/folders/lp/0dm50ddn51vc39svyzv_6fp00000gn/T//ccS91u3A.s 			page 4


  88:Libraries/STM32F10x_StdPeriph_Driver/src/stm32f10x_rcc.c **** 
  89:Libraries/STM32F10x_StdPeriph_Driver/src/stm32f10x_rcc.c **** /* Alias word address of RTCEN bit */
  90:Libraries/STM32F10x_StdPeriph_Driver/src/stm32f10x_rcc.c **** #define BDCR_OFFSET               (RCC_OFFSET + 0x20)
  91:Libraries/STM32F10x_StdPeriph_Driver/src/stm32f10x_rcc.c **** #define RTCEN_BitNumber           0x0F
  92:Libraries/STM32F10x_StdPeriph_Driver/src/stm32f10x_rcc.c **** #define BDCR_RTCEN_BB             (PERIPH_BB_BASE + (BDCR_OFFSET * 32) + (RTCEN_BitNumber * 4))
  93:Libraries/STM32F10x_StdPeriph_Driver/src/stm32f10x_rcc.c **** 
  94:Libraries/STM32F10x_StdPeriph_Driver/src/stm32f10x_rcc.c **** /* Alias word address of BDRST bit */
  95:Libraries/STM32F10x_StdPeriph_Driver/src/stm32f10x_rcc.c **** #define BDRST_BitNumber           0x10
  96:Libraries/STM32F10x_StdPeriph_Driver/src/stm32f10x_rcc.c **** #define BDCR_BDRST_BB             (PERIPH_BB_BASE + (BDCR_OFFSET * 32) + (BDRST_BitNumber * 4))
  97:Libraries/STM32F10x_StdPeriph_Driver/src/stm32f10x_rcc.c **** 
  98:Libraries/STM32F10x_StdPeriph_Driver/src/stm32f10x_rcc.c **** /* --- CSR Register ---*/
  99:Libraries/STM32F10x_StdPeriph_Driver/src/stm32f10x_rcc.c **** 
 100:Libraries/STM32F10x_StdPeriph_Driver/src/stm32f10x_rcc.c **** /* Alias word address of LSION bit */
 101:Libraries/STM32F10x_StdPeriph_Driver/src/stm32f10x_rcc.c **** #define CSR_OFFSET                (RCC_OFFSET + 0x24)
 102:Libraries/STM32F10x_StdPeriph_Driver/src/stm32f10x_rcc.c **** #define LSION_BitNumber           0x00
 103:Libraries/STM32F10x_StdPeriph_Driver/src/stm32f10x_rcc.c **** #define CSR_LSION_BB              (PERIPH_BB_BASE + (CSR_OFFSET * 32) + (LSION_BitNumber * 4))
 104:Libraries/STM32F10x_StdPeriph_Driver/src/stm32f10x_rcc.c **** 
 105:Libraries/STM32F10x_StdPeriph_Driver/src/stm32f10x_rcc.c **** #ifdef STM32F10X_CL
 106:Libraries/STM32F10x_StdPeriph_Driver/src/stm32f10x_rcc.c **** /* --- CFGR2 Register ---*/
 107:Libraries/STM32F10x_StdPeriph_Driver/src/stm32f10x_rcc.c **** 
 108:Libraries/STM32F10x_StdPeriph_Driver/src/stm32f10x_rcc.c ****  /* Alias word address of I2S2SRC bit */
 109:Libraries/STM32F10x_StdPeriph_Driver/src/stm32f10x_rcc.c ****  #define CFGR2_OFFSET              (RCC_OFFSET + 0x2C)
 110:Libraries/STM32F10x_StdPeriph_Driver/src/stm32f10x_rcc.c ****  #define I2S2SRC_BitNumber         0x11
 111:Libraries/STM32F10x_StdPeriph_Driver/src/stm32f10x_rcc.c ****  #define CFGR2_I2S2SRC_BB          (PERIPH_BB_BASE + (CFGR2_OFFSET * 32) + (I2S2SRC_BitNumber * 4))
 112:Libraries/STM32F10x_StdPeriph_Driver/src/stm32f10x_rcc.c **** 
 113:Libraries/STM32F10x_StdPeriph_Driver/src/stm32f10x_rcc.c ****  /* Alias word address of I2S3SRC bit */
 114:Libraries/STM32F10x_StdPeriph_Driver/src/stm32f10x_rcc.c ****  #define I2S3SRC_BitNumber         0x12
 115:Libraries/STM32F10x_StdPeriph_Driver/src/stm32f10x_rcc.c ****  #define CFGR2_I2S3SRC_BB          (PERIPH_BB_BASE + (CFGR2_OFFSET * 32) + (I2S3SRC_BitNumber * 4))
 116:Libraries/STM32F10x_StdPeriph_Driver/src/stm32f10x_rcc.c **** #endif /* STM32F10X_CL */
 117:Libraries/STM32F10x_StdPeriph_Driver/src/stm32f10x_rcc.c **** 
 118:Libraries/STM32F10x_StdPeriph_Driver/src/stm32f10x_rcc.c **** /* ---------------------- RCC registers bit mask ------------------------ */
 119:Libraries/STM32F10x_StdPeriph_Driver/src/stm32f10x_rcc.c **** 
 120:Libraries/STM32F10x_StdPeriph_Driver/src/stm32f10x_rcc.c **** /* CR register bit mask */
 121:Libraries/STM32F10x_StdPeriph_Driver/src/stm32f10x_rcc.c **** #define CR_HSEBYP_Reset           ((uint32_t)0xFFFBFFFF)
 122:Libraries/STM32F10x_StdPeriph_Driver/src/stm32f10x_rcc.c **** #define CR_HSEBYP_Set             ((uint32_t)0x00040000)
 123:Libraries/STM32F10x_StdPeriph_Driver/src/stm32f10x_rcc.c **** #define CR_HSEON_Reset            ((uint32_t)0xFFFEFFFF)
 124:Libraries/STM32F10x_StdPeriph_Driver/src/stm32f10x_rcc.c **** #define CR_HSEON_Set              ((uint32_t)0x00010000)
 125:Libraries/STM32F10x_StdPeriph_Driver/src/stm32f10x_rcc.c **** #define CR_HSITRIM_Mask           ((uint32_t)0xFFFFFF07)
 126:Libraries/STM32F10x_StdPeriph_Driver/src/stm32f10x_rcc.c **** 
 127:Libraries/STM32F10x_StdPeriph_Driver/src/stm32f10x_rcc.c **** /* CFGR register bit mask */
 128:Libraries/STM32F10x_StdPeriph_Driver/src/stm32f10x_rcc.c **** #if defined (STM32F10X_LD_VL) || defined (STM32F10X_MD_VL) || defined (STM32F10X_HD_VL) || defined 
 129:Libraries/STM32F10x_StdPeriph_Driver/src/stm32f10x_rcc.c ****  #define CFGR_PLL_Mask            ((uint32_t)0xFFC2FFFF)
 130:Libraries/STM32F10x_StdPeriph_Driver/src/stm32f10x_rcc.c **** #else
 131:Libraries/STM32F10x_StdPeriph_Driver/src/stm32f10x_rcc.c ****  #define CFGR_PLL_Mask            ((uint32_t)0xFFC0FFFF)
 132:Libraries/STM32F10x_StdPeriph_Driver/src/stm32f10x_rcc.c **** #endif /* STM32F10X_CL */ 
 133:Libraries/STM32F10x_StdPeriph_Driver/src/stm32f10x_rcc.c **** 
 134:Libraries/STM32F10x_StdPeriph_Driver/src/stm32f10x_rcc.c **** #define CFGR_PLLMull_Mask         ((uint32_t)0x003C0000)
 135:Libraries/STM32F10x_StdPeriph_Driver/src/stm32f10x_rcc.c **** #define CFGR_PLLSRC_Mask          ((uint32_t)0x00010000)
 136:Libraries/STM32F10x_StdPeriph_Driver/src/stm32f10x_rcc.c **** #define CFGR_PLLXTPRE_Mask        ((uint32_t)0x00020000)
 137:Libraries/STM32F10x_StdPeriph_Driver/src/stm32f10x_rcc.c **** #define CFGR_SWS_Mask             ((uint32_t)0x0000000C)
 138:Libraries/STM32F10x_StdPeriph_Driver/src/stm32f10x_rcc.c **** #define CFGR_SW_Mask              ((uint32_t)0xFFFFFFFC)
 139:Libraries/STM32F10x_StdPeriph_Driver/src/stm32f10x_rcc.c **** #define CFGR_HPRE_Reset_Mask      ((uint32_t)0xFFFFFF0F)
 140:Libraries/STM32F10x_StdPeriph_Driver/src/stm32f10x_rcc.c **** #define CFGR_HPRE_Set_Mask        ((uint32_t)0x000000F0)
 141:Libraries/STM32F10x_StdPeriph_Driver/src/stm32f10x_rcc.c **** #define CFGR_PPRE1_Reset_Mask     ((uint32_t)0xFFFFF8FF)
 142:Libraries/STM32F10x_StdPeriph_Driver/src/stm32f10x_rcc.c **** #define CFGR_PPRE1_Set_Mask       ((uint32_t)0x00000700)
 143:Libraries/STM32F10x_StdPeriph_Driver/src/stm32f10x_rcc.c **** #define CFGR_PPRE2_Reset_Mask     ((uint32_t)0xFFFFC7FF)
 144:Libraries/STM32F10x_StdPeriph_Driver/src/stm32f10x_rcc.c **** #define CFGR_PPRE2_Set_Mask       ((uint32_t)0x00003800)
ARM GAS  /var/folders/lp/0dm50ddn51vc39svyzv_6fp00000gn/T//ccS91u3A.s 			page 5


 145:Libraries/STM32F10x_StdPeriph_Driver/src/stm32f10x_rcc.c **** #define CFGR_ADCPRE_Reset_Mask    ((uint32_t)0xFFFF3FFF)
 146:Libraries/STM32F10x_StdPeriph_Driver/src/stm32f10x_rcc.c **** #define CFGR_ADCPRE_Set_Mask      ((uint32_t)0x0000C000)
 147:Libraries/STM32F10x_StdPeriph_Driver/src/stm32f10x_rcc.c **** 
 148:Libraries/STM32F10x_StdPeriph_Driver/src/stm32f10x_rcc.c **** /* CSR register bit mask */
 149:Libraries/STM32F10x_StdPeriph_Driver/src/stm32f10x_rcc.c **** #define CSR_RMVF_Set              ((uint32_t)0x01000000)
 150:Libraries/STM32F10x_StdPeriph_Driver/src/stm32f10x_rcc.c **** 
 151:Libraries/STM32F10x_StdPeriph_Driver/src/stm32f10x_rcc.c **** #if defined (STM32F10X_LD_VL) || defined (STM32F10X_MD_VL) || defined (STM32F10X_HD_VL) || defined 
 152:Libraries/STM32F10x_StdPeriph_Driver/src/stm32f10x_rcc.c **** /* CFGR2 register bit mask */
 153:Libraries/STM32F10x_StdPeriph_Driver/src/stm32f10x_rcc.c ****  #define CFGR2_PREDIV1SRC         ((uint32_t)0x00010000)
 154:Libraries/STM32F10x_StdPeriph_Driver/src/stm32f10x_rcc.c ****  #define CFGR2_PREDIV1            ((uint32_t)0x0000000F)
 155:Libraries/STM32F10x_StdPeriph_Driver/src/stm32f10x_rcc.c **** #endif
 156:Libraries/STM32F10x_StdPeriph_Driver/src/stm32f10x_rcc.c **** #ifdef STM32F10X_CL
 157:Libraries/STM32F10x_StdPeriph_Driver/src/stm32f10x_rcc.c ****  #define CFGR2_PREDIV2            ((uint32_t)0x000000F0)
 158:Libraries/STM32F10x_StdPeriph_Driver/src/stm32f10x_rcc.c ****  #define CFGR2_PLL2MUL            ((uint32_t)0x00000F00)
 159:Libraries/STM32F10x_StdPeriph_Driver/src/stm32f10x_rcc.c ****  #define CFGR2_PLL3MUL            ((uint32_t)0x0000F000)
 160:Libraries/STM32F10x_StdPeriph_Driver/src/stm32f10x_rcc.c **** #endif /* STM32F10X_CL */ 
 161:Libraries/STM32F10x_StdPeriph_Driver/src/stm32f10x_rcc.c **** 
 162:Libraries/STM32F10x_StdPeriph_Driver/src/stm32f10x_rcc.c **** /* RCC Flag Mask */
 163:Libraries/STM32F10x_StdPeriph_Driver/src/stm32f10x_rcc.c **** #define FLAG_Mask                 ((uint8_t)0x1F)
 164:Libraries/STM32F10x_StdPeriph_Driver/src/stm32f10x_rcc.c **** 
 165:Libraries/STM32F10x_StdPeriph_Driver/src/stm32f10x_rcc.c **** /* CIR register byte 2 (Bits[15:8]) base address */
 166:Libraries/STM32F10x_StdPeriph_Driver/src/stm32f10x_rcc.c **** #define CIR_BYTE2_ADDRESS         ((uint32_t)0x40021009)
 167:Libraries/STM32F10x_StdPeriph_Driver/src/stm32f10x_rcc.c **** 
 168:Libraries/STM32F10x_StdPeriph_Driver/src/stm32f10x_rcc.c **** /* CIR register byte 3 (Bits[23:16]) base address */
 169:Libraries/STM32F10x_StdPeriph_Driver/src/stm32f10x_rcc.c **** #define CIR_BYTE3_ADDRESS         ((uint32_t)0x4002100A)
 170:Libraries/STM32F10x_StdPeriph_Driver/src/stm32f10x_rcc.c **** 
 171:Libraries/STM32F10x_StdPeriph_Driver/src/stm32f10x_rcc.c **** /* CFGR register byte 4 (Bits[31:24]) base address */
 172:Libraries/STM32F10x_StdPeriph_Driver/src/stm32f10x_rcc.c **** #define CFGR_BYTE4_ADDRESS        ((uint32_t)0x40021007)
 173:Libraries/STM32F10x_StdPeriph_Driver/src/stm32f10x_rcc.c **** 
 174:Libraries/STM32F10x_StdPeriph_Driver/src/stm32f10x_rcc.c **** /* BDCR register base address */
 175:Libraries/STM32F10x_StdPeriph_Driver/src/stm32f10x_rcc.c **** #define BDCR_ADDRESS              (PERIPH_BASE + BDCR_OFFSET)
 176:Libraries/STM32F10x_StdPeriph_Driver/src/stm32f10x_rcc.c **** 
 177:Libraries/STM32F10x_StdPeriph_Driver/src/stm32f10x_rcc.c **** /**
 178:Libraries/STM32F10x_StdPeriph_Driver/src/stm32f10x_rcc.c ****   * @}
 179:Libraries/STM32F10x_StdPeriph_Driver/src/stm32f10x_rcc.c ****   */ 
 180:Libraries/STM32F10x_StdPeriph_Driver/src/stm32f10x_rcc.c **** 
 181:Libraries/STM32F10x_StdPeriph_Driver/src/stm32f10x_rcc.c **** /** @defgroup RCC_Private_Macros
 182:Libraries/STM32F10x_StdPeriph_Driver/src/stm32f10x_rcc.c ****   * @{
 183:Libraries/STM32F10x_StdPeriph_Driver/src/stm32f10x_rcc.c ****   */ 
 184:Libraries/STM32F10x_StdPeriph_Driver/src/stm32f10x_rcc.c **** 
 185:Libraries/STM32F10x_StdPeriph_Driver/src/stm32f10x_rcc.c **** /**
 186:Libraries/STM32F10x_StdPeriph_Driver/src/stm32f10x_rcc.c ****   * @}
 187:Libraries/STM32F10x_StdPeriph_Driver/src/stm32f10x_rcc.c ****   */ 
 188:Libraries/STM32F10x_StdPeriph_Driver/src/stm32f10x_rcc.c **** 
 189:Libraries/STM32F10x_StdPeriph_Driver/src/stm32f10x_rcc.c **** /** @defgroup RCC_Private_Variables
 190:Libraries/STM32F10x_StdPeriph_Driver/src/stm32f10x_rcc.c ****   * @{
 191:Libraries/STM32F10x_StdPeriph_Driver/src/stm32f10x_rcc.c ****   */ 
 192:Libraries/STM32F10x_StdPeriph_Driver/src/stm32f10x_rcc.c **** 
 193:Libraries/STM32F10x_StdPeriph_Driver/src/stm32f10x_rcc.c **** static __I uint8_t APBAHBPrescTable[16] = {0, 0, 0, 0, 1, 2, 3, 4, 1, 2, 3, 4, 6, 7, 8, 9};
 194:Libraries/STM32F10x_StdPeriph_Driver/src/stm32f10x_rcc.c **** static __I uint8_t ADCPrescTable[4] = {2, 4, 6, 8};
 195:Libraries/STM32F10x_StdPeriph_Driver/src/stm32f10x_rcc.c **** 
 196:Libraries/STM32F10x_StdPeriph_Driver/src/stm32f10x_rcc.c **** /**
 197:Libraries/STM32F10x_StdPeriph_Driver/src/stm32f10x_rcc.c ****   * @}
 198:Libraries/STM32F10x_StdPeriph_Driver/src/stm32f10x_rcc.c ****   */
 199:Libraries/STM32F10x_StdPeriph_Driver/src/stm32f10x_rcc.c **** 
 200:Libraries/STM32F10x_StdPeriph_Driver/src/stm32f10x_rcc.c **** /** @defgroup RCC_Private_FunctionPrototypes
 201:Libraries/STM32F10x_StdPeriph_Driver/src/stm32f10x_rcc.c ****   * @{
ARM GAS  /var/folders/lp/0dm50ddn51vc39svyzv_6fp00000gn/T//ccS91u3A.s 			page 6


 202:Libraries/STM32F10x_StdPeriph_Driver/src/stm32f10x_rcc.c ****   */
 203:Libraries/STM32F10x_StdPeriph_Driver/src/stm32f10x_rcc.c **** 
 204:Libraries/STM32F10x_StdPeriph_Driver/src/stm32f10x_rcc.c **** /**
 205:Libraries/STM32F10x_StdPeriph_Driver/src/stm32f10x_rcc.c ****   * @}
 206:Libraries/STM32F10x_StdPeriph_Driver/src/stm32f10x_rcc.c ****   */
 207:Libraries/STM32F10x_StdPeriph_Driver/src/stm32f10x_rcc.c **** 
 208:Libraries/STM32F10x_StdPeriph_Driver/src/stm32f10x_rcc.c **** /** @defgroup RCC_Private_Functions
 209:Libraries/STM32F10x_StdPeriph_Driver/src/stm32f10x_rcc.c ****   * @{
 210:Libraries/STM32F10x_StdPeriph_Driver/src/stm32f10x_rcc.c ****   */
 211:Libraries/STM32F10x_StdPeriph_Driver/src/stm32f10x_rcc.c **** 
 212:Libraries/STM32F10x_StdPeriph_Driver/src/stm32f10x_rcc.c **** /**
 213:Libraries/STM32F10x_StdPeriph_Driver/src/stm32f10x_rcc.c ****   * @brief  Resets the RCC clock configuration to the default reset state.
 214:Libraries/STM32F10x_StdPeriph_Driver/src/stm32f10x_rcc.c ****   * @param  None
 215:Libraries/STM32F10x_StdPeriph_Driver/src/stm32f10x_rcc.c ****   * @retval None
 216:Libraries/STM32F10x_StdPeriph_Driver/src/stm32f10x_rcc.c ****   */
 217:Libraries/STM32F10x_StdPeriph_Driver/src/stm32f10x_rcc.c **** void RCC_DeInit(void)
 218:Libraries/STM32F10x_StdPeriph_Driver/src/stm32f10x_rcc.c **** {
  85              		.loc 1 218 0
  86              		.cfi_startproc
  87              		@ args = 0, pretend = 0, frame = 0
  88              		@ frame_needed = 0, uses_anonymous_args = 0
  89              		@ link register save eliminated.
 219:Libraries/STM32F10x_StdPeriph_Driver/src/stm32f10x_rcc.c ****   /* Set HSION bit */
 220:Libraries/STM32F10x_StdPeriph_Driver/src/stm32f10x_rcc.c ****   RCC->CR |= (uint32_t)0x00000001;
  90              		.loc 1 220 0
  91 0000 0E4B     		ldr	r3, .L2	@ tmp120,
  92 0002 1A68     		ldr	r2, [r3]	@ D.6940, MEM[(struct RCC_TypeDef *)1073876992B].CR
  93 0004 42F00102 		orr	r2, r2, #1	@ D.6940, D.6940,
  94 0008 1A60     		str	r2, [r3]	@ D.6940, MEM[(struct RCC_TypeDef *)1073876992B].CR
 221:Libraries/STM32F10x_StdPeriph_Driver/src/stm32f10x_rcc.c **** 
 222:Libraries/STM32F10x_StdPeriph_Driver/src/stm32f10x_rcc.c ****   /* Reset SW, HPRE, PPRE1, PPRE2, ADCPRE and MCO bits */
 223:Libraries/STM32F10x_StdPeriph_Driver/src/stm32f10x_rcc.c **** #ifndef STM32F10X_CL
 224:Libraries/STM32F10x_StdPeriph_Driver/src/stm32f10x_rcc.c ****   RCC->CFGR &= (uint32_t)0xF8FF0000;
  95              		.loc 1 224 0
  96 000a 5968     		ldr	r1, [r3, #4]	@ D.6940, MEM[(struct RCC_TypeDef *)1073876992B].CFGR
  97 000c 0C4A     		ldr	r2, .L2+4	@ D.6940,
  98 000e 0A40     		ands	r2, r2, r1	@, D.6940, D.6940, D.6940
  99 0010 5A60     		str	r2, [r3, #4]	@ D.6940, MEM[(struct RCC_TypeDef *)1073876992B].CFGR
 225:Libraries/STM32F10x_StdPeriph_Driver/src/stm32f10x_rcc.c **** #else
 226:Libraries/STM32F10x_StdPeriph_Driver/src/stm32f10x_rcc.c ****   RCC->CFGR &= (uint32_t)0xF0FF0000;
 227:Libraries/STM32F10x_StdPeriph_Driver/src/stm32f10x_rcc.c **** #endif /* STM32F10X_CL */   
 228:Libraries/STM32F10x_StdPeriph_Driver/src/stm32f10x_rcc.c ****   
 229:Libraries/STM32F10x_StdPeriph_Driver/src/stm32f10x_rcc.c ****   /* Reset HSEON, CSSON and PLLON bits */
 230:Libraries/STM32F10x_StdPeriph_Driver/src/stm32f10x_rcc.c ****   RCC->CR &= (uint32_t)0xFEF6FFFF;
 100              		.loc 1 230 0
 101 0012 1A68     		ldr	r2, [r3]	@ D.6940, MEM[(struct RCC_TypeDef *)1073876992B].CR
 102 0014 22F08472 		bic	r2, r2, #17301504	@ D.6940, D.6940,
 103 0018 22F48032 		bic	r2, r2, #65536	@ D.6940, D.6940,
 104 001c 1A60     		str	r2, [r3]	@ D.6940, MEM[(struct RCC_TypeDef *)1073876992B].CR
 231:Libraries/STM32F10x_StdPeriph_Driver/src/stm32f10x_rcc.c **** 
 232:Libraries/STM32F10x_StdPeriph_Driver/src/stm32f10x_rcc.c ****   /* Reset HSEBYP bit */
 233:Libraries/STM32F10x_StdPeriph_Driver/src/stm32f10x_rcc.c ****   RCC->CR &= (uint32_t)0xFFFBFFFF;
 105              		.loc 1 233 0
 106 001e 1A68     		ldr	r2, [r3]	@ D.6940, MEM[(struct RCC_TypeDef *)1073876992B].CR
 107 0020 22F48022 		bic	r2, r2, #262144	@ D.6940, D.6940,
 108 0024 1A60     		str	r2, [r3]	@ D.6940, MEM[(struct RCC_TypeDef *)1073876992B].CR
 234:Libraries/STM32F10x_StdPeriph_Driver/src/stm32f10x_rcc.c **** 
ARM GAS  /var/folders/lp/0dm50ddn51vc39svyzv_6fp00000gn/T//ccS91u3A.s 			page 7


 235:Libraries/STM32F10x_StdPeriph_Driver/src/stm32f10x_rcc.c ****   /* Reset PLLSRC, PLLXTPRE, PLLMUL and USBPRE/OTGFSPRE bits */
 236:Libraries/STM32F10x_StdPeriph_Driver/src/stm32f10x_rcc.c ****   RCC->CFGR &= (uint32_t)0xFF80FFFF;
 109              		.loc 1 236 0
 110 0026 5A68     		ldr	r2, [r3, #4]	@ D.6940, MEM[(struct RCC_TypeDef *)1073876992B].CFGR
 111 0028 22F4FE02 		bic	r2, r2, #8323072	@ D.6940, D.6940,
 112 002c 5A60     		str	r2, [r3, #4]	@ D.6940, MEM[(struct RCC_TypeDef *)1073876992B].CFGR
 237:Libraries/STM32F10x_StdPeriph_Driver/src/stm32f10x_rcc.c **** 
 238:Libraries/STM32F10x_StdPeriph_Driver/src/stm32f10x_rcc.c **** #ifdef STM32F10X_CL
 239:Libraries/STM32F10x_StdPeriph_Driver/src/stm32f10x_rcc.c ****   /* Reset PLL2ON and PLL3ON bits */
 240:Libraries/STM32F10x_StdPeriph_Driver/src/stm32f10x_rcc.c ****   RCC->CR &= (uint32_t)0xEBFFFFFF;
 241:Libraries/STM32F10x_StdPeriph_Driver/src/stm32f10x_rcc.c **** 
 242:Libraries/STM32F10x_StdPeriph_Driver/src/stm32f10x_rcc.c ****   /* Disable all interrupts and clear pending bits  */
 243:Libraries/STM32F10x_StdPeriph_Driver/src/stm32f10x_rcc.c ****   RCC->CIR = 0x00FF0000;
 244:Libraries/STM32F10x_StdPeriph_Driver/src/stm32f10x_rcc.c **** 
 245:Libraries/STM32F10x_StdPeriph_Driver/src/stm32f10x_rcc.c ****   /* Reset CFGR2 register */
 246:Libraries/STM32F10x_StdPeriph_Driver/src/stm32f10x_rcc.c ****   RCC->CFGR2 = 0x00000000;
 247:Libraries/STM32F10x_StdPeriph_Driver/src/stm32f10x_rcc.c **** #elif defined (STM32F10X_LD_VL) || defined (STM32F10X_MD_VL) || defined (STM32F10X_HD_VL)
 248:Libraries/STM32F10x_StdPeriph_Driver/src/stm32f10x_rcc.c ****   /* Disable all interrupts and clear pending bits  */
 249:Libraries/STM32F10x_StdPeriph_Driver/src/stm32f10x_rcc.c ****   RCC->CIR = 0x009F0000;
 113              		.loc 1 249 0
 114 002e 4FF41F02 		mov	r2, #10420224	@ tmp133,
 115 0032 9A60     		str	r2, [r3, #8]	@ tmp133, MEM[(struct RCC_TypeDef *)1073876992B].CIR
 250:Libraries/STM32F10x_StdPeriph_Driver/src/stm32f10x_rcc.c **** 
 251:Libraries/STM32F10x_StdPeriph_Driver/src/stm32f10x_rcc.c ****   /* Reset CFGR2 register */
 252:Libraries/STM32F10x_StdPeriph_Driver/src/stm32f10x_rcc.c ****   RCC->CFGR2 = 0x00000000;      
 116              		.loc 1 252 0
 117 0034 0022     		movs	r2, #0	@ tmp135,
 118 0036 DA62     		str	r2, [r3, #44]	@ tmp135, MEM[(struct RCC_TypeDef *)1073876992B].CFGR2
 119 0038 7047     		bx	lr	@
 120              	.L3:
 121 003a 00BF     		.align	2
 122              	.L2:
 123 003c 00100240 		.word	1073876992
 124 0040 0000FFF8 		.word	-117506048
 125              		.cfi_endproc
 126              	.LFE29:
 127              		.size	RCC_DeInit, .-RCC_DeInit
 128              		.align	1
 129              		.global	RCC_HSEConfig
 130              		.thumb
 131              		.thumb_func
 132              		.type	RCC_HSEConfig, %function
 133              	RCC_HSEConfig:
 134              	.LFB30:
 253:Libraries/STM32F10x_StdPeriph_Driver/src/stm32f10x_rcc.c **** #else
 254:Libraries/STM32F10x_StdPeriph_Driver/src/stm32f10x_rcc.c ****   /* Disable all interrupts and clear pending bits  */
 255:Libraries/STM32F10x_StdPeriph_Driver/src/stm32f10x_rcc.c ****   RCC->CIR = 0x009F0000;
 256:Libraries/STM32F10x_StdPeriph_Driver/src/stm32f10x_rcc.c **** #endif /* STM32F10X_CL */
 257:Libraries/STM32F10x_StdPeriph_Driver/src/stm32f10x_rcc.c **** 
 258:Libraries/STM32F10x_StdPeriph_Driver/src/stm32f10x_rcc.c **** }
 259:Libraries/STM32F10x_StdPeriph_Driver/src/stm32f10x_rcc.c **** 
 260:Libraries/STM32F10x_StdPeriph_Driver/src/stm32f10x_rcc.c **** /**
 261:Libraries/STM32F10x_StdPeriph_Driver/src/stm32f10x_rcc.c ****   * @brief  Configures the External High Speed oscillator (HSE).
 262:Libraries/STM32F10x_StdPeriph_Driver/src/stm32f10x_rcc.c ****   * @note   HSE can not be stopped if it is used directly or through the PLL as system clock.
 263:Libraries/STM32F10x_StdPeriph_Driver/src/stm32f10x_rcc.c ****   * @param  RCC_HSE: specifies the new state of the HSE.
 264:Libraries/STM32F10x_StdPeriph_Driver/src/stm32f10x_rcc.c ****   *   This parameter can be one of the following values:
 265:Libraries/STM32F10x_StdPeriph_Driver/src/stm32f10x_rcc.c ****   *     @arg RCC_HSE_OFF: HSE oscillator OFF
ARM GAS  /var/folders/lp/0dm50ddn51vc39svyzv_6fp00000gn/T//ccS91u3A.s 			page 8


 266:Libraries/STM32F10x_StdPeriph_Driver/src/stm32f10x_rcc.c ****   *     @arg RCC_HSE_ON: HSE oscillator ON
 267:Libraries/STM32F10x_StdPeriph_Driver/src/stm32f10x_rcc.c ****   *     @arg RCC_HSE_Bypass: HSE oscillator bypassed with external clock
 268:Libraries/STM32F10x_StdPeriph_Driver/src/stm32f10x_rcc.c ****   * @retval None
 269:Libraries/STM32F10x_StdPeriph_Driver/src/stm32f10x_rcc.c ****   */
 270:Libraries/STM32F10x_StdPeriph_Driver/src/stm32f10x_rcc.c **** void RCC_HSEConfig(uint32_t RCC_HSE)
 271:Libraries/STM32F10x_StdPeriph_Driver/src/stm32f10x_rcc.c **** {
 135              		.loc 1 271 0
 136              		.cfi_startproc
 137              		@ args = 0, pretend = 0, frame = 0
 138              		@ frame_needed = 0, uses_anonymous_args = 0
 139              		@ link register save eliminated.
 140              	.LVL0:
 272:Libraries/STM32F10x_StdPeriph_Driver/src/stm32f10x_rcc.c ****   /* Check the parameters */
 273:Libraries/STM32F10x_StdPeriph_Driver/src/stm32f10x_rcc.c ****   assert_param(IS_RCC_HSE(RCC_HSE));
 274:Libraries/STM32F10x_StdPeriph_Driver/src/stm32f10x_rcc.c ****   /* Reset HSEON and HSEBYP bits before configuring the HSE ------------------*/
 275:Libraries/STM32F10x_StdPeriph_Driver/src/stm32f10x_rcc.c ****   /* Reset HSEON bit */
 276:Libraries/STM32F10x_StdPeriph_Driver/src/stm32f10x_rcc.c ****   RCC->CR &= CR_HSEON_Reset;
 141              		.loc 1 276 0
 142 0044 0C4B     		ldr	r3, .L10	@ tmp119,
 277:Libraries/STM32F10x_StdPeriph_Driver/src/stm32f10x_rcc.c ****   /* Reset HSEBYP bit */
 278:Libraries/STM32F10x_StdPeriph_Driver/src/stm32f10x_rcc.c ****   RCC->CR &= CR_HSEBYP_Reset;
 279:Libraries/STM32F10x_StdPeriph_Driver/src/stm32f10x_rcc.c ****   /* Configure HSE (RCC_HSE_OFF is already covered by the code section above) */
 280:Libraries/STM32F10x_StdPeriph_Driver/src/stm32f10x_rcc.c ****   switch(RCC_HSE)
 143              		.loc 1 280 0
 144 0046 B0F5803F 		cmp	r0, #65536	@ RCC_HSE,
 276:Libraries/STM32F10x_StdPeriph_Driver/src/stm32f10x_rcc.c ****   /* Reset HSEBYP bit */
 145              		.loc 1 276 0
 146 004a 1A68     		ldr	r2, [r3]	@ D.6945, MEM[(struct RCC_TypeDef *)1073876992B].CR
 147 004c 22F48032 		bic	r2, r2, #65536	@ D.6945, D.6945,
 148 0050 1A60     		str	r2, [r3]	@ D.6945, MEM[(struct RCC_TypeDef *)1073876992B].CR
 278:Libraries/STM32F10x_StdPeriph_Driver/src/stm32f10x_rcc.c ****   /* Configure HSE (RCC_HSE_OFF is already covered by the code section above) */
 149              		.loc 1 278 0
 150 0052 1A68     		ldr	r2, [r3]	@ D.6945, MEM[(struct RCC_TypeDef *)1073876992B].CR
 151 0054 22F48022 		bic	r2, r2, #262144	@ D.6945, D.6945,
 152 0058 1A60     		str	r2, [r3]	@ D.6945, MEM[(struct RCC_TypeDef *)1073876992B].CR
 153              		.loc 1 280 0
 154 005a 03D0     		beq	.L6	@,
 155 005c B0F5802F 		cmp	r0, #262144	@ RCC_HSE,
 156 0060 04D0     		beq	.L7	@,
 157 0062 7047     		bx	lr	@
 158              	.L6:
 281:Libraries/STM32F10x_StdPeriph_Driver/src/stm32f10x_rcc.c ****   {
 282:Libraries/STM32F10x_StdPeriph_Driver/src/stm32f10x_rcc.c ****     case RCC_HSE_ON:
 283:Libraries/STM32F10x_StdPeriph_Driver/src/stm32f10x_rcc.c ****       /* Set HSEON bit */
 284:Libraries/STM32F10x_StdPeriph_Driver/src/stm32f10x_rcc.c ****       RCC->CR |= CR_HSEON_Set;
 159              		.loc 1 284 0
 160 0064 1A68     		ldr	r2, [r3]	@ D.6945, MEM[(struct RCC_TypeDef *)1073876992B].CR
 161 0066 42F48032 		orr	r2, r2, #65536	@ D.6945, D.6945,
 162 006a 02E0     		b	.L8	@
 163              	.L7:
 285:Libraries/STM32F10x_StdPeriph_Driver/src/stm32f10x_rcc.c ****       break;
 286:Libraries/STM32F10x_StdPeriph_Driver/src/stm32f10x_rcc.c ****       
 287:Libraries/STM32F10x_StdPeriph_Driver/src/stm32f10x_rcc.c ****     case RCC_HSE_Bypass:
 288:Libraries/STM32F10x_StdPeriph_Driver/src/stm32f10x_rcc.c ****       /* Set HSEBYP and HSEON bits */
 289:Libraries/STM32F10x_StdPeriph_Driver/src/stm32f10x_rcc.c ****       RCC->CR |= CR_HSEBYP_Set | CR_HSEON_Set;
 164              		.loc 1 289 0
 165 006c 1A68     		ldr	r2, [r3]	@ D.6945, MEM[(struct RCC_TypeDef *)1073876992B].CR
ARM GAS  /var/folders/lp/0dm50ddn51vc39svyzv_6fp00000gn/T//ccS91u3A.s 			page 9


 166 006e 42F4A022 		orr	r2, r2, #327680	@ D.6945, D.6945,
 167              	.L8:
 168 0072 1A60     		str	r2, [r3]	@ D.6945,
 169 0074 7047     		bx	lr	@
 170              	.L11:
 171 0076 00BF     		.align	2
 172              	.L10:
 173 0078 00100240 		.word	1073876992
 174              		.cfi_endproc
 175              	.LFE30:
 176              		.size	RCC_HSEConfig, .-RCC_HSEConfig
 177              		.align	1
 178              		.global	RCC_AdjustHSICalibrationValue
 179              		.thumb
 180              		.thumb_func
 181              		.type	RCC_AdjustHSICalibrationValue, %function
 182              	RCC_AdjustHSICalibrationValue:
 183              	.LFB32:
 290:Libraries/STM32F10x_StdPeriph_Driver/src/stm32f10x_rcc.c ****       break;
 291:Libraries/STM32F10x_StdPeriph_Driver/src/stm32f10x_rcc.c ****       
 292:Libraries/STM32F10x_StdPeriph_Driver/src/stm32f10x_rcc.c ****     default:
 293:Libraries/STM32F10x_StdPeriph_Driver/src/stm32f10x_rcc.c ****       break;
 294:Libraries/STM32F10x_StdPeriph_Driver/src/stm32f10x_rcc.c ****   }
 295:Libraries/STM32F10x_StdPeriph_Driver/src/stm32f10x_rcc.c **** }
 296:Libraries/STM32F10x_StdPeriph_Driver/src/stm32f10x_rcc.c **** 
 297:Libraries/STM32F10x_StdPeriph_Driver/src/stm32f10x_rcc.c **** /**
 298:Libraries/STM32F10x_StdPeriph_Driver/src/stm32f10x_rcc.c ****   * @brief  Waits for HSE start-up.
 299:Libraries/STM32F10x_StdPeriph_Driver/src/stm32f10x_rcc.c ****   * @param  None
 300:Libraries/STM32F10x_StdPeriph_Driver/src/stm32f10x_rcc.c ****   * @retval An ErrorStatus enumuration value:
 301:Libraries/STM32F10x_StdPeriph_Driver/src/stm32f10x_rcc.c ****   * - SUCCESS: HSE oscillator is stable and ready to use
 302:Libraries/STM32F10x_StdPeriph_Driver/src/stm32f10x_rcc.c ****   * - ERROR: HSE oscillator not yet ready
 303:Libraries/STM32F10x_StdPeriph_Driver/src/stm32f10x_rcc.c ****   */
 304:Libraries/STM32F10x_StdPeriph_Driver/src/stm32f10x_rcc.c **** ErrorStatus RCC_WaitForHSEStartUp(void)
 305:Libraries/STM32F10x_StdPeriph_Driver/src/stm32f10x_rcc.c **** {
 306:Libraries/STM32F10x_StdPeriph_Driver/src/stm32f10x_rcc.c ****   __IO uint32_t StartUpCounter = 0;
 307:Libraries/STM32F10x_StdPeriph_Driver/src/stm32f10x_rcc.c ****   ErrorStatus status = ERROR;
 308:Libraries/STM32F10x_StdPeriph_Driver/src/stm32f10x_rcc.c ****   FlagStatus HSEStatus = RESET;
 309:Libraries/STM32F10x_StdPeriph_Driver/src/stm32f10x_rcc.c ****   
 310:Libraries/STM32F10x_StdPeriph_Driver/src/stm32f10x_rcc.c ****   /* Wait till HSE is ready and if Time out is reached exit */
 311:Libraries/STM32F10x_StdPeriph_Driver/src/stm32f10x_rcc.c ****   do
 312:Libraries/STM32F10x_StdPeriph_Driver/src/stm32f10x_rcc.c ****   {
 313:Libraries/STM32F10x_StdPeriph_Driver/src/stm32f10x_rcc.c ****     HSEStatus = RCC_GetFlagStatus(RCC_FLAG_HSERDY);
 314:Libraries/STM32F10x_StdPeriph_Driver/src/stm32f10x_rcc.c ****     StartUpCounter++;  
 315:Libraries/STM32F10x_StdPeriph_Driver/src/stm32f10x_rcc.c ****   } while((StartUpCounter != HSE_STARTUP_TIMEOUT) && (HSEStatus == RESET));
 316:Libraries/STM32F10x_StdPeriph_Driver/src/stm32f10x_rcc.c ****   
 317:Libraries/STM32F10x_StdPeriph_Driver/src/stm32f10x_rcc.c ****   if (RCC_GetFlagStatus(RCC_FLAG_HSERDY) != RESET)
 318:Libraries/STM32F10x_StdPeriph_Driver/src/stm32f10x_rcc.c ****   {
 319:Libraries/STM32F10x_StdPeriph_Driver/src/stm32f10x_rcc.c ****     status = SUCCESS;
 320:Libraries/STM32F10x_StdPeriph_Driver/src/stm32f10x_rcc.c ****   }
 321:Libraries/STM32F10x_StdPeriph_Driver/src/stm32f10x_rcc.c ****   else
 322:Libraries/STM32F10x_StdPeriph_Driver/src/stm32f10x_rcc.c ****   {
 323:Libraries/STM32F10x_StdPeriph_Driver/src/stm32f10x_rcc.c ****     status = ERROR;
 324:Libraries/STM32F10x_StdPeriph_Driver/src/stm32f10x_rcc.c ****   }  
 325:Libraries/STM32F10x_StdPeriph_Driver/src/stm32f10x_rcc.c ****   return (status);
 326:Libraries/STM32F10x_StdPeriph_Driver/src/stm32f10x_rcc.c **** }
 327:Libraries/STM32F10x_StdPeriph_Driver/src/stm32f10x_rcc.c **** 
 328:Libraries/STM32F10x_StdPeriph_Driver/src/stm32f10x_rcc.c **** /**
ARM GAS  /var/folders/lp/0dm50ddn51vc39svyzv_6fp00000gn/T//ccS91u3A.s 			page 10


 329:Libraries/STM32F10x_StdPeriph_Driver/src/stm32f10x_rcc.c ****   * @brief  Adjusts the Internal High Speed oscillator (HSI) calibration value.
 330:Libraries/STM32F10x_StdPeriph_Driver/src/stm32f10x_rcc.c ****   * @param  HSICalibrationValue: specifies the calibration trimming value.
 331:Libraries/STM32F10x_StdPeriph_Driver/src/stm32f10x_rcc.c ****   *   This parameter must be a number between 0 and 0x1F.
 332:Libraries/STM32F10x_StdPeriph_Driver/src/stm32f10x_rcc.c ****   * @retval None
 333:Libraries/STM32F10x_StdPeriph_Driver/src/stm32f10x_rcc.c ****   */
 334:Libraries/STM32F10x_StdPeriph_Driver/src/stm32f10x_rcc.c **** void RCC_AdjustHSICalibrationValue(uint8_t HSICalibrationValue)
 335:Libraries/STM32F10x_StdPeriph_Driver/src/stm32f10x_rcc.c **** {
 184              		.loc 1 335 0
 185              		.cfi_startproc
 186              		@ args = 0, pretend = 0, frame = 0
 187              		@ frame_needed = 0, uses_anonymous_args = 0
 188              		@ link register save eliminated.
 189              	.LVL1:
 336:Libraries/STM32F10x_StdPeriph_Driver/src/stm32f10x_rcc.c ****   uint32_t tmpreg = 0;
 337:Libraries/STM32F10x_StdPeriph_Driver/src/stm32f10x_rcc.c ****   /* Check the parameters */
 338:Libraries/STM32F10x_StdPeriph_Driver/src/stm32f10x_rcc.c ****   assert_param(IS_RCC_CALIBRATION_VALUE(HSICalibrationValue));
 339:Libraries/STM32F10x_StdPeriph_Driver/src/stm32f10x_rcc.c ****   tmpreg = RCC->CR;
 190              		.loc 1 339 0
 191 007c 034A     		ldr	r2, .L13	@ tmp116,
 192 007e 1368     		ldr	r3, [r2]	@ tmpreg, MEM[(struct RCC_TypeDef *)1073876992B].CR
 193              	.LVL2:
 340:Libraries/STM32F10x_StdPeriph_Driver/src/stm32f10x_rcc.c ****   /* Clear HSITRIM[4:0] bits */
 341:Libraries/STM32F10x_StdPeriph_Driver/src/stm32f10x_rcc.c ****   tmpreg &= CR_HSITRIM_Mask;
 194              		.loc 1 341 0
 195 0080 23F0F803 		bic	r3, r3, #248	@ tmpreg, tmpreg,
 196              	.LVL3:
 342:Libraries/STM32F10x_StdPeriph_Driver/src/stm32f10x_rcc.c ****   /* Set the HSITRIM[4:0] bits according to HSICalibrationValue value */
 343:Libraries/STM32F10x_StdPeriph_Driver/src/stm32f10x_rcc.c ****   tmpreg |= (uint32_t)HSICalibrationValue << 3;
 197              		.loc 1 343 0
 198 0084 43EAC000 		orr	r0, r3, r0, lsl #3	@ tmpreg, tmpreg, HSICalibrationValue,
 199              	.LVL4:
 344:Libraries/STM32F10x_StdPeriph_Driver/src/stm32f10x_rcc.c ****   /* Store the new value */
 345:Libraries/STM32F10x_StdPeriph_Driver/src/stm32f10x_rcc.c ****   RCC->CR = tmpreg;
 200              		.loc 1 345 0
 201 0088 1060     		str	r0, [r2]	@ tmpreg, MEM[(struct RCC_TypeDef *)1073876992B].CR
 202 008a 7047     		bx	lr	@
 203              	.L14:
 204              		.align	2
 205              	.L13:
 206 008c 00100240 		.word	1073876992
 207              		.cfi_endproc
 208              	.LFE32:
 209              		.size	RCC_AdjustHSICalibrationValue, .-RCC_AdjustHSICalibrationValue
 210              		.align	1
 211              		.global	RCC_HSICmd
 212              		.thumb
 213              		.thumb_func
 214              		.type	RCC_HSICmd, %function
 215              	RCC_HSICmd:
 216              	.LFB33:
 346:Libraries/STM32F10x_StdPeriph_Driver/src/stm32f10x_rcc.c **** }
 347:Libraries/STM32F10x_StdPeriph_Driver/src/stm32f10x_rcc.c **** 
 348:Libraries/STM32F10x_StdPeriph_Driver/src/stm32f10x_rcc.c **** /**
 349:Libraries/STM32F10x_StdPeriph_Driver/src/stm32f10x_rcc.c ****   * @brief  Enables or disables the Internal High Speed oscillator (HSI).
 350:Libraries/STM32F10x_StdPeriph_Driver/src/stm32f10x_rcc.c ****   * @note   HSI can not be stopped if it is used directly or through the PLL as system clock.
 351:Libraries/STM32F10x_StdPeriph_Driver/src/stm32f10x_rcc.c ****   * @param  NewState: new state of the HSI. This parameter can be: ENABLE or DISABLE.
 352:Libraries/STM32F10x_StdPeriph_Driver/src/stm32f10x_rcc.c ****   * @retval None
ARM GAS  /var/folders/lp/0dm50ddn51vc39svyzv_6fp00000gn/T//ccS91u3A.s 			page 11


 353:Libraries/STM32F10x_StdPeriph_Driver/src/stm32f10x_rcc.c ****   */
 354:Libraries/STM32F10x_StdPeriph_Driver/src/stm32f10x_rcc.c **** void RCC_HSICmd(FunctionalState NewState)
 355:Libraries/STM32F10x_StdPeriph_Driver/src/stm32f10x_rcc.c **** {
 217              		.loc 1 355 0
 218              		.cfi_startproc
 219              		@ args = 0, pretend = 0, frame = 0
 220              		@ frame_needed = 0, uses_anonymous_args = 0
 221              		@ link register save eliminated.
 222              	.LVL5:
 356:Libraries/STM32F10x_StdPeriph_Driver/src/stm32f10x_rcc.c ****   /* Check the parameters */
 357:Libraries/STM32F10x_StdPeriph_Driver/src/stm32f10x_rcc.c ****   assert_param(IS_FUNCTIONAL_STATE(NewState));
 358:Libraries/STM32F10x_StdPeriph_Driver/src/stm32f10x_rcc.c ****   *(__IO uint32_t *) CR_HSION_BB = (uint32_t)NewState;
 223              		.loc 1 358 0
 224 0090 014B     		ldr	r3, .L16	@ tmp112,
 225 0092 1860     		str	r0, [r3]	@ NewState, MEM[(volatile uint32_t *)1111621632B]
 226 0094 7047     		bx	lr	@
 227              	.L17:
 228 0096 00BF     		.align	2
 229              	.L16:
 230 0098 00004242 		.word	1111621632
 231              		.cfi_endproc
 232              	.LFE33:
 233              		.size	RCC_HSICmd, .-RCC_HSICmd
 234              		.align	1
 235              		.global	RCC_PLLConfig
 236              		.thumb
 237              		.thumb_func
 238              		.type	RCC_PLLConfig, %function
 239              	RCC_PLLConfig:
 240              	.LFB34:
 359:Libraries/STM32F10x_StdPeriph_Driver/src/stm32f10x_rcc.c **** }
 360:Libraries/STM32F10x_StdPeriph_Driver/src/stm32f10x_rcc.c **** 
 361:Libraries/STM32F10x_StdPeriph_Driver/src/stm32f10x_rcc.c **** /**
 362:Libraries/STM32F10x_StdPeriph_Driver/src/stm32f10x_rcc.c ****   * @brief  Configures the PLL clock source and multiplication factor.
 363:Libraries/STM32F10x_StdPeriph_Driver/src/stm32f10x_rcc.c ****   * @note   This function must be used only when the PLL is disabled.
 364:Libraries/STM32F10x_StdPeriph_Driver/src/stm32f10x_rcc.c ****   * @param  RCC_PLLSource: specifies the PLL entry clock source.
 365:Libraries/STM32F10x_StdPeriph_Driver/src/stm32f10x_rcc.c ****   *   For @b STM32_Connectivity_line_devices or @b STM32_Value_line_devices, 
 366:Libraries/STM32F10x_StdPeriph_Driver/src/stm32f10x_rcc.c ****   *   this parameter can be one of the following values:
 367:Libraries/STM32F10x_StdPeriph_Driver/src/stm32f10x_rcc.c ****   *     @arg RCC_PLLSource_HSI_Div2: HSI oscillator clock divided by 2 selected as PLL clock entry
 368:Libraries/STM32F10x_StdPeriph_Driver/src/stm32f10x_rcc.c ****   *     @arg RCC_PLLSource_PREDIV1: PREDIV1 clock selected as PLL clock entry
 369:Libraries/STM32F10x_StdPeriph_Driver/src/stm32f10x_rcc.c ****   *   For @b other_STM32_devices, this parameter can be one of the following values:
 370:Libraries/STM32F10x_StdPeriph_Driver/src/stm32f10x_rcc.c ****   *     @arg RCC_PLLSource_HSI_Div2: HSI oscillator clock divided by 2 selected as PLL clock entry
 371:Libraries/STM32F10x_StdPeriph_Driver/src/stm32f10x_rcc.c ****   *     @arg RCC_PLLSource_HSE_Div1: HSE oscillator clock selected as PLL clock entry
 372:Libraries/STM32F10x_StdPeriph_Driver/src/stm32f10x_rcc.c ****   *     @arg RCC_PLLSource_HSE_Div2: HSE oscillator clock divided by 2 selected as PLL clock entry 
 373:Libraries/STM32F10x_StdPeriph_Driver/src/stm32f10x_rcc.c ****   * @param  RCC_PLLMul: specifies the PLL multiplication factor.
 374:Libraries/STM32F10x_StdPeriph_Driver/src/stm32f10x_rcc.c ****   *   For @b STM32_Connectivity_line_devices, this parameter can be RCC_PLLMul_x where x:{[4,9], 6_
 375:Libraries/STM32F10x_StdPeriph_Driver/src/stm32f10x_rcc.c ****   *   For @b other_STM32_devices, this parameter can be RCC_PLLMul_x where x:[2,16]  
 376:Libraries/STM32F10x_StdPeriph_Driver/src/stm32f10x_rcc.c ****   * @retval None
 377:Libraries/STM32F10x_StdPeriph_Driver/src/stm32f10x_rcc.c ****   */
 378:Libraries/STM32F10x_StdPeriph_Driver/src/stm32f10x_rcc.c **** void RCC_PLLConfig(uint32_t RCC_PLLSource, uint32_t RCC_PLLMul)
 379:Libraries/STM32F10x_StdPeriph_Driver/src/stm32f10x_rcc.c **** {
 241              		.loc 1 379 0
 242              		.cfi_startproc
 243              		@ args = 0, pretend = 0, frame = 0
 244              		@ frame_needed = 0, uses_anonymous_args = 0
 245              		@ link register save eliminated.
 246              	.LVL6:
ARM GAS  /var/folders/lp/0dm50ddn51vc39svyzv_6fp00000gn/T//ccS91u3A.s 			page 12


 380:Libraries/STM32F10x_StdPeriph_Driver/src/stm32f10x_rcc.c ****   uint32_t tmpreg = 0;
 381:Libraries/STM32F10x_StdPeriph_Driver/src/stm32f10x_rcc.c **** 
 382:Libraries/STM32F10x_StdPeriph_Driver/src/stm32f10x_rcc.c ****   /* Check the parameters */
 383:Libraries/STM32F10x_StdPeriph_Driver/src/stm32f10x_rcc.c ****   assert_param(IS_RCC_PLL_SOURCE(RCC_PLLSource));
 384:Libraries/STM32F10x_StdPeriph_Driver/src/stm32f10x_rcc.c ****   assert_param(IS_RCC_PLL_MUL(RCC_PLLMul));
 385:Libraries/STM32F10x_StdPeriph_Driver/src/stm32f10x_rcc.c **** 
 386:Libraries/STM32F10x_StdPeriph_Driver/src/stm32f10x_rcc.c ****   tmpreg = RCC->CFGR;
 247              		.loc 1 386 0
 248 009c 034A     		ldr	r2, .L19	@ tmp116,
 249 009e 5368     		ldr	r3, [r2, #4]	@ tmpreg, MEM[(struct RCC_TypeDef *)1073876992B].CFGR
 250              	.LVL7:
 251 00a0 23F47413 		bic	r3, r3, #3997696	@ tmpreg, tmpreg,
 252              	.LVL8:
 253 00a4 1943     		orrs	r1, r1, r3	@, D.6954, RCC_PLLMul, tmpreg
 254              	.LVL9:
 387:Libraries/STM32F10x_StdPeriph_Driver/src/stm32f10x_rcc.c ****   /* Clear PLLSRC, PLLXTPRE and PLLMUL[3:0] bits */
 388:Libraries/STM32F10x_StdPeriph_Driver/src/stm32f10x_rcc.c ****   tmpreg &= CFGR_PLL_Mask;
 389:Libraries/STM32F10x_StdPeriph_Driver/src/stm32f10x_rcc.c ****   /* Set the PLL configuration bits */
 390:Libraries/STM32F10x_StdPeriph_Driver/src/stm32f10x_rcc.c ****   tmpreg |= RCC_PLLSource | RCC_PLLMul;
 255              		.loc 1 390 0
 256 00a6 0843     		orrs	r0, r0, r1	@, tmpreg, RCC_PLLSource, D.6954
 257              	.LVL10:
 391:Libraries/STM32F10x_StdPeriph_Driver/src/stm32f10x_rcc.c ****   /* Store the new value */
 392:Libraries/STM32F10x_StdPeriph_Driver/src/stm32f10x_rcc.c ****   RCC->CFGR = tmpreg;
 258              		.loc 1 392 0
 259 00a8 5060     		str	r0, [r2, #4]	@ tmpreg, MEM[(struct RCC_TypeDef *)1073876992B].CFGR
 260 00aa 7047     		bx	lr	@
 261              	.L20:
 262              		.align	2
 263              	.L19:
 264 00ac 00100240 		.word	1073876992
 265              		.cfi_endproc
 266              	.LFE34:
 267              		.size	RCC_PLLConfig, .-RCC_PLLConfig
 268              		.align	1
 269              		.global	RCC_PLLCmd
 270              		.thumb
 271              		.thumb_func
 272              		.type	RCC_PLLCmd, %function
 273              	RCC_PLLCmd:
 274              	.LFB35:
 393:Libraries/STM32F10x_StdPeriph_Driver/src/stm32f10x_rcc.c **** }
 394:Libraries/STM32F10x_StdPeriph_Driver/src/stm32f10x_rcc.c **** 
 395:Libraries/STM32F10x_StdPeriph_Driver/src/stm32f10x_rcc.c **** /**
 396:Libraries/STM32F10x_StdPeriph_Driver/src/stm32f10x_rcc.c ****   * @brief  Enables or disables the PLL.
 397:Libraries/STM32F10x_StdPeriph_Driver/src/stm32f10x_rcc.c ****   * @note   The PLL can not be disabled if it is used as system clock.
 398:Libraries/STM32F10x_StdPeriph_Driver/src/stm32f10x_rcc.c ****   * @param  NewState: new state of the PLL. This parameter can be: ENABLE or DISABLE.
 399:Libraries/STM32F10x_StdPeriph_Driver/src/stm32f10x_rcc.c ****   * @retval None
 400:Libraries/STM32F10x_StdPeriph_Driver/src/stm32f10x_rcc.c ****   */
 401:Libraries/STM32F10x_StdPeriph_Driver/src/stm32f10x_rcc.c **** void RCC_PLLCmd(FunctionalState NewState)
 402:Libraries/STM32F10x_StdPeriph_Driver/src/stm32f10x_rcc.c **** {
 275              		.loc 1 402 0
 276              		.cfi_startproc
 277              		@ args = 0, pretend = 0, frame = 0
 278              		@ frame_needed = 0, uses_anonymous_args = 0
 279              		@ link register save eliminated.
 280              	.LVL11:
ARM GAS  /var/folders/lp/0dm50ddn51vc39svyzv_6fp00000gn/T//ccS91u3A.s 			page 13


 403:Libraries/STM32F10x_StdPeriph_Driver/src/stm32f10x_rcc.c ****   /* Check the parameters */
 404:Libraries/STM32F10x_StdPeriph_Driver/src/stm32f10x_rcc.c ****   assert_param(IS_FUNCTIONAL_STATE(NewState));
 405:Libraries/STM32F10x_StdPeriph_Driver/src/stm32f10x_rcc.c **** 
 406:Libraries/STM32F10x_StdPeriph_Driver/src/stm32f10x_rcc.c ****   *(__IO uint32_t *) CR_PLLON_BB = (uint32_t)NewState;
 281              		.loc 1 406 0
 282 00b0 014B     		ldr	r3, .L22	@ tmp112,
 283 00b2 1860     		str	r0, [r3]	@ NewState, MEM[(volatile uint32_t *)1111621728B]
 284 00b4 7047     		bx	lr	@
 285              	.L23:
 286 00b6 00BF     		.align	2
 287              	.L22:
 288 00b8 60004242 		.word	1111621728
 289              		.cfi_endproc
 290              	.LFE35:
 291              		.size	RCC_PLLCmd, .-RCC_PLLCmd
 292              		.align	1
 293              		.global	RCC_PREDIV1Config
 294              		.thumb
 295              		.thumb_func
 296              		.type	RCC_PREDIV1Config, %function
 297              	RCC_PREDIV1Config:
 298              	.LFB36:
 407:Libraries/STM32F10x_StdPeriph_Driver/src/stm32f10x_rcc.c **** }
 408:Libraries/STM32F10x_StdPeriph_Driver/src/stm32f10x_rcc.c **** 
 409:Libraries/STM32F10x_StdPeriph_Driver/src/stm32f10x_rcc.c **** #if defined (STM32F10X_LD_VL) || defined (STM32F10X_MD_VL) || defined (STM32F10X_HD_VL) || defined 
 410:Libraries/STM32F10x_StdPeriph_Driver/src/stm32f10x_rcc.c **** /**
 411:Libraries/STM32F10x_StdPeriph_Driver/src/stm32f10x_rcc.c ****   * @brief  Configures the PREDIV1 division factor.
 412:Libraries/STM32F10x_StdPeriph_Driver/src/stm32f10x_rcc.c ****   * @note 
 413:Libraries/STM32F10x_StdPeriph_Driver/src/stm32f10x_rcc.c ****   *   - This function must be used only when the PLL is disabled.
 414:Libraries/STM32F10x_StdPeriph_Driver/src/stm32f10x_rcc.c ****   *   - This function applies only to STM32 Connectivity line and Value line 
 415:Libraries/STM32F10x_StdPeriph_Driver/src/stm32f10x_rcc.c ****   *     devices.
 416:Libraries/STM32F10x_StdPeriph_Driver/src/stm32f10x_rcc.c ****   * @param  RCC_PREDIV1_Source: specifies the PREDIV1 clock source.
 417:Libraries/STM32F10x_StdPeriph_Driver/src/stm32f10x_rcc.c ****   *   This parameter can be one of the following values:
 418:Libraries/STM32F10x_StdPeriph_Driver/src/stm32f10x_rcc.c ****   *     @arg RCC_PREDIV1_Source_HSE: HSE selected as PREDIV1 clock
 419:Libraries/STM32F10x_StdPeriph_Driver/src/stm32f10x_rcc.c ****   *     @arg RCC_PREDIV1_Source_PLL2: PLL2 selected as PREDIV1 clock
 420:Libraries/STM32F10x_StdPeriph_Driver/src/stm32f10x_rcc.c ****   * @note 
 421:Libraries/STM32F10x_StdPeriph_Driver/src/stm32f10x_rcc.c ****   *   For @b STM32_Value_line_devices this parameter is always RCC_PREDIV1_Source_HSE  
 422:Libraries/STM32F10x_StdPeriph_Driver/src/stm32f10x_rcc.c ****   * @param  RCC_PREDIV1_Div: specifies the PREDIV1 clock division factor.
 423:Libraries/STM32F10x_StdPeriph_Driver/src/stm32f10x_rcc.c ****   *   This parameter can be RCC_PREDIV1_Divx where x:[1,16]
 424:Libraries/STM32F10x_StdPeriph_Driver/src/stm32f10x_rcc.c ****   * @retval None
 425:Libraries/STM32F10x_StdPeriph_Driver/src/stm32f10x_rcc.c ****   */
 426:Libraries/STM32F10x_StdPeriph_Driver/src/stm32f10x_rcc.c **** void RCC_PREDIV1Config(uint32_t RCC_PREDIV1_Source, uint32_t RCC_PREDIV1_Div)
 427:Libraries/STM32F10x_StdPeriph_Driver/src/stm32f10x_rcc.c **** {
 299              		.loc 1 427 0
 300              		.cfi_startproc
 301              		@ args = 0, pretend = 0, frame = 0
 302              		@ frame_needed = 0, uses_anonymous_args = 0
 303              		@ link register save eliminated.
 304              	.LVL12:
 428:Libraries/STM32F10x_StdPeriph_Driver/src/stm32f10x_rcc.c ****   uint32_t tmpreg = 0;
 429:Libraries/STM32F10x_StdPeriph_Driver/src/stm32f10x_rcc.c ****   
 430:Libraries/STM32F10x_StdPeriph_Driver/src/stm32f10x_rcc.c ****   /* Check the parameters */
 431:Libraries/STM32F10x_StdPeriph_Driver/src/stm32f10x_rcc.c ****   assert_param(IS_RCC_PREDIV1_SOURCE(RCC_PREDIV1_Source));
 432:Libraries/STM32F10x_StdPeriph_Driver/src/stm32f10x_rcc.c ****   assert_param(IS_RCC_PREDIV1(RCC_PREDIV1_Div));
 433:Libraries/STM32F10x_StdPeriph_Driver/src/stm32f10x_rcc.c **** 
 434:Libraries/STM32F10x_StdPeriph_Driver/src/stm32f10x_rcc.c ****   tmpreg = RCC->CFGR2;
 305              		.loc 1 434 0
ARM GAS  /var/folders/lp/0dm50ddn51vc39svyzv_6fp00000gn/T//ccS91u3A.s 			page 14


 306 00bc 044A     		ldr	r2, .L25	@ tmp116,
 307 00be D36A     		ldr	r3, [r2, #44]	@ tmpreg, MEM[(struct RCC_TypeDef *)1073876992B].CFGR2
 308              	.LVL13:
 309 00c0 23F48033 		bic	r3, r3, #65536	@ tmpreg, tmpreg,
 310              	.LVL14:
 311 00c4 23F00F03 		bic	r3, r3, #15	@ tmpreg, tmpreg,
 312 00c8 1943     		orrs	r1, r1, r3	@, D.6960, RCC_PREDIV1_Div, tmpreg
 313              	.LVL15:
 435:Libraries/STM32F10x_StdPeriph_Driver/src/stm32f10x_rcc.c ****   /* Clear PREDIV1[3:0] and PREDIV1SRC bits */
 436:Libraries/STM32F10x_StdPeriph_Driver/src/stm32f10x_rcc.c ****   tmpreg &= ~(CFGR2_PREDIV1 | CFGR2_PREDIV1SRC);
 437:Libraries/STM32F10x_StdPeriph_Driver/src/stm32f10x_rcc.c ****   /* Set the PREDIV1 clock source and division factor */
 438:Libraries/STM32F10x_StdPeriph_Driver/src/stm32f10x_rcc.c ****   tmpreg |= RCC_PREDIV1_Source | RCC_PREDIV1_Div ;
 314              		.loc 1 438 0
 315 00ca 0843     		orrs	r0, r0, r1	@, tmpreg, RCC_PREDIV1_Source, D.6960
 316              	.LVL16:
 439:Libraries/STM32F10x_StdPeriph_Driver/src/stm32f10x_rcc.c ****   /* Store the new value */
 440:Libraries/STM32F10x_StdPeriph_Driver/src/stm32f10x_rcc.c ****   RCC->CFGR2 = tmpreg;
 317              		.loc 1 440 0
 318 00cc D062     		str	r0, [r2, #44]	@ tmpreg, MEM[(struct RCC_TypeDef *)1073876992B].CFGR2
 319 00ce 7047     		bx	lr	@
 320              	.L26:
 321              		.align	2
 322              	.L25:
 323 00d0 00100240 		.word	1073876992
 324              		.cfi_endproc
 325              	.LFE36:
 326              		.size	RCC_PREDIV1Config, .-RCC_PREDIV1Config
 327              		.align	1
 328              		.global	RCC_SYSCLKConfig
 329              		.thumb
 330              		.thumb_func
 331              		.type	RCC_SYSCLKConfig, %function
 332              	RCC_SYSCLKConfig:
 333              	.LFB37:
 441:Libraries/STM32F10x_StdPeriph_Driver/src/stm32f10x_rcc.c **** }
 442:Libraries/STM32F10x_StdPeriph_Driver/src/stm32f10x_rcc.c **** #endif
 443:Libraries/STM32F10x_StdPeriph_Driver/src/stm32f10x_rcc.c **** 
 444:Libraries/STM32F10x_StdPeriph_Driver/src/stm32f10x_rcc.c **** #ifdef STM32F10X_CL
 445:Libraries/STM32F10x_StdPeriph_Driver/src/stm32f10x_rcc.c **** /**
 446:Libraries/STM32F10x_StdPeriph_Driver/src/stm32f10x_rcc.c ****   * @brief  Configures the PREDIV2 division factor.
 447:Libraries/STM32F10x_StdPeriph_Driver/src/stm32f10x_rcc.c ****   * @note 
 448:Libraries/STM32F10x_StdPeriph_Driver/src/stm32f10x_rcc.c ****   *   - This function must be used only when both PLL2 and PLL3 are disabled.
 449:Libraries/STM32F10x_StdPeriph_Driver/src/stm32f10x_rcc.c ****   *   - This function applies only to STM32 Connectivity line devices.
 450:Libraries/STM32F10x_StdPeriph_Driver/src/stm32f10x_rcc.c ****   * @param  RCC_PREDIV2_Div: specifies the PREDIV2 clock division factor.
 451:Libraries/STM32F10x_StdPeriph_Driver/src/stm32f10x_rcc.c ****   *   This parameter can be RCC_PREDIV2_Divx where x:[1,16]
 452:Libraries/STM32F10x_StdPeriph_Driver/src/stm32f10x_rcc.c ****   * @retval None
 453:Libraries/STM32F10x_StdPeriph_Driver/src/stm32f10x_rcc.c ****   */
 454:Libraries/STM32F10x_StdPeriph_Driver/src/stm32f10x_rcc.c **** void RCC_PREDIV2Config(uint32_t RCC_PREDIV2_Div)
 455:Libraries/STM32F10x_StdPeriph_Driver/src/stm32f10x_rcc.c **** {
 456:Libraries/STM32F10x_StdPeriph_Driver/src/stm32f10x_rcc.c ****   uint32_t tmpreg = 0;
 457:Libraries/STM32F10x_StdPeriph_Driver/src/stm32f10x_rcc.c **** 
 458:Libraries/STM32F10x_StdPeriph_Driver/src/stm32f10x_rcc.c ****   /* Check the parameters */
 459:Libraries/STM32F10x_StdPeriph_Driver/src/stm32f10x_rcc.c ****   assert_param(IS_RCC_PREDIV2(RCC_PREDIV2_Div));
 460:Libraries/STM32F10x_StdPeriph_Driver/src/stm32f10x_rcc.c **** 
 461:Libraries/STM32F10x_StdPeriph_Driver/src/stm32f10x_rcc.c ****   tmpreg = RCC->CFGR2;
 462:Libraries/STM32F10x_StdPeriph_Driver/src/stm32f10x_rcc.c ****   /* Clear PREDIV2[3:0] bits */
 463:Libraries/STM32F10x_StdPeriph_Driver/src/stm32f10x_rcc.c ****   tmpreg &= ~CFGR2_PREDIV2;
ARM GAS  /var/folders/lp/0dm50ddn51vc39svyzv_6fp00000gn/T//ccS91u3A.s 			page 15


 464:Libraries/STM32F10x_StdPeriph_Driver/src/stm32f10x_rcc.c ****   /* Set the PREDIV2 division factor */
 465:Libraries/STM32F10x_StdPeriph_Driver/src/stm32f10x_rcc.c ****   tmpreg |= RCC_PREDIV2_Div;
 466:Libraries/STM32F10x_StdPeriph_Driver/src/stm32f10x_rcc.c ****   /* Store the new value */
 467:Libraries/STM32F10x_StdPeriph_Driver/src/stm32f10x_rcc.c ****   RCC->CFGR2 = tmpreg;
 468:Libraries/STM32F10x_StdPeriph_Driver/src/stm32f10x_rcc.c **** }
 469:Libraries/STM32F10x_StdPeriph_Driver/src/stm32f10x_rcc.c **** 
 470:Libraries/STM32F10x_StdPeriph_Driver/src/stm32f10x_rcc.c **** /**
 471:Libraries/STM32F10x_StdPeriph_Driver/src/stm32f10x_rcc.c ****   * @brief  Configures the PLL2 multiplication factor.
 472:Libraries/STM32F10x_StdPeriph_Driver/src/stm32f10x_rcc.c ****   * @note
 473:Libraries/STM32F10x_StdPeriph_Driver/src/stm32f10x_rcc.c ****   *   - This function must be used only when the PLL2 is disabled.
 474:Libraries/STM32F10x_StdPeriph_Driver/src/stm32f10x_rcc.c ****   *   - This function applies only to STM32 Connectivity line devices.
 475:Libraries/STM32F10x_StdPeriph_Driver/src/stm32f10x_rcc.c ****   * @param  RCC_PLL2Mul: specifies the PLL2 multiplication factor.
 476:Libraries/STM32F10x_StdPeriph_Driver/src/stm32f10x_rcc.c ****   *   This parameter can be RCC_PLL2Mul_x where x:{[8,14], 16, 20}
 477:Libraries/STM32F10x_StdPeriph_Driver/src/stm32f10x_rcc.c ****   * @retval None
 478:Libraries/STM32F10x_StdPeriph_Driver/src/stm32f10x_rcc.c ****   */
 479:Libraries/STM32F10x_StdPeriph_Driver/src/stm32f10x_rcc.c **** void RCC_PLL2Config(uint32_t RCC_PLL2Mul)
 480:Libraries/STM32F10x_StdPeriph_Driver/src/stm32f10x_rcc.c **** {
 481:Libraries/STM32F10x_StdPeriph_Driver/src/stm32f10x_rcc.c ****   uint32_t tmpreg = 0;
 482:Libraries/STM32F10x_StdPeriph_Driver/src/stm32f10x_rcc.c **** 
 483:Libraries/STM32F10x_StdPeriph_Driver/src/stm32f10x_rcc.c ****   /* Check the parameters */
 484:Libraries/STM32F10x_StdPeriph_Driver/src/stm32f10x_rcc.c ****   assert_param(IS_RCC_PLL2_MUL(RCC_PLL2Mul));
 485:Libraries/STM32F10x_StdPeriph_Driver/src/stm32f10x_rcc.c **** 
 486:Libraries/STM32F10x_StdPeriph_Driver/src/stm32f10x_rcc.c ****   tmpreg = RCC->CFGR2;
 487:Libraries/STM32F10x_StdPeriph_Driver/src/stm32f10x_rcc.c ****   /* Clear PLL2Mul[3:0] bits */
 488:Libraries/STM32F10x_StdPeriph_Driver/src/stm32f10x_rcc.c ****   tmpreg &= ~CFGR2_PLL2MUL;
 489:Libraries/STM32F10x_StdPeriph_Driver/src/stm32f10x_rcc.c ****   /* Set the PLL2 configuration bits */
 490:Libraries/STM32F10x_StdPeriph_Driver/src/stm32f10x_rcc.c ****   tmpreg |= RCC_PLL2Mul;
 491:Libraries/STM32F10x_StdPeriph_Driver/src/stm32f10x_rcc.c ****   /* Store the new value */
 492:Libraries/STM32F10x_StdPeriph_Driver/src/stm32f10x_rcc.c ****   RCC->CFGR2 = tmpreg;
 493:Libraries/STM32F10x_StdPeriph_Driver/src/stm32f10x_rcc.c **** }
 494:Libraries/STM32F10x_StdPeriph_Driver/src/stm32f10x_rcc.c **** 
 495:Libraries/STM32F10x_StdPeriph_Driver/src/stm32f10x_rcc.c **** 
 496:Libraries/STM32F10x_StdPeriph_Driver/src/stm32f10x_rcc.c **** /**
 497:Libraries/STM32F10x_StdPeriph_Driver/src/stm32f10x_rcc.c ****   * @brief  Enables or disables the PLL2.
 498:Libraries/STM32F10x_StdPeriph_Driver/src/stm32f10x_rcc.c ****   * @note 
 499:Libraries/STM32F10x_StdPeriph_Driver/src/stm32f10x_rcc.c ****   *   - The PLL2 can not be disabled if it is used indirectly as system clock
 500:Libraries/STM32F10x_StdPeriph_Driver/src/stm32f10x_rcc.c ****   *     (i.e. it is used as PLL clock entry that is used as System clock).
 501:Libraries/STM32F10x_StdPeriph_Driver/src/stm32f10x_rcc.c ****   *   - This function applies only to STM32 Connectivity line devices.
 502:Libraries/STM32F10x_StdPeriph_Driver/src/stm32f10x_rcc.c ****   * @param  NewState: new state of the PLL2. This parameter can be: ENABLE or DISABLE.
 503:Libraries/STM32F10x_StdPeriph_Driver/src/stm32f10x_rcc.c ****   * @retval None
 504:Libraries/STM32F10x_StdPeriph_Driver/src/stm32f10x_rcc.c ****   */
 505:Libraries/STM32F10x_StdPeriph_Driver/src/stm32f10x_rcc.c **** void RCC_PLL2Cmd(FunctionalState NewState)
 506:Libraries/STM32F10x_StdPeriph_Driver/src/stm32f10x_rcc.c **** {
 507:Libraries/STM32F10x_StdPeriph_Driver/src/stm32f10x_rcc.c ****   /* Check the parameters */
 508:Libraries/STM32F10x_StdPeriph_Driver/src/stm32f10x_rcc.c ****   assert_param(IS_FUNCTIONAL_STATE(NewState));
 509:Libraries/STM32F10x_StdPeriph_Driver/src/stm32f10x_rcc.c **** 
 510:Libraries/STM32F10x_StdPeriph_Driver/src/stm32f10x_rcc.c ****   *(__IO uint32_t *) CR_PLL2ON_BB = (uint32_t)NewState;
 511:Libraries/STM32F10x_StdPeriph_Driver/src/stm32f10x_rcc.c **** }
 512:Libraries/STM32F10x_StdPeriph_Driver/src/stm32f10x_rcc.c **** 
 513:Libraries/STM32F10x_StdPeriph_Driver/src/stm32f10x_rcc.c **** 
 514:Libraries/STM32F10x_StdPeriph_Driver/src/stm32f10x_rcc.c **** /**
 515:Libraries/STM32F10x_StdPeriph_Driver/src/stm32f10x_rcc.c ****   * @brief  Configures the PLL3 multiplication factor.
 516:Libraries/STM32F10x_StdPeriph_Driver/src/stm32f10x_rcc.c ****   * @note 
 517:Libraries/STM32F10x_StdPeriph_Driver/src/stm32f10x_rcc.c ****   *   - This function must be used only when the PLL3 is disabled.
 518:Libraries/STM32F10x_StdPeriph_Driver/src/stm32f10x_rcc.c ****   *   - This function applies only to STM32 Connectivity line devices.
 519:Libraries/STM32F10x_StdPeriph_Driver/src/stm32f10x_rcc.c ****   * @param  RCC_PLL3Mul: specifies the PLL3 multiplication factor.
 520:Libraries/STM32F10x_StdPeriph_Driver/src/stm32f10x_rcc.c ****   *   This parameter can be RCC_PLL3Mul_x where x:{[8,14], 16, 20}
ARM GAS  /var/folders/lp/0dm50ddn51vc39svyzv_6fp00000gn/T//ccS91u3A.s 			page 16


 521:Libraries/STM32F10x_StdPeriph_Driver/src/stm32f10x_rcc.c ****   * @retval None
 522:Libraries/STM32F10x_StdPeriph_Driver/src/stm32f10x_rcc.c ****   */
 523:Libraries/STM32F10x_StdPeriph_Driver/src/stm32f10x_rcc.c **** void RCC_PLL3Config(uint32_t RCC_PLL3Mul)
 524:Libraries/STM32F10x_StdPeriph_Driver/src/stm32f10x_rcc.c **** {
 525:Libraries/STM32F10x_StdPeriph_Driver/src/stm32f10x_rcc.c ****   uint32_t tmpreg = 0;
 526:Libraries/STM32F10x_StdPeriph_Driver/src/stm32f10x_rcc.c **** 
 527:Libraries/STM32F10x_StdPeriph_Driver/src/stm32f10x_rcc.c ****   /* Check the parameters */
 528:Libraries/STM32F10x_StdPeriph_Driver/src/stm32f10x_rcc.c ****   assert_param(IS_RCC_PLL3_MUL(RCC_PLL3Mul));
 529:Libraries/STM32F10x_StdPeriph_Driver/src/stm32f10x_rcc.c **** 
 530:Libraries/STM32F10x_StdPeriph_Driver/src/stm32f10x_rcc.c ****   tmpreg = RCC->CFGR2;
 531:Libraries/STM32F10x_StdPeriph_Driver/src/stm32f10x_rcc.c ****   /* Clear PLL3Mul[3:0] bits */
 532:Libraries/STM32F10x_StdPeriph_Driver/src/stm32f10x_rcc.c ****   tmpreg &= ~CFGR2_PLL3MUL;
 533:Libraries/STM32F10x_StdPeriph_Driver/src/stm32f10x_rcc.c ****   /* Set the PLL3 configuration bits */
 534:Libraries/STM32F10x_StdPeriph_Driver/src/stm32f10x_rcc.c ****   tmpreg |= RCC_PLL3Mul;
 535:Libraries/STM32F10x_StdPeriph_Driver/src/stm32f10x_rcc.c ****   /* Store the new value */
 536:Libraries/STM32F10x_StdPeriph_Driver/src/stm32f10x_rcc.c ****   RCC->CFGR2 = tmpreg;
 537:Libraries/STM32F10x_StdPeriph_Driver/src/stm32f10x_rcc.c **** }
 538:Libraries/STM32F10x_StdPeriph_Driver/src/stm32f10x_rcc.c **** 
 539:Libraries/STM32F10x_StdPeriph_Driver/src/stm32f10x_rcc.c **** 
 540:Libraries/STM32F10x_StdPeriph_Driver/src/stm32f10x_rcc.c **** /**
 541:Libraries/STM32F10x_StdPeriph_Driver/src/stm32f10x_rcc.c ****   * @brief  Enables or disables the PLL3.
 542:Libraries/STM32F10x_StdPeriph_Driver/src/stm32f10x_rcc.c ****   * @note   This function applies only to STM32 Connectivity line devices.
 543:Libraries/STM32F10x_StdPeriph_Driver/src/stm32f10x_rcc.c ****   * @param  NewState: new state of the PLL3. This parameter can be: ENABLE or DISABLE.
 544:Libraries/STM32F10x_StdPeriph_Driver/src/stm32f10x_rcc.c ****   * @retval None
 545:Libraries/STM32F10x_StdPeriph_Driver/src/stm32f10x_rcc.c ****   */
 546:Libraries/STM32F10x_StdPeriph_Driver/src/stm32f10x_rcc.c **** void RCC_PLL3Cmd(FunctionalState NewState)
 547:Libraries/STM32F10x_StdPeriph_Driver/src/stm32f10x_rcc.c **** {
 548:Libraries/STM32F10x_StdPeriph_Driver/src/stm32f10x_rcc.c ****   /* Check the parameters */
 549:Libraries/STM32F10x_StdPeriph_Driver/src/stm32f10x_rcc.c **** 
 550:Libraries/STM32F10x_StdPeriph_Driver/src/stm32f10x_rcc.c ****   assert_param(IS_FUNCTIONAL_STATE(NewState));
 551:Libraries/STM32F10x_StdPeriph_Driver/src/stm32f10x_rcc.c ****   *(__IO uint32_t *) CR_PLL3ON_BB = (uint32_t)NewState;
 552:Libraries/STM32F10x_StdPeriph_Driver/src/stm32f10x_rcc.c **** }
 553:Libraries/STM32F10x_StdPeriph_Driver/src/stm32f10x_rcc.c **** #endif /* STM32F10X_CL */
 554:Libraries/STM32F10x_StdPeriph_Driver/src/stm32f10x_rcc.c **** 
 555:Libraries/STM32F10x_StdPeriph_Driver/src/stm32f10x_rcc.c **** /**
 556:Libraries/STM32F10x_StdPeriph_Driver/src/stm32f10x_rcc.c ****   * @brief  Configures the system clock (SYSCLK).
 557:Libraries/STM32F10x_StdPeriph_Driver/src/stm32f10x_rcc.c ****   * @param  RCC_SYSCLKSource: specifies the clock source used as system clock.
 558:Libraries/STM32F10x_StdPeriph_Driver/src/stm32f10x_rcc.c ****   *   This parameter can be one of the following values:
 559:Libraries/STM32F10x_StdPeriph_Driver/src/stm32f10x_rcc.c ****   *     @arg RCC_SYSCLKSource_HSI: HSI selected as system clock
 560:Libraries/STM32F10x_StdPeriph_Driver/src/stm32f10x_rcc.c ****   *     @arg RCC_SYSCLKSource_HSE: HSE selected as system clock
 561:Libraries/STM32F10x_StdPeriph_Driver/src/stm32f10x_rcc.c ****   *     @arg RCC_SYSCLKSource_PLLCLK: PLL selected as system clock
 562:Libraries/STM32F10x_StdPeriph_Driver/src/stm32f10x_rcc.c ****   * @retval None
 563:Libraries/STM32F10x_StdPeriph_Driver/src/stm32f10x_rcc.c ****   */
 564:Libraries/STM32F10x_StdPeriph_Driver/src/stm32f10x_rcc.c **** void RCC_SYSCLKConfig(uint32_t RCC_SYSCLKSource)
 565:Libraries/STM32F10x_StdPeriph_Driver/src/stm32f10x_rcc.c **** {
 334              		.loc 1 565 0
 335              		.cfi_startproc
 336              		@ args = 0, pretend = 0, frame = 0
 337              		@ frame_needed = 0, uses_anonymous_args = 0
 338              		@ link register save eliminated.
 339              	.LVL17:
 566:Libraries/STM32F10x_StdPeriph_Driver/src/stm32f10x_rcc.c ****   uint32_t tmpreg = 0;
 567:Libraries/STM32F10x_StdPeriph_Driver/src/stm32f10x_rcc.c ****   /* Check the parameters */
 568:Libraries/STM32F10x_StdPeriph_Driver/src/stm32f10x_rcc.c ****   assert_param(IS_RCC_SYSCLK_SOURCE(RCC_SYSCLKSource));
 569:Libraries/STM32F10x_StdPeriph_Driver/src/stm32f10x_rcc.c ****   tmpreg = RCC->CFGR;
 340              		.loc 1 569 0
 341 00d4 034A     		ldr	r2, .L28	@ tmp114,
ARM GAS  /var/folders/lp/0dm50ddn51vc39svyzv_6fp00000gn/T//ccS91u3A.s 			page 17


 342 00d6 5368     		ldr	r3, [r2, #4]	@ tmpreg, MEM[(struct RCC_TypeDef *)1073876992B].CFGR
 343              	.LVL18:
 570:Libraries/STM32F10x_StdPeriph_Driver/src/stm32f10x_rcc.c ****   /* Clear SW[1:0] bits */
 571:Libraries/STM32F10x_StdPeriph_Driver/src/stm32f10x_rcc.c ****   tmpreg &= CFGR_SW_Mask;
 344              		.loc 1 571 0
 345 00d8 23F00303 		bic	r3, r3, #3	@ tmpreg, tmpreg,
 346              	.LVL19:
 572:Libraries/STM32F10x_StdPeriph_Driver/src/stm32f10x_rcc.c ****   /* Set SW[1:0] bits according to RCC_SYSCLKSource value */
 573:Libraries/STM32F10x_StdPeriph_Driver/src/stm32f10x_rcc.c ****   tmpreg |= RCC_SYSCLKSource;
 347              		.loc 1 573 0
 348 00dc 1843     		orrs	r0, r0, r3	@, tmpreg, RCC_SYSCLKSource, tmpreg
 349              	.LVL20:
 574:Libraries/STM32F10x_StdPeriph_Driver/src/stm32f10x_rcc.c ****   /* Store the new value */
 575:Libraries/STM32F10x_StdPeriph_Driver/src/stm32f10x_rcc.c ****   RCC->CFGR = tmpreg;
 350              		.loc 1 575 0
 351 00de 5060     		str	r0, [r2, #4]	@ tmpreg, MEM[(struct RCC_TypeDef *)1073876992B].CFGR
 352 00e0 7047     		bx	lr	@
 353              	.L29:
 354 00e2 00BF     		.align	2
 355              	.L28:
 356 00e4 00100240 		.word	1073876992
 357              		.cfi_endproc
 358              	.LFE37:
 359              		.size	RCC_SYSCLKConfig, .-RCC_SYSCLKConfig
 360              		.align	1
 361              		.global	RCC_GetSYSCLKSource
 362              		.thumb
 363              		.thumb_func
 364              		.type	RCC_GetSYSCLKSource, %function
 365              	RCC_GetSYSCLKSource:
 366              	.LFB38:
 576:Libraries/STM32F10x_StdPeriph_Driver/src/stm32f10x_rcc.c **** }
 577:Libraries/STM32F10x_StdPeriph_Driver/src/stm32f10x_rcc.c **** 
 578:Libraries/STM32F10x_StdPeriph_Driver/src/stm32f10x_rcc.c **** /**
 579:Libraries/STM32F10x_StdPeriph_Driver/src/stm32f10x_rcc.c ****   * @brief  Returns the clock source used as system clock.
 580:Libraries/STM32F10x_StdPeriph_Driver/src/stm32f10x_rcc.c ****   * @param  None
 581:Libraries/STM32F10x_StdPeriph_Driver/src/stm32f10x_rcc.c ****   * @retval The clock source used as system clock. The returned value can
 582:Libraries/STM32F10x_StdPeriph_Driver/src/stm32f10x_rcc.c ****   *   be one of the following:
 583:Libraries/STM32F10x_StdPeriph_Driver/src/stm32f10x_rcc.c ****   *     - 0x00: HSI used as system clock
 584:Libraries/STM32F10x_StdPeriph_Driver/src/stm32f10x_rcc.c ****   *     - 0x04: HSE used as system clock
 585:Libraries/STM32F10x_StdPeriph_Driver/src/stm32f10x_rcc.c ****   *     - 0x08: PLL used as system clock
 586:Libraries/STM32F10x_StdPeriph_Driver/src/stm32f10x_rcc.c ****   */
 587:Libraries/STM32F10x_StdPeriph_Driver/src/stm32f10x_rcc.c **** uint8_t RCC_GetSYSCLKSource(void)
 588:Libraries/STM32F10x_StdPeriph_Driver/src/stm32f10x_rcc.c **** {
 367              		.loc 1 588 0
 368              		.cfi_startproc
 369              		@ args = 0, pretend = 0, frame = 0
 370              		@ frame_needed = 0, uses_anonymous_args = 0
 371              		@ link register save eliminated.
 589:Libraries/STM32F10x_StdPeriph_Driver/src/stm32f10x_rcc.c ****   return ((uint8_t)(RCC->CFGR & CFGR_SWS_Mask));
 372              		.loc 1 589 0
 373 00e8 024B     		ldr	r3, .L31	@ tmp114,
 374 00ea 5868     		ldr	r0, [r3, #4]	@ D.6965, MEM[(struct RCC_TypeDef *)1073876992B].CFGR
 590:Libraries/STM32F10x_StdPeriph_Driver/src/stm32f10x_rcc.c **** }
 375              		.loc 1 590 0
 376 00ec 00F00C00 		and	r0, r0, #12	@, D.6965,
 377 00f0 7047     		bx	lr	@
ARM GAS  /var/folders/lp/0dm50ddn51vc39svyzv_6fp00000gn/T//ccS91u3A.s 			page 18


 378              	.L32:
 379 00f2 00BF     		.align	2
 380              	.L31:
 381 00f4 00100240 		.word	1073876992
 382              		.cfi_endproc
 383              	.LFE38:
 384              		.size	RCC_GetSYSCLKSource, .-RCC_GetSYSCLKSource
 385              		.align	1
 386              		.global	RCC_HCLKConfig
 387              		.thumb
 388              		.thumb_func
 389              		.type	RCC_HCLKConfig, %function
 390              	RCC_HCLKConfig:
 391              	.LFB39:
 591:Libraries/STM32F10x_StdPeriph_Driver/src/stm32f10x_rcc.c **** 
 592:Libraries/STM32F10x_StdPeriph_Driver/src/stm32f10x_rcc.c **** /**
 593:Libraries/STM32F10x_StdPeriph_Driver/src/stm32f10x_rcc.c ****   * @brief  Configures the AHB clock (HCLK).
 594:Libraries/STM32F10x_StdPeriph_Driver/src/stm32f10x_rcc.c ****   * @param  RCC_SYSCLK: defines the AHB clock divider. This clock is derived from 
 595:Libraries/STM32F10x_StdPeriph_Driver/src/stm32f10x_rcc.c ****   *   the system clock (SYSCLK).
 596:Libraries/STM32F10x_StdPeriph_Driver/src/stm32f10x_rcc.c ****   *   This parameter can be one of the following values:
 597:Libraries/STM32F10x_StdPeriph_Driver/src/stm32f10x_rcc.c ****   *     @arg RCC_SYSCLK_Div1: AHB clock = SYSCLK
 598:Libraries/STM32F10x_StdPeriph_Driver/src/stm32f10x_rcc.c ****   *     @arg RCC_SYSCLK_Div2: AHB clock = SYSCLK/2
 599:Libraries/STM32F10x_StdPeriph_Driver/src/stm32f10x_rcc.c ****   *     @arg RCC_SYSCLK_Div4: AHB clock = SYSCLK/4
 600:Libraries/STM32F10x_StdPeriph_Driver/src/stm32f10x_rcc.c ****   *     @arg RCC_SYSCLK_Div8: AHB clock = SYSCLK/8
 601:Libraries/STM32F10x_StdPeriph_Driver/src/stm32f10x_rcc.c ****   *     @arg RCC_SYSCLK_Div16: AHB clock = SYSCLK/16
 602:Libraries/STM32F10x_StdPeriph_Driver/src/stm32f10x_rcc.c ****   *     @arg RCC_SYSCLK_Div64: AHB clock = SYSCLK/64
 603:Libraries/STM32F10x_StdPeriph_Driver/src/stm32f10x_rcc.c ****   *     @arg RCC_SYSCLK_Div128: AHB clock = SYSCLK/128
 604:Libraries/STM32F10x_StdPeriph_Driver/src/stm32f10x_rcc.c ****   *     @arg RCC_SYSCLK_Div256: AHB clock = SYSCLK/256
 605:Libraries/STM32F10x_StdPeriph_Driver/src/stm32f10x_rcc.c ****   *     @arg RCC_SYSCLK_Div512: AHB clock = SYSCLK/512
 606:Libraries/STM32F10x_StdPeriph_Driver/src/stm32f10x_rcc.c ****   * @retval None
 607:Libraries/STM32F10x_StdPeriph_Driver/src/stm32f10x_rcc.c ****   */
 608:Libraries/STM32F10x_StdPeriph_Driver/src/stm32f10x_rcc.c **** void RCC_HCLKConfig(uint32_t RCC_SYSCLK)
 609:Libraries/STM32F10x_StdPeriph_Driver/src/stm32f10x_rcc.c **** {
 392              		.loc 1 609 0
 393              		.cfi_startproc
 394              		@ args = 0, pretend = 0, frame = 0
 395              		@ frame_needed = 0, uses_anonymous_args = 0
 396              		@ link register save eliminated.
 397              	.LVL21:
 610:Libraries/STM32F10x_StdPeriph_Driver/src/stm32f10x_rcc.c ****   uint32_t tmpreg = 0;
 611:Libraries/STM32F10x_StdPeriph_Driver/src/stm32f10x_rcc.c ****   /* Check the parameters */
 612:Libraries/STM32F10x_StdPeriph_Driver/src/stm32f10x_rcc.c ****   assert_param(IS_RCC_HCLK(RCC_SYSCLK));
 613:Libraries/STM32F10x_StdPeriph_Driver/src/stm32f10x_rcc.c ****   tmpreg = RCC->CFGR;
 398              		.loc 1 613 0
 399 00f8 034A     		ldr	r2, .L34	@ tmp114,
 400 00fa 5368     		ldr	r3, [r2, #4]	@ tmpreg, MEM[(struct RCC_TypeDef *)1073876992B].CFGR
 401              	.LVL22:
 614:Libraries/STM32F10x_StdPeriph_Driver/src/stm32f10x_rcc.c ****   /* Clear HPRE[3:0] bits */
 615:Libraries/STM32F10x_StdPeriph_Driver/src/stm32f10x_rcc.c ****   tmpreg &= CFGR_HPRE_Reset_Mask;
 402              		.loc 1 615 0
 403 00fc 23F0F003 		bic	r3, r3, #240	@ tmpreg, tmpreg,
 404              	.LVL23:
 616:Libraries/STM32F10x_StdPeriph_Driver/src/stm32f10x_rcc.c ****   /* Set HPRE[3:0] bits according to RCC_SYSCLK value */
 617:Libraries/STM32F10x_StdPeriph_Driver/src/stm32f10x_rcc.c ****   tmpreg |= RCC_SYSCLK;
 405              		.loc 1 617 0
 406 0100 1843     		orrs	r0, r0, r3	@, tmpreg, RCC_SYSCLK, tmpreg
 407              	.LVL24:
ARM GAS  /var/folders/lp/0dm50ddn51vc39svyzv_6fp00000gn/T//ccS91u3A.s 			page 19


 618:Libraries/STM32F10x_StdPeriph_Driver/src/stm32f10x_rcc.c ****   /* Store the new value */
 619:Libraries/STM32F10x_StdPeriph_Driver/src/stm32f10x_rcc.c ****   RCC->CFGR = tmpreg;
 408              		.loc 1 619 0
 409 0102 5060     		str	r0, [r2, #4]	@ tmpreg, MEM[(struct RCC_TypeDef *)1073876992B].CFGR
 410 0104 7047     		bx	lr	@
 411              	.L35:
 412 0106 00BF     		.align	2
 413              	.L34:
 414 0108 00100240 		.word	1073876992
 415              		.cfi_endproc
 416              	.LFE39:
 417              		.size	RCC_HCLKConfig, .-RCC_HCLKConfig
 418              		.align	1
 419              		.global	RCC_PCLK1Config
 420              		.thumb
 421              		.thumb_func
 422              		.type	RCC_PCLK1Config, %function
 423              	RCC_PCLK1Config:
 424              	.LFB40:
 620:Libraries/STM32F10x_StdPeriph_Driver/src/stm32f10x_rcc.c **** }
 621:Libraries/STM32F10x_StdPeriph_Driver/src/stm32f10x_rcc.c **** 
 622:Libraries/STM32F10x_StdPeriph_Driver/src/stm32f10x_rcc.c **** /**
 623:Libraries/STM32F10x_StdPeriph_Driver/src/stm32f10x_rcc.c ****   * @brief  Configures the Low Speed APB clock (PCLK1).
 624:Libraries/STM32F10x_StdPeriph_Driver/src/stm32f10x_rcc.c ****   * @param  RCC_HCLK: defines the APB1 clock divider. This clock is derived from 
 625:Libraries/STM32F10x_StdPeriph_Driver/src/stm32f10x_rcc.c ****   *   the AHB clock (HCLK).
 626:Libraries/STM32F10x_StdPeriph_Driver/src/stm32f10x_rcc.c ****   *   This parameter can be one of the following values:
 627:Libraries/STM32F10x_StdPeriph_Driver/src/stm32f10x_rcc.c ****   *     @arg RCC_HCLK_Div1: APB1 clock = HCLK
 628:Libraries/STM32F10x_StdPeriph_Driver/src/stm32f10x_rcc.c ****   *     @arg RCC_HCLK_Div2: APB1 clock = HCLK/2
 629:Libraries/STM32F10x_StdPeriph_Driver/src/stm32f10x_rcc.c ****   *     @arg RCC_HCLK_Div4: APB1 clock = HCLK/4
 630:Libraries/STM32F10x_StdPeriph_Driver/src/stm32f10x_rcc.c ****   *     @arg RCC_HCLK_Div8: APB1 clock = HCLK/8
 631:Libraries/STM32F10x_StdPeriph_Driver/src/stm32f10x_rcc.c ****   *     @arg RCC_HCLK_Div16: APB1 clock = HCLK/16
 632:Libraries/STM32F10x_StdPeriph_Driver/src/stm32f10x_rcc.c ****   * @retval None
 633:Libraries/STM32F10x_StdPeriph_Driver/src/stm32f10x_rcc.c ****   */
 634:Libraries/STM32F10x_StdPeriph_Driver/src/stm32f10x_rcc.c **** void RCC_PCLK1Config(uint32_t RCC_HCLK)
 635:Libraries/STM32F10x_StdPeriph_Driver/src/stm32f10x_rcc.c **** {
 425              		.loc 1 635 0
 426              		.cfi_startproc
 427              		@ args = 0, pretend = 0, frame = 0
 428              		@ frame_needed = 0, uses_anonymous_args = 0
 429              		@ link register save eliminated.
 430              	.LVL25:
 636:Libraries/STM32F10x_StdPeriph_Driver/src/stm32f10x_rcc.c ****   uint32_t tmpreg = 0;
 637:Libraries/STM32F10x_StdPeriph_Driver/src/stm32f10x_rcc.c ****   /* Check the parameters */
 638:Libraries/STM32F10x_StdPeriph_Driver/src/stm32f10x_rcc.c ****   assert_param(IS_RCC_PCLK(RCC_HCLK));
 639:Libraries/STM32F10x_StdPeriph_Driver/src/stm32f10x_rcc.c ****   tmpreg = RCC->CFGR;
 431              		.loc 1 639 0
 432 010c 034A     		ldr	r2, .L37	@ tmp114,
 433 010e 5368     		ldr	r3, [r2, #4]	@ tmpreg, MEM[(struct RCC_TypeDef *)1073876992B].CFGR
 434              	.LVL26:
 640:Libraries/STM32F10x_StdPeriph_Driver/src/stm32f10x_rcc.c ****   /* Clear PPRE1[2:0] bits */
 641:Libraries/STM32F10x_StdPeriph_Driver/src/stm32f10x_rcc.c ****   tmpreg &= CFGR_PPRE1_Reset_Mask;
 435              		.loc 1 641 0
 436 0110 23F4E063 		bic	r3, r3, #1792	@ tmpreg, tmpreg,
 437              	.LVL27:
 642:Libraries/STM32F10x_StdPeriph_Driver/src/stm32f10x_rcc.c ****   /* Set PPRE1[2:0] bits according to RCC_HCLK value */
 643:Libraries/STM32F10x_StdPeriph_Driver/src/stm32f10x_rcc.c ****   tmpreg |= RCC_HCLK;
 438              		.loc 1 643 0
ARM GAS  /var/folders/lp/0dm50ddn51vc39svyzv_6fp00000gn/T//ccS91u3A.s 			page 20


 439 0114 1843     		orrs	r0, r0, r3	@, tmpreg, RCC_HCLK, tmpreg
 440              	.LVL28:
 644:Libraries/STM32F10x_StdPeriph_Driver/src/stm32f10x_rcc.c ****   /* Store the new value */
 645:Libraries/STM32F10x_StdPeriph_Driver/src/stm32f10x_rcc.c ****   RCC->CFGR = tmpreg;
 441              		.loc 1 645 0
 442 0116 5060     		str	r0, [r2, #4]	@ tmpreg, MEM[(struct RCC_TypeDef *)1073876992B].CFGR
 443 0118 7047     		bx	lr	@
 444              	.L38:
 445 011a 00BF     		.align	2
 446              	.L37:
 447 011c 00100240 		.word	1073876992
 448              		.cfi_endproc
 449              	.LFE40:
 450              		.size	RCC_PCLK1Config, .-RCC_PCLK1Config
 451              		.align	1
 452              		.global	RCC_PCLK2Config
 453              		.thumb
 454              		.thumb_func
 455              		.type	RCC_PCLK2Config, %function
 456              	RCC_PCLK2Config:
 457              	.LFB41:
 646:Libraries/STM32F10x_StdPeriph_Driver/src/stm32f10x_rcc.c **** }
 647:Libraries/STM32F10x_StdPeriph_Driver/src/stm32f10x_rcc.c **** 
 648:Libraries/STM32F10x_StdPeriph_Driver/src/stm32f10x_rcc.c **** /**
 649:Libraries/STM32F10x_StdPeriph_Driver/src/stm32f10x_rcc.c ****   * @brief  Configures the High Speed APB clock (PCLK2).
 650:Libraries/STM32F10x_StdPeriph_Driver/src/stm32f10x_rcc.c ****   * @param  RCC_HCLK: defines the APB2 clock divider. This clock is derived from 
 651:Libraries/STM32F10x_StdPeriph_Driver/src/stm32f10x_rcc.c ****   *   the AHB clock (HCLK).
 652:Libraries/STM32F10x_StdPeriph_Driver/src/stm32f10x_rcc.c ****   *   This parameter can be one of the following values:
 653:Libraries/STM32F10x_StdPeriph_Driver/src/stm32f10x_rcc.c ****   *     @arg RCC_HCLK_Div1: APB2 clock = HCLK
 654:Libraries/STM32F10x_StdPeriph_Driver/src/stm32f10x_rcc.c ****   *     @arg RCC_HCLK_Div2: APB2 clock = HCLK/2
 655:Libraries/STM32F10x_StdPeriph_Driver/src/stm32f10x_rcc.c ****   *     @arg RCC_HCLK_Div4: APB2 clock = HCLK/4
 656:Libraries/STM32F10x_StdPeriph_Driver/src/stm32f10x_rcc.c ****   *     @arg RCC_HCLK_Div8: APB2 clock = HCLK/8
 657:Libraries/STM32F10x_StdPeriph_Driver/src/stm32f10x_rcc.c ****   *     @arg RCC_HCLK_Div16: APB2 clock = HCLK/16
 658:Libraries/STM32F10x_StdPeriph_Driver/src/stm32f10x_rcc.c ****   * @retval None
 659:Libraries/STM32F10x_StdPeriph_Driver/src/stm32f10x_rcc.c ****   */
 660:Libraries/STM32F10x_StdPeriph_Driver/src/stm32f10x_rcc.c **** void RCC_PCLK2Config(uint32_t RCC_HCLK)
 661:Libraries/STM32F10x_StdPeriph_Driver/src/stm32f10x_rcc.c **** {
 458              		.loc 1 661 0
 459              		.cfi_startproc
 460              		@ args = 0, pretend = 0, frame = 0
 461              		@ frame_needed = 0, uses_anonymous_args = 0
 462              		@ link register save eliminated.
 463              	.LVL29:
 662:Libraries/STM32F10x_StdPeriph_Driver/src/stm32f10x_rcc.c ****   uint32_t tmpreg = 0;
 663:Libraries/STM32F10x_StdPeriph_Driver/src/stm32f10x_rcc.c ****   /* Check the parameters */
 664:Libraries/STM32F10x_StdPeriph_Driver/src/stm32f10x_rcc.c ****   assert_param(IS_RCC_PCLK(RCC_HCLK));
 665:Libraries/STM32F10x_StdPeriph_Driver/src/stm32f10x_rcc.c ****   tmpreg = RCC->CFGR;
 464              		.loc 1 665 0
 465 0120 034A     		ldr	r2, .L40	@ tmp115,
 466 0122 5368     		ldr	r3, [r2, #4]	@ tmpreg, MEM[(struct RCC_TypeDef *)1073876992B].CFGR
 467              	.LVL30:
 666:Libraries/STM32F10x_StdPeriph_Driver/src/stm32f10x_rcc.c ****   /* Clear PPRE2[2:0] bits */
 667:Libraries/STM32F10x_StdPeriph_Driver/src/stm32f10x_rcc.c ****   tmpreg &= CFGR_PPRE2_Reset_Mask;
 468              		.loc 1 667 0
 469 0124 23F46053 		bic	r3, r3, #14336	@ tmpreg, tmpreg,
 470              	.LVL31:
 668:Libraries/STM32F10x_StdPeriph_Driver/src/stm32f10x_rcc.c ****   /* Set PPRE2[2:0] bits according to RCC_HCLK value */
ARM GAS  /var/folders/lp/0dm50ddn51vc39svyzv_6fp00000gn/T//ccS91u3A.s 			page 21


 669:Libraries/STM32F10x_StdPeriph_Driver/src/stm32f10x_rcc.c ****   tmpreg |= RCC_HCLK << 3;
 471              		.loc 1 669 0
 472 0128 43EAC000 		orr	r0, r3, r0, lsl #3	@ tmpreg, tmpreg, RCC_HCLK,
 473              	.LVL32:
 670:Libraries/STM32F10x_StdPeriph_Driver/src/stm32f10x_rcc.c ****   /* Store the new value */
 671:Libraries/STM32F10x_StdPeriph_Driver/src/stm32f10x_rcc.c ****   RCC->CFGR = tmpreg;
 474              		.loc 1 671 0
 475 012c 5060     		str	r0, [r2, #4]	@ tmpreg, MEM[(struct RCC_TypeDef *)1073876992B].CFGR
 476 012e 7047     		bx	lr	@
 477              	.L41:
 478              		.align	2
 479              	.L40:
 480 0130 00100240 		.word	1073876992
 481              		.cfi_endproc
 482              	.LFE41:
 483              		.size	RCC_PCLK2Config, .-RCC_PCLK2Config
 484              		.align	1
 485              		.global	RCC_ITConfig
 486              		.thumb
 487              		.thumb_func
 488              		.type	RCC_ITConfig, %function
 489              	RCC_ITConfig:
 490              	.LFB42:
 672:Libraries/STM32F10x_StdPeriph_Driver/src/stm32f10x_rcc.c **** }
 673:Libraries/STM32F10x_StdPeriph_Driver/src/stm32f10x_rcc.c **** 
 674:Libraries/STM32F10x_StdPeriph_Driver/src/stm32f10x_rcc.c **** /**
 675:Libraries/STM32F10x_StdPeriph_Driver/src/stm32f10x_rcc.c ****   * @brief  Enables or disables the specified RCC interrupts.
 676:Libraries/STM32F10x_StdPeriph_Driver/src/stm32f10x_rcc.c ****   * @param  RCC_IT: specifies the RCC interrupt sources to be enabled or disabled.
 677:Libraries/STM32F10x_StdPeriph_Driver/src/stm32f10x_rcc.c ****   * 
 678:Libraries/STM32F10x_StdPeriph_Driver/src/stm32f10x_rcc.c ****   *   For @b STM32_Connectivity_line_devices, this parameter can be any combination
 679:Libraries/STM32F10x_StdPeriph_Driver/src/stm32f10x_rcc.c ****   *   of the following values        
 680:Libraries/STM32F10x_StdPeriph_Driver/src/stm32f10x_rcc.c ****   *     @arg RCC_IT_LSIRDY: LSI ready interrupt
 681:Libraries/STM32F10x_StdPeriph_Driver/src/stm32f10x_rcc.c ****   *     @arg RCC_IT_LSERDY: LSE ready interrupt
 682:Libraries/STM32F10x_StdPeriph_Driver/src/stm32f10x_rcc.c ****   *     @arg RCC_IT_HSIRDY: HSI ready interrupt
 683:Libraries/STM32F10x_StdPeriph_Driver/src/stm32f10x_rcc.c ****   *     @arg RCC_IT_HSERDY: HSE ready interrupt
 684:Libraries/STM32F10x_StdPeriph_Driver/src/stm32f10x_rcc.c ****   *     @arg RCC_IT_PLLRDY: PLL ready interrupt
 685:Libraries/STM32F10x_StdPeriph_Driver/src/stm32f10x_rcc.c ****   *     @arg RCC_IT_PLL2RDY: PLL2 ready interrupt
 686:Libraries/STM32F10x_StdPeriph_Driver/src/stm32f10x_rcc.c ****   *     @arg RCC_IT_PLL3RDY: PLL3 ready interrupt
 687:Libraries/STM32F10x_StdPeriph_Driver/src/stm32f10x_rcc.c ****   * 
 688:Libraries/STM32F10x_StdPeriph_Driver/src/stm32f10x_rcc.c ****   *   For @b other_STM32_devices, this parameter can be any combination of the 
 689:Libraries/STM32F10x_StdPeriph_Driver/src/stm32f10x_rcc.c ****   *   following values        
 690:Libraries/STM32F10x_StdPeriph_Driver/src/stm32f10x_rcc.c ****   *     @arg RCC_IT_LSIRDY: LSI ready interrupt
 691:Libraries/STM32F10x_StdPeriph_Driver/src/stm32f10x_rcc.c ****   *     @arg RCC_IT_LSERDY: LSE ready interrupt
 692:Libraries/STM32F10x_StdPeriph_Driver/src/stm32f10x_rcc.c ****   *     @arg RCC_IT_HSIRDY: HSI ready interrupt
 693:Libraries/STM32F10x_StdPeriph_Driver/src/stm32f10x_rcc.c ****   *     @arg RCC_IT_HSERDY: HSE ready interrupt
 694:Libraries/STM32F10x_StdPeriph_Driver/src/stm32f10x_rcc.c ****   *     @arg RCC_IT_PLLRDY: PLL ready interrupt
 695:Libraries/STM32F10x_StdPeriph_Driver/src/stm32f10x_rcc.c ****   *       
 696:Libraries/STM32F10x_StdPeriph_Driver/src/stm32f10x_rcc.c ****   * @param  NewState: new state of the specified RCC interrupts.
 697:Libraries/STM32F10x_StdPeriph_Driver/src/stm32f10x_rcc.c ****   *   This parameter can be: ENABLE or DISABLE.
 698:Libraries/STM32F10x_StdPeriph_Driver/src/stm32f10x_rcc.c ****   * @retval None
 699:Libraries/STM32F10x_StdPeriph_Driver/src/stm32f10x_rcc.c ****   */
 700:Libraries/STM32F10x_StdPeriph_Driver/src/stm32f10x_rcc.c **** void RCC_ITConfig(uint8_t RCC_IT, FunctionalState NewState)
 701:Libraries/STM32F10x_StdPeriph_Driver/src/stm32f10x_rcc.c **** {
 491              		.loc 1 701 0
 492              		.cfi_startproc
 493              		@ args = 0, pretend = 0, frame = 0
 494              		@ frame_needed = 0, uses_anonymous_args = 0
ARM GAS  /var/folders/lp/0dm50ddn51vc39svyzv_6fp00000gn/T//ccS91u3A.s 			page 22


 495              		@ link register save eliminated.
 496              	.LVL33:
 497 0134 044B     		ldr	r3, .L46	@ tmp131,
 702:Libraries/STM32F10x_StdPeriph_Driver/src/stm32f10x_rcc.c ****   /* Check the parameters */
 703:Libraries/STM32F10x_StdPeriph_Driver/src/stm32f10x_rcc.c ****   assert_param(IS_RCC_IT(RCC_IT));
 704:Libraries/STM32F10x_StdPeriph_Driver/src/stm32f10x_rcc.c ****   assert_param(IS_FUNCTIONAL_STATE(NewState));
 705:Libraries/STM32F10x_StdPeriph_Driver/src/stm32f10x_rcc.c ****   if (NewState != DISABLE)
 706:Libraries/STM32F10x_StdPeriph_Driver/src/stm32f10x_rcc.c ****   {
 707:Libraries/STM32F10x_StdPeriph_Driver/src/stm32f10x_rcc.c ****     /* Perform Byte access to RCC_CIR bits to enable the selected interrupts */
 708:Libraries/STM32F10x_StdPeriph_Driver/src/stm32f10x_rcc.c ****     *(__IO uint8_t *) CIR_BYTE2_ADDRESS |= RCC_IT;
 498              		.loc 1 708 0
 499 0136 1A78     		ldrb	r2, [r3]	@ zero_extendqisi2	@ MEM[(volatile uint8_t *)1073877001B],
 705:Libraries/STM32F10x_StdPeriph_Driver/src/stm32f10x_rcc.c ****   {
 500              		.loc 1 705 0
 501 0138 09B1     		cbz	r1, .L43	@ NewState,
 502              		.loc 1 708 0
 503 013a 1043     		orrs	r0, r0, r2	@, D.6977, RCC_IT, MEM[(volatile uint8_t *)1073877001B]
 504              	.LVL34:
 505 013c 01E0     		b	.L45	@
 506              	.LVL35:
 507              	.L43:
 709:Libraries/STM32F10x_StdPeriph_Driver/src/stm32f10x_rcc.c ****   }
 710:Libraries/STM32F10x_StdPeriph_Driver/src/stm32f10x_rcc.c ****   else
 711:Libraries/STM32F10x_StdPeriph_Driver/src/stm32f10x_rcc.c ****   {
 712:Libraries/STM32F10x_StdPeriph_Driver/src/stm32f10x_rcc.c ****     /* Perform Byte access to RCC_CIR bits to disable the selected interrupts */
 713:Libraries/STM32F10x_StdPeriph_Driver/src/stm32f10x_rcc.c ****     *(__IO uint8_t *) CIR_BYTE2_ADDRESS &= (uint8_t)~RCC_IT;
 508              		.loc 1 713 0
 509 013e 22EA0000 		bic	r0, r2, r0	@ D.6977, MEM[(volatile uint8_t *)1073877001B], RCC_IT
 510              	.LVL36:
 511              	.L45:
 512 0142 1870     		strb	r0, [r3]	@ D.6977,
 513 0144 7047     		bx	lr	@
 514              	.L47:
 515 0146 00BF     		.align	2
 516              	.L46:
 517 0148 09100240 		.word	1073877001
 518              		.cfi_endproc
 519              	.LFE42:
 520              		.size	RCC_ITConfig, .-RCC_ITConfig
 521              		.align	1
 522              		.global	RCC_USBCLKConfig
 523              		.thumb
 524              		.thumb_func
 525              		.type	RCC_USBCLKConfig, %function
 526              	RCC_USBCLKConfig:
 527              	.LFB43:
 714:Libraries/STM32F10x_StdPeriph_Driver/src/stm32f10x_rcc.c ****   }
 715:Libraries/STM32F10x_StdPeriph_Driver/src/stm32f10x_rcc.c **** }
 716:Libraries/STM32F10x_StdPeriph_Driver/src/stm32f10x_rcc.c **** 
 717:Libraries/STM32F10x_StdPeriph_Driver/src/stm32f10x_rcc.c **** #ifndef STM32F10X_CL
 718:Libraries/STM32F10x_StdPeriph_Driver/src/stm32f10x_rcc.c **** /**
 719:Libraries/STM32F10x_StdPeriph_Driver/src/stm32f10x_rcc.c ****   * @brief  Configures the USB clock (USBCLK).
 720:Libraries/STM32F10x_StdPeriph_Driver/src/stm32f10x_rcc.c ****   * @param  RCC_USBCLKSource: specifies the USB clock source. This clock is 
 721:Libraries/STM32F10x_StdPeriph_Driver/src/stm32f10x_rcc.c ****   *   derived from the PLL output.
 722:Libraries/STM32F10x_StdPeriph_Driver/src/stm32f10x_rcc.c ****   *   This parameter can be one of the following values:
 723:Libraries/STM32F10x_StdPeriph_Driver/src/stm32f10x_rcc.c ****   *     @arg RCC_USBCLKSource_PLLCLK_1Div5: PLL clock divided by 1,5 selected as USB 
 724:Libraries/STM32F10x_StdPeriph_Driver/src/stm32f10x_rcc.c ****   *                                     clock source
ARM GAS  /var/folders/lp/0dm50ddn51vc39svyzv_6fp00000gn/T//ccS91u3A.s 			page 23


 725:Libraries/STM32F10x_StdPeriph_Driver/src/stm32f10x_rcc.c ****   *     @arg RCC_USBCLKSource_PLLCLK_Div1: PLL clock selected as USB clock source
 726:Libraries/STM32F10x_StdPeriph_Driver/src/stm32f10x_rcc.c ****   * @retval None
 727:Libraries/STM32F10x_StdPeriph_Driver/src/stm32f10x_rcc.c ****   */
 728:Libraries/STM32F10x_StdPeriph_Driver/src/stm32f10x_rcc.c **** void RCC_USBCLKConfig(uint32_t RCC_USBCLKSource)
 729:Libraries/STM32F10x_StdPeriph_Driver/src/stm32f10x_rcc.c **** {
 528              		.loc 1 729 0
 529              		.cfi_startproc
 530              		@ args = 0, pretend = 0, frame = 0
 531              		@ frame_needed = 0, uses_anonymous_args = 0
 532              		@ link register save eliminated.
 533              	.LVL37:
 730:Libraries/STM32F10x_StdPeriph_Driver/src/stm32f10x_rcc.c ****   /* Check the parameters */
 731:Libraries/STM32F10x_StdPeriph_Driver/src/stm32f10x_rcc.c ****   assert_param(IS_RCC_USBCLK_SOURCE(RCC_USBCLKSource));
 732:Libraries/STM32F10x_StdPeriph_Driver/src/stm32f10x_rcc.c **** 
 733:Libraries/STM32F10x_StdPeriph_Driver/src/stm32f10x_rcc.c ****   *(__IO uint32_t *) CFGR_USBPRE_BB = RCC_USBCLKSource;
 534              		.loc 1 733 0
 535 014c 014B     		ldr	r3, .L49	@ tmp111,
 536 014e 1860     		str	r0, [r3]	@ RCC_USBCLKSource, MEM[(volatile uint32_t *)1111621848B]
 537 0150 7047     		bx	lr	@
 538              	.L50:
 539 0152 00BF     		.align	2
 540              	.L49:
 541 0154 D8004242 		.word	1111621848
 542              		.cfi_endproc
 543              	.LFE43:
 544              		.size	RCC_USBCLKConfig, .-RCC_USBCLKConfig
 545              		.align	1
 546              		.global	RCC_ADCCLKConfig
 547              		.thumb
 548              		.thumb_func
 549              		.type	RCC_ADCCLKConfig, %function
 550              	RCC_ADCCLKConfig:
 551              	.LFB44:
 734:Libraries/STM32F10x_StdPeriph_Driver/src/stm32f10x_rcc.c **** }
 735:Libraries/STM32F10x_StdPeriph_Driver/src/stm32f10x_rcc.c **** #else
 736:Libraries/STM32F10x_StdPeriph_Driver/src/stm32f10x_rcc.c **** /**
 737:Libraries/STM32F10x_StdPeriph_Driver/src/stm32f10x_rcc.c ****   * @brief  Configures the USB OTG FS clock (OTGFSCLK).
 738:Libraries/STM32F10x_StdPeriph_Driver/src/stm32f10x_rcc.c ****   *   This function applies only to STM32 Connectivity line devices.
 739:Libraries/STM32F10x_StdPeriph_Driver/src/stm32f10x_rcc.c ****   * @param  RCC_OTGFSCLKSource: specifies the USB OTG FS clock source.
 740:Libraries/STM32F10x_StdPeriph_Driver/src/stm32f10x_rcc.c ****   *   This clock is derived from the PLL output.
 741:Libraries/STM32F10x_StdPeriph_Driver/src/stm32f10x_rcc.c ****   *   This parameter can be one of the following values:
 742:Libraries/STM32F10x_StdPeriph_Driver/src/stm32f10x_rcc.c ****   *     @arg  RCC_OTGFSCLKSource_PLLVCO_Div3: PLL VCO clock divided by 2 selected as USB OTG FS clo
 743:Libraries/STM32F10x_StdPeriph_Driver/src/stm32f10x_rcc.c ****   *     @arg  RCC_OTGFSCLKSource_PLLVCO_Div2: PLL VCO clock divided by 2 selected as USB OTG FS clo
 744:Libraries/STM32F10x_StdPeriph_Driver/src/stm32f10x_rcc.c ****   * @retval None
 745:Libraries/STM32F10x_StdPeriph_Driver/src/stm32f10x_rcc.c ****   */
 746:Libraries/STM32F10x_StdPeriph_Driver/src/stm32f10x_rcc.c **** void RCC_OTGFSCLKConfig(uint32_t RCC_OTGFSCLKSource)
 747:Libraries/STM32F10x_StdPeriph_Driver/src/stm32f10x_rcc.c **** {
 748:Libraries/STM32F10x_StdPeriph_Driver/src/stm32f10x_rcc.c ****   /* Check the parameters */
 749:Libraries/STM32F10x_StdPeriph_Driver/src/stm32f10x_rcc.c ****   assert_param(IS_RCC_OTGFSCLK_SOURCE(RCC_OTGFSCLKSource));
 750:Libraries/STM32F10x_StdPeriph_Driver/src/stm32f10x_rcc.c **** 
 751:Libraries/STM32F10x_StdPeriph_Driver/src/stm32f10x_rcc.c ****   *(__IO uint32_t *) CFGR_OTGFSPRE_BB = RCC_OTGFSCLKSource;
 752:Libraries/STM32F10x_StdPeriph_Driver/src/stm32f10x_rcc.c **** }
 753:Libraries/STM32F10x_StdPeriph_Driver/src/stm32f10x_rcc.c **** #endif /* STM32F10X_CL */ 
 754:Libraries/STM32F10x_StdPeriph_Driver/src/stm32f10x_rcc.c **** 
 755:Libraries/STM32F10x_StdPeriph_Driver/src/stm32f10x_rcc.c **** /**
 756:Libraries/STM32F10x_StdPeriph_Driver/src/stm32f10x_rcc.c ****   * @brief  Configures the ADC clock (ADCCLK).
 757:Libraries/STM32F10x_StdPeriph_Driver/src/stm32f10x_rcc.c ****   * @param  RCC_PCLK2: defines the ADC clock divider. This clock is derived from 
ARM GAS  /var/folders/lp/0dm50ddn51vc39svyzv_6fp00000gn/T//ccS91u3A.s 			page 24


 758:Libraries/STM32F10x_StdPeriph_Driver/src/stm32f10x_rcc.c ****   *   the APB2 clock (PCLK2).
 759:Libraries/STM32F10x_StdPeriph_Driver/src/stm32f10x_rcc.c ****   *   This parameter can be one of the following values:
 760:Libraries/STM32F10x_StdPeriph_Driver/src/stm32f10x_rcc.c ****   *     @arg RCC_PCLK2_Div2: ADC clock = PCLK2/2
 761:Libraries/STM32F10x_StdPeriph_Driver/src/stm32f10x_rcc.c ****   *     @arg RCC_PCLK2_Div4: ADC clock = PCLK2/4
 762:Libraries/STM32F10x_StdPeriph_Driver/src/stm32f10x_rcc.c ****   *     @arg RCC_PCLK2_Div6: ADC clock = PCLK2/6
 763:Libraries/STM32F10x_StdPeriph_Driver/src/stm32f10x_rcc.c ****   *     @arg RCC_PCLK2_Div8: ADC clock = PCLK2/8
 764:Libraries/STM32F10x_StdPeriph_Driver/src/stm32f10x_rcc.c ****   * @retval None
 765:Libraries/STM32F10x_StdPeriph_Driver/src/stm32f10x_rcc.c ****   */
 766:Libraries/STM32F10x_StdPeriph_Driver/src/stm32f10x_rcc.c **** void RCC_ADCCLKConfig(uint32_t RCC_PCLK2)
 767:Libraries/STM32F10x_StdPeriph_Driver/src/stm32f10x_rcc.c **** {
 552              		.loc 1 767 0
 553              		.cfi_startproc
 554              		@ args = 0, pretend = 0, frame = 0
 555              		@ frame_needed = 0, uses_anonymous_args = 0
 556              		@ link register save eliminated.
 557              	.LVL38:
 768:Libraries/STM32F10x_StdPeriph_Driver/src/stm32f10x_rcc.c ****   uint32_t tmpreg = 0;
 769:Libraries/STM32F10x_StdPeriph_Driver/src/stm32f10x_rcc.c ****   /* Check the parameters */
 770:Libraries/STM32F10x_StdPeriph_Driver/src/stm32f10x_rcc.c ****   assert_param(IS_RCC_ADCCLK(RCC_PCLK2));
 771:Libraries/STM32F10x_StdPeriph_Driver/src/stm32f10x_rcc.c ****   tmpreg = RCC->CFGR;
 558              		.loc 1 771 0
 559 0158 034A     		ldr	r2, .L52	@ tmp114,
 560 015a 5368     		ldr	r3, [r2, #4]	@ tmpreg, MEM[(struct RCC_TypeDef *)1073876992B].CFGR
 561              	.LVL39:
 772:Libraries/STM32F10x_StdPeriph_Driver/src/stm32f10x_rcc.c ****   /* Clear ADCPRE[1:0] bits */
 773:Libraries/STM32F10x_StdPeriph_Driver/src/stm32f10x_rcc.c ****   tmpreg &= CFGR_ADCPRE_Reset_Mask;
 562              		.loc 1 773 0
 563 015c 23F44043 		bic	r3, r3, #49152	@ tmpreg, tmpreg,
 564              	.LVL40:
 774:Libraries/STM32F10x_StdPeriph_Driver/src/stm32f10x_rcc.c ****   /* Set ADCPRE[1:0] bits according to RCC_PCLK2 value */
 775:Libraries/STM32F10x_StdPeriph_Driver/src/stm32f10x_rcc.c ****   tmpreg |= RCC_PCLK2;
 565              		.loc 1 775 0
 566 0160 1843     		orrs	r0, r0, r3	@, tmpreg, RCC_PCLK2, tmpreg
 567              	.LVL41:
 776:Libraries/STM32F10x_StdPeriph_Driver/src/stm32f10x_rcc.c ****   /* Store the new value */
 777:Libraries/STM32F10x_StdPeriph_Driver/src/stm32f10x_rcc.c ****   RCC->CFGR = tmpreg;
 568              		.loc 1 777 0
 569 0162 5060     		str	r0, [r2, #4]	@ tmpreg, MEM[(struct RCC_TypeDef *)1073876992B].CFGR
 570 0164 7047     		bx	lr	@
 571              	.L53:
 572 0166 00BF     		.align	2
 573              	.L52:
 574 0168 00100240 		.word	1073876992
 575              		.cfi_endproc
 576              	.LFE44:
 577              		.size	RCC_ADCCLKConfig, .-RCC_ADCCLKConfig
 578              		.align	1
 579              		.global	RCC_LSEConfig
 580              		.thumb
 581              		.thumb_func
 582              		.type	RCC_LSEConfig, %function
 583              	RCC_LSEConfig:
 584              	.LFB45:
 778:Libraries/STM32F10x_StdPeriph_Driver/src/stm32f10x_rcc.c **** }
 779:Libraries/STM32F10x_StdPeriph_Driver/src/stm32f10x_rcc.c **** 
 780:Libraries/STM32F10x_StdPeriph_Driver/src/stm32f10x_rcc.c **** #ifdef STM32F10X_CL
 781:Libraries/STM32F10x_StdPeriph_Driver/src/stm32f10x_rcc.c **** /**
ARM GAS  /var/folders/lp/0dm50ddn51vc39svyzv_6fp00000gn/T//ccS91u3A.s 			page 25


 782:Libraries/STM32F10x_StdPeriph_Driver/src/stm32f10x_rcc.c ****   * @brief  Configures the I2S2 clock source(I2S2CLK).
 783:Libraries/STM32F10x_StdPeriph_Driver/src/stm32f10x_rcc.c ****   * @note
 784:Libraries/STM32F10x_StdPeriph_Driver/src/stm32f10x_rcc.c ****   *   - This function must be called before enabling I2S2 APB clock.
 785:Libraries/STM32F10x_StdPeriph_Driver/src/stm32f10x_rcc.c ****   *   - This function applies only to STM32 Connectivity line devices.
 786:Libraries/STM32F10x_StdPeriph_Driver/src/stm32f10x_rcc.c ****   * @param  RCC_I2S2CLKSource: specifies the I2S2 clock source.
 787:Libraries/STM32F10x_StdPeriph_Driver/src/stm32f10x_rcc.c ****   *   This parameter can be one of the following values:
 788:Libraries/STM32F10x_StdPeriph_Driver/src/stm32f10x_rcc.c ****   *     @arg RCC_I2S2CLKSource_SYSCLK: system clock selected as I2S2 clock entry
 789:Libraries/STM32F10x_StdPeriph_Driver/src/stm32f10x_rcc.c ****   *     @arg RCC_I2S2CLKSource_PLL3_VCO: PLL3 VCO clock selected as I2S2 clock entry
 790:Libraries/STM32F10x_StdPeriph_Driver/src/stm32f10x_rcc.c ****   * @retval None
 791:Libraries/STM32F10x_StdPeriph_Driver/src/stm32f10x_rcc.c ****   */
 792:Libraries/STM32F10x_StdPeriph_Driver/src/stm32f10x_rcc.c **** void RCC_I2S2CLKConfig(uint32_t RCC_I2S2CLKSource)
 793:Libraries/STM32F10x_StdPeriph_Driver/src/stm32f10x_rcc.c **** {
 794:Libraries/STM32F10x_StdPeriph_Driver/src/stm32f10x_rcc.c ****   /* Check the parameters */
 795:Libraries/STM32F10x_StdPeriph_Driver/src/stm32f10x_rcc.c ****   assert_param(IS_RCC_I2S2CLK_SOURCE(RCC_I2S2CLKSource));
 796:Libraries/STM32F10x_StdPeriph_Driver/src/stm32f10x_rcc.c **** 
 797:Libraries/STM32F10x_StdPeriph_Driver/src/stm32f10x_rcc.c ****   *(__IO uint32_t *) CFGR2_I2S2SRC_BB = RCC_I2S2CLKSource;
 798:Libraries/STM32F10x_StdPeriph_Driver/src/stm32f10x_rcc.c **** }
 799:Libraries/STM32F10x_StdPeriph_Driver/src/stm32f10x_rcc.c **** 
 800:Libraries/STM32F10x_StdPeriph_Driver/src/stm32f10x_rcc.c **** /**
 801:Libraries/STM32F10x_StdPeriph_Driver/src/stm32f10x_rcc.c ****   * @brief  Configures the I2S3 clock source(I2S2CLK).
 802:Libraries/STM32F10x_StdPeriph_Driver/src/stm32f10x_rcc.c ****   * @note
 803:Libraries/STM32F10x_StdPeriph_Driver/src/stm32f10x_rcc.c ****   *   - This function must be called before enabling I2S3 APB clock.
 804:Libraries/STM32F10x_StdPeriph_Driver/src/stm32f10x_rcc.c ****   *   - This function applies only to STM32 Connectivity line devices.
 805:Libraries/STM32F10x_StdPeriph_Driver/src/stm32f10x_rcc.c ****   * @param  RCC_I2S3CLKSource: specifies the I2S3 clock source.
 806:Libraries/STM32F10x_StdPeriph_Driver/src/stm32f10x_rcc.c ****   *   This parameter can be one of the following values:
 807:Libraries/STM32F10x_StdPeriph_Driver/src/stm32f10x_rcc.c ****   *     @arg RCC_I2S3CLKSource_SYSCLK: system clock selected as I2S3 clock entry
 808:Libraries/STM32F10x_StdPeriph_Driver/src/stm32f10x_rcc.c ****   *     @arg RCC_I2S3CLKSource_PLL3_VCO: PLL3 VCO clock selected as I2S3 clock entry
 809:Libraries/STM32F10x_StdPeriph_Driver/src/stm32f10x_rcc.c ****   * @retval None
 810:Libraries/STM32F10x_StdPeriph_Driver/src/stm32f10x_rcc.c ****   */
 811:Libraries/STM32F10x_StdPeriph_Driver/src/stm32f10x_rcc.c **** void RCC_I2S3CLKConfig(uint32_t RCC_I2S3CLKSource)
 812:Libraries/STM32F10x_StdPeriph_Driver/src/stm32f10x_rcc.c **** {
 813:Libraries/STM32F10x_StdPeriph_Driver/src/stm32f10x_rcc.c ****   /* Check the parameters */
 814:Libraries/STM32F10x_StdPeriph_Driver/src/stm32f10x_rcc.c ****   assert_param(IS_RCC_I2S3CLK_SOURCE(RCC_I2S3CLKSource));
 815:Libraries/STM32F10x_StdPeriph_Driver/src/stm32f10x_rcc.c **** 
 816:Libraries/STM32F10x_StdPeriph_Driver/src/stm32f10x_rcc.c ****   *(__IO uint32_t *) CFGR2_I2S3SRC_BB = RCC_I2S3CLKSource;
 817:Libraries/STM32F10x_StdPeriph_Driver/src/stm32f10x_rcc.c **** }
 818:Libraries/STM32F10x_StdPeriph_Driver/src/stm32f10x_rcc.c **** #endif /* STM32F10X_CL */
 819:Libraries/STM32F10x_StdPeriph_Driver/src/stm32f10x_rcc.c **** 
 820:Libraries/STM32F10x_StdPeriph_Driver/src/stm32f10x_rcc.c **** /**
 821:Libraries/STM32F10x_StdPeriph_Driver/src/stm32f10x_rcc.c ****   * @brief  Configures the External Low Speed oscillator (LSE).
 822:Libraries/STM32F10x_StdPeriph_Driver/src/stm32f10x_rcc.c ****   * @param  RCC_LSE: specifies the new state of the LSE.
 823:Libraries/STM32F10x_StdPeriph_Driver/src/stm32f10x_rcc.c ****   *   This parameter can be one of the following values:
 824:Libraries/STM32F10x_StdPeriph_Driver/src/stm32f10x_rcc.c ****   *     @arg RCC_LSE_OFF: LSE oscillator OFF
 825:Libraries/STM32F10x_StdPeriph_Driver/src/stm32f10x_rcc.c ****   *     @arg RCC_LSE_ON: LSE oscillator ON
 826:Libraries/STM32F10x_StdPeriph_Driver/src/stm32f10x_rcc.c ****   *     @arg RCC_LSE_Bypass: LSE oscillator bypassed with external clock
 827:Libraries/STM32F10x_StdPeriph_Driver/src/stm32f10x_rcc.c ****   * @retval None
 828:Libraries/STM32F10x_StdPeriph_Driver/src/stm32f10x_rcc.c ****   */
 829:Libraries/STM32F10x_StdPeriph_Driver/src/stm32f10x_rcc.c **** void RCC_LSEConfig(uint8_t RCC_LSE)
 830:Libraries/STM32F10x_StdPeriph_Driver/src/stm32f10x_rcc.c **** {
 585              		.loc 1 830 0
 586              		.cfi_startproc
 587              		@ args = 0, pretend = 0, frame = 0
 588              		@ frame_needed = 0, uses_anonymous_args = 0
 589              		@ link register save eliminated.
 590              	.LVL42:
 831:Libraries/STM32F10x_StdPeriph_Driver/src/stm32f10x_rcc.c ****   /* Check the parameters */
 832:Libraries/STM32F10x_StdPeriph_Driver/src/stm32f10x_rcc.c ****   assert_param(IS_RCC_LSE(RCC_LSE));
ARM GAS  /var/folders/lp/0dm50ddn51vc39svyzv_6fp00000gn/T//ccS91u3A.s 			page 26


 833:Libraries/STM32F10x_StdPeriph_Driver/src/stm32f10x_rcc.c ****   /* Reset LSEON and LSEBYP bits before configuring the LSE ------------------*/
 834:Libraries/STM32F10x_StdPeriph_Driver/src/stm32f10x_rcc.c ****   /* Reset LSEON bit */
 835:Libraries/STM32F10x_StdPeriph_Driver/src/stm32f10x_rcc.c ****   *(__IO uint8_t *) BDCR_ADDRESS = RCC_LSE_OFF;
 591              		.loc 1 835 0
 592 016c 064B     		ldr	r3, .L58	@ tmp111,
 593 016e 0022     		movs	r2, #0	@ tmp112,
 836:Libraries/STM32F10x_StdPeriph_Driver/src/stm32f10x_rcc.c ****   /* Reset LSEBYP bit */
 837:Libraries/STM32F10x_StdPeriph_Driver/src/stm32f10x_rcc.c ****   *(__IO uint8_t *) BDCR_ADDRESS = RCC_LSE_OFF;
 838:Libraries/STM32F10x_StdPeriph_Driver/src/stm32f10x_rcc.c ****   /* Configure LSE (RCC_LSE_OFF is already covered by the code section above) */
 839:Libraries/STM32F10x_StdPeriph_Driver/src/stm32f10x_rcc.c ****   switch(RCC_LSE)
 594              		.loc 1 839 0
 595 0170 0128     		cmp	r0, #1	@ RCC_LSE,
 835:Libraries/STM32F10x_StdPeriph_Driver/src/stm32f10x_rcc.c ****   /* Reset LSEBYP bit */
 596              		.loc 1 835 0
 597 0172 1A70     		strb	r2, [r3]	@ tmp112, MEM[(volatile uint8_t *)1073877024B]
 837:Libraries/STM32F10x_StdPeriph_Driver/src/stm32f10x_rcc.c ****   /* Configure LSE (RCC_LSE_OFF is already covered by the code section above) */
 598              		.loc 1 837 0
 599 0174 1A70     		strb	r2, [r3]	@ tmp112, MEM[(volatile uint8_t *)1073877024B]
 600              		.loc 1 839 0
 601 0176 02D0     		beq	.L56	@,
 602 0178 0428     		cmp	r0, #4	@ RCC_LSE,
 603 017a 02D0     		beq	.L57	@,
 604 017c 7047     		bx	lr	@
 605              	.L56:
 840:Libraries/STM32F10x_StdPeriph_Driver/src/stm32f10x_rcc.c ****   {
 841:Libraries/STM32F10x_StdPeriph_Driver/src/stm32f10x_rcc.c ****     case RCC_LSE_ON:
 842:Libraries/STM32F10x_StdPeriph_Driver/src/stm32f10x_rcc.c ****       /* Set LSEON bit */
 843:Libraries/STM32F10x_StdPeriph_Driver/src/stm32f10x_rcc.c ****       *(__IO uint8_t *) BDCR_ADDRESS = RCC_LSE_ON;
 606              		.loc 1 843 0
 607 017e 1870     		strb	r0, [r3]	@ RCC_LSE, MEM[(volatile uint8_t *)1073877024B]
 844:Libraries/STM32F10x_StdPeriph_Driver/src/stm32f10x_rcc.c ****       break;
 608              		.loc 1 844 0
 609 0180 7047     		bx	lr	@
 610              	.L57:
 845:Libraries/STM32F10x_StdPeriph_Driver/src/stm32f10x_rcc.c ****       
 846:Libraries/STM32F10x_StdPeriph_Driver/src/stm32f10x_rcc.c ****     case RCC_LSE_Bypass:
 847:Libraries/STM32F10x_StdPeriph_Driver/src/stm32f10x_rcc.c ****       /* Set LSEBYP and LSEON bits */
 848:Libraries/STM32F10x_StdPeriph_Driver/src/stm32f10x_rcc.c ****       *(__IO uint8_t *) BDCR_ADDRESS = RCC_LSE_Bypass | RCC_LSE_ON;
 611              		.loc 1 848 0
 612 0182 0522     		movs	r2, #5	@ tmp121,
 613 0184 1A70     		strb	r2, [r3]	@ tmp121, MEM[(volatile uint8_t *)1073877024B]
 614 0186 7047     		bx	lr	@
 615              	.L59:
 616              		.align	2
 617              	.L58:
 618 0188 20100240 		.word	1073877024
 619              		.cfi_endproc
 620              	.LFE45:
 621              		.size	RCC_LSEConfig, .-RCC_LSEConfig
 622              		.align	1
 623              		.global	RCC_LSICmd
 624              		.thumb
 625              		.thumb_func
 626              		.type	RCC_LSICmd, %function
 627              	RCC_LSICmd:
 628              	.LFB46:
 849:Libraries/STM32F10x_StdPeriph_Driver/src/stm32f10x_rcc.c ****       break;            
ARM GAS  /var/folders/lp/0dm50ddn51vc39svyzv_6fp00000gn/T//ccS91u3A.s 			page 27


 850:Libraries/STM32F10x_StdPeriph_Driver/src/stm32f10x_rcc.c ****       
 851:Libraries/STM32F10x_StdPeriph_Driver/src/stm32f10x_rcc.c ****     default:
 852:Libraries/STM32F10x_StdPeriph_Driver/src/stm32f10x_rcc.c ****       break;      
 853:Libraries/STM32F10x_StdPeriph_Driver/src/stm32f10x_rcc.c ****   }
 854:Libraries/STM32F10x_StdPeriph_Driver/src/stm32f10x_rcc.c **** }
 855:Libraries/STM32F10x_StdPeriph_Driver/src/stm32f10x_rcc.c **** 
 856:Libraries/STM32F10x_StdPeriph_Driver/src/stm32f10x_rcc.c **** /**
 857:Libraries/STM32F10x_StdPeriph_Driver/src/stm32f10x_rcc.c ****   * @brief  Enables or disables the Internal Low Speed oscillator (LSI).
 858:Libraries/STM32F10x_StdPeriph_Driver/src/stm32f10x_rcc.c ****   * @note   LSI can not be disabled if the IWDG is running.
 859:Libraries/STM32F10x_StdPeriph_Driver/src/stm32f10x_rcc.c ****   * @param  NewState: new state of the LSI. This parameter can be: ENABLE or DISABLE.
 860:Libraries/STM32F10x_StdPeriph_Driver/src/stm32f10x_rcc.c ****   * @retval None
 861:Libraries/STM32F10x_StdPeriph_Driver/src/stm32f10x_rcc.c ****   */
 862:Libraries/STM32F10x_StdPeriph_Driver/src/stm32f10x_rcc.c **** void RCC_LSICmd(FunctionalState NewState)
 863:Libraries/STM32F10x_StdPeriph_Driver/src/stm32f10x_rcc.c **** {
 629              		.loc 1 863 0
 630              		.cfi_startproc
 631              		@ args = 0, pretend = 0, frame = 0
 632              		@ frame_needed = 0, uses_anonymous_args = 0
 633              		@ link register save eliminated.
 634              	.LVL43:
 864:Libraries/STM32F10x_StdPeriph_Driver/src/stm32f10x_rcc.c ****   /* Check the parameters */
 865:Libraries/STM32F10x_StdPeriph_Driver/src/stm32f10x_rcc.c ****   assert_param(IS_FUNCTIONAL_STATE(NewState));
 866:Libraries/STM32F10x_StdPeriph_Driver/src/stm32f10x_rcc.c ****   *(__IO uint32_t *) CSR_LSION_BB = (uint32_t)NewState;
 635              		.loc 1 866 0
 636 018c 014B     		ldr	r3, .L61	@ tmp112,
 637 018e 1860     		str	r0, [r3]	@ NewState, MEM[(volatile uint32_t *)1111622784B]
 638 0190 7047     		bx	lr	@
 639              	.L62:
 640 0192 00BF     		.align	2
 641              	.L61:
 642 0194 80044242 		.word	1111622784
 643              		.cfi_endproc
 644              	.LFE46:
 645              		.size	RCC_LSICmd, .-RCC_LSICmd
 646              		.align	1
 647              		.global	RCC_RTCCLKConfig
 648              		.thumb
 649              		.thumb_func
 650              		.type	RCC_RTCCLKConfig, %function
 651              	RCC_RTCCLKConfig:
 652              	.LFB47:
 867:Libraries/STM32F10x_StdPeriph_Driver/src/stm32f10x_rcc.c **** }
 868:Libraries/STM32F10x_StdPeriph_Driver/src/stm32f10x_rcc.c **** 
 869:Libraries/STM32F10x_StdPeriph_Driver/src/stm32f10x_rcc.c **** /**
 870:Libraries/STM32F10x_StdPeriph_Driver/src/stm32f10x_rcc.c ****   * @brief  Configures the RTC clock (RTCCLK).
 871:Libraries/STM32F10x_StdPeriph_Driver/src/stm32f10x_rcc.c ****   * @note   Once the RTC clock is selected it can't be changed unless the Backup domain is reset.
 872:Libraries/STM32F10x_StdPeriph_Driver/src/stm32f10x_rcc.c ****   * @param  RCC_RTCCLKSource: specifies the RTC clock source.
 873:Libraries/STM32F10x_StdPeriph_Driver/src/stm32f10x_rcc.c ****   *   This parameter can be one of the following values:
 874:Libraries/STM32F10x_StdPeriph_Driver/src/stm32f10x_rcc.c ****   *     @arg RCC_RTCCLKSource_LSE: LSE selected as RTC clock
 875:Libraries/STM32F10x_StdPeriph_Driver/src/stm32f10x_rcc.c ****   *     @arg RCC_RTCCLKSource_LSI: LSI selected as RTC clock
 876:Libraries/STM32F10x_StdPeriph_Driver/src/stm32f10x_rcc.c ****   *     @arg RCC_RTCCLKSource_HSE_Div128: HSE clock divided by 128 selected as RTC clock
 877:Libraries/STM32F10x_StdPeriph_Driver/src/stm32f10x_rcc.c ****   * @retval None
 878:Libraries/STM32F10x_StdPeriph_Driver/src/stm32f10x_rcc.c ****   */
 879:Libraries/STM32F10x_StdPeriph_Driver/src/stm32f10x_rcc.c **** void RCC_RTCCLKConfig(uint32_t RCC_RTCCLKSource)
 880:Libraries/STM32F10x_StdPeriph_Driver/src/stm32f10x_rcc.c **** {
 653              		.loc 1 880 0
 654              		.cfi_startproc
ARM GAS  /var/folders/lp/0dm50ddn51vc39svyzv_6fp00000gn/T//ccS91u3A.s 			page 28


 655              		@ args = 0, pretend = 0, frame = 0
 656              		@ frame_needed = 0, uses_anonymous_args = 0
 657              		@ link register save eliminated.
 658              	.LVL44:
 881:Libraries/STM32F10x_StdPeriph_Driver/src/stm32f10x_rcc.c ****   /* Check the parameters */
 882:Libraries/STM32F10x_StdPeriph_Driver/src/stm32f10x_rcc.c ****   assert_param(IS_RCC_RTCCLK_SOURCE(RCC_RTCCLKSource));
 883:Libraries/STM32F10x_StdPeriph_Driver/src/stm32f10x_rcc.c ****   /* Select the RTC clock source */
 884:Libraries/STM32F10x_StdPeriph_Driver/src/stm32f10x_rcc.c ****   RCC->BDCR |= RCC_RTCCLKSource;
 659              		.loc 1 884 0
 660 0198 024A     		ldr	r2, .L64	@ tmp113,
 661 019a 136A     		ldr	r3, [r2, #32]	@ D.6991, MEM[(struct RCC_TypeDef *)1073876992B].BDCR
 662 019c 1843     		orrs	r0, r0, r3	@, D.6991, RCC_RTCCLKSource, D.6991
 663              	.LVL45:
 664 019e 1062     		str	r0, [r2, #32]	@ D.6991, MEM[(struct RCC_TypeDef *)1073876992B].BDCR
 665 01a0 7047     		bx	lr	@
 666              	.L65:
 667 01a2 00BF     		.align	2
 668              	.L64:
 669 01a4 00100240 		.word	1073876992
 670              		.cfi_endproc
 671              	.LFE47:
 672              		.size	RCC_RTCCLKConfig, .-RCC_RTCCLKConfig
 673              		.align	1
 674              		.global	RCC_RTCCLKCmd
 675              		.thumb
 676              		.thumb_func
 677              		.type	RCC_RTCCLKCmd, %function
 678              	RCC_RTCCLKCmd:
 679              	.LFB48:
 885:Libraries/STM32F10x_StdPeriph_Driver/src/stm32f10x_rcc.c **** }
 886:Libraries/STM32F10x_StdPeriph_Driver/src/stm32f10x_rcc.c **** 
 887:Libraries/STM32F10x_StdPeriph_Driver/src/stm32f10x_rcc.c **** /**
 888:Libraries/STM32F10x_StdPeriph_Driver/src/stm32f10x_rcc.c ****   * @brief  Enables or disables the RTC clock.
 889:Libraries/STM32F10x_StdPeriph_Driver/src/stm32f10x_rcc.c ****   * @note   This function must be used only after the RTC clock was selected using the RCC_RTCCLKCo
 890:Libraries/STM32F10x_StdPeriph_Driver/src/stm32f10x_rcc.c ****   * @param  NewState: new state of the RTC clock. This parameter can be: ENABLE or DISABLE.
 891:Libraries/STM32F10x_StdPeriph_Driver/src/stm32f10x_rcc.c ****   * @retval None
 892:Libraries/STM32F10x_StdPeriph_Driver/src/stm32f10x_rcc.c ****   */
 893:Libraries/STM32F10x_StdPeriph_Driver/src/stm32f10x_rcc.c **** void RCC_RTCCLKCmd(FunctionalState NewState)
 894:Libraries/STM32F10x_StdPeriph_Driver/src/stm32f10x_rcc.c **** {
 680              		.loc 1 894 0
 681              		.cfi_startproc
 682              		@ args = 0, pretend = 0, frame = 0
 683              		@ frame_needed = 0, uses_anonymous_args = 0
 684              		@ link register save eliminated.
 685              	.LVL46:
 895:Libraries/STM32F10x_StdPeriph_Driver/src/stm32f10x_rcc.c ****   /* Check the parameters */
 896:Libraries/STM32F10x_StdPeriph_Driver/src/stm32f10x_rcc.c ****   assert_param(IS_FUNCTIONAL_STATE(NewState));
 897:Libraries/STM32F10x_StdPeriph_Driver/src/stm32f10x_rcc.c ****   *(__IO uint32_t *) BDCR_RTCEN_BB = (uint32_t)NewState;
 686              		.loc 1 897 0
 687 01a8 014B     		ldr	r3, .L67	@ tmp112,
 688 01aa 1860     		str	r0, [r3]	@ NewState, MEM[(volatile uint32_t *)1111622716B]
 689 01ac 7047     		bx	lr	@
 690              	.L68:
 691 01ae 00BF     		.align	2
 692              	.L67:
 693 01b0 3C044242 		.word	1111622716
 694              		.cfi_endproc
ARM GAS  /var/folders/lp/0dm50ddn51vc39svyzv_6fp00000gn/T//ccS91u3A.s 			page 29


 695              	.LFE48:
 696              		.size	RCC_RTCCLKCmd, .-RCC_RTCCLKCmd
 697              		.align	1
 698              		.global	RCC_GetClocksFreq
 699              		.thumb
 700              		.thumb_func
 701              		.type	RCC_GetClocksFreq, %function
 702              	RCC_GetClocksFreq:
 703              	.LFB49:
 898:Libraries/STM32F10x_StdPeriph_Driver/src/stm32f10x_rcc.c **** }
 899:Libraries/STM32F10x_StdPeriph_Driver/src/stm32f10x_rcc.c **** 
 900:Libraries/STM32F10x_StdPeriph_Driver/src/stm32f10x_rcc.c **** /**
 901:Libraries/STM32F10x_StdPeriph_Driver/src/stm32f10x_rcc.c ****   * @brief  Returns the frequencies of different on chip clocks.
 902:Libraries/STM32F10x_StdPeriph_Driver/src/stm32f10x_rcc.c ****   * @param  RCC_Clocks: pointer to a RCC_ClocksTypeDef structure which will hold
 903:Libraries/STM32F10x_StdPeriph_Driver/src/stm32f10x_rcc.c ****   *         the clocks frequencies.
 904:Libraries/STM32F10x_StdPeriph_Driver/src/stm32f10x_rcc.c ****   * @note   The result of this function could be not correct when using 
 905:Libraries/STM32F10x_StdPeriph_Driver/src/stm32f10x_rcc.c ****   *         fractional value for HSE crystal.  
 906:Libraries/STM32F10x_StdPeriph_Driver/src/stm32f10x_rcc.c ****   * @retval None
 907:Libraries/STM32F10x_StdPeriph_Driver/src/stm32f10x_rcc.c ****   */
 908:Libraries/STM32F10x_StdPeriph_Driver/src/stm32f10x_rcc.c **** void RCC_GetClocksFreq(RCC_ClocksTypeDef* RCC_Clocks)
 909:Libraries/STM32F10x_StdPeriph_Driver/src/stm32f10x_rcc.c **** {
 704              		.loc 1 909 0
 705              		.cfi_startproc
 706              		@ args = 0, pretend = 0, frame = 0
 707              		@ frame_needed = 0, uses_anonymous_args = 0
 708              	.LVL47:
 910:Libraries/STM32F10x_StdPeriph_Driver/src/stm32f10x_rcc.c ****   uint32_t tmp = 0, pllmull = 0, pllsource = 0, presc = 0;
 911:Libraries/STM32F10x_StdPeriph_Driver/src/stm32f10x_rcc.c **** 
 912:Libraries/STM32F10x_StdPeriph_Driver/src/stm32f10x_rcc.c **** #ifdef  STM32F10X_CL
 913:Libraries/STM32F10x_StdPeriph_Driver/src/stm32f10x_rcc.c ****   uint32_t prediv1source = 0, prediv1factor = 0, prediv2factor = 0, pll2mull = 0;
 914:Libraries/STM32F10x_StdPeriph_Driver/src/stm32f10x_rcc.c **** #endif /* STM32F10X_CL */
 915:Libraries/STM32F10x_StdPeriph_Driver/src/stm32f10x_rcc.c **** 
 916:Libraries/STM32F10x_StdPeriph_Driver/src/stm32f10x_rcc.c **** #if defined (STM32F10X_LD_VL) || defined (STM32F10X_MD_VL) || defined (STM32F10X_HD_VL)
 917:Libraries/STM32F10x_StdPeriph_Driver/src/stm32f10x_rcc.c ****   uint32_t prediv1factor = 0;
 918:Libraries/STM32F10x_StdPeriph_Driver/src/stm32f10x_rcc.c **** #endif
 919:Libraries/STM32F10x_StdPeriph_Driver/src/stm32f10x_rcc.c ****     
 920:Libraries/STM32F10x_StdPeriph_Driver/src/stm32f10x_rcc.c ****   /* Get SYSCLK source -------------------------------------------------------*/
 921:Libraries/STM32F10x_StdPeriph_Driver/src/stm32f10x_rcc.c ****   tmp = RCC->CFGR & CFGR_SWS_Mask;
 709              		.loc 1 921 0
 710 01b4 1D4A     		ldr	r2, .L78	@ tmp150,
 909:Libraries/STM32F10x_StdPeriph_Driver/src/stm32f10x_rcc.c ****   uint32_t tmp = 0, pllmull = 0, pllsource = 0, presc = 0;
 711              		.loc 1 909 0
 712 01b6 10B5     		push	{r4, lr}	@
 713              	.LCFI0:
 714              		.cfi_def_cfa_offset 8
 715              		.cfi_offset 4, -8
 716              		.cfi_offset 14, -4
 717              		.loc 1 921 0
 718 01b8 5368     		ldr	r3, [r2, #4]	@ D.6997, MEM[(struct RCC_TypeDef *)1073876992B].CFGR
 719              	.LVL48:
 922:Libraries/STM32F10x_StdPeriph_Driver/src/stm32f10x_rcc.c ****   
 923:Libraries/STM32F10x_StdPeriph_Driver/src/stm32f10x_rcc.c ****   switch (tmp)
 720              		.loc 1 923 0
 721 01ba 03F00C03 		and	r3, r3, #12	@ tmp, D.6997,
 722              	.LVL49:
 723 01be 042B     		cmp	r3, #4	@ tmp,
 724 01c0 01D0     		beq	.L71	@,
ARM GAS  /var/folders/lp/0dm50ddn51vc39svyzv_6fp00000gn/T//ccS91u3A.s 			page 30


 725 01c2 082B     		cmp	r3, #8	@ tmp,
 726 01c4 01D0     		beq	.L72	@,
 727              	.L71:
 924:Libraries/STM32F10x_StdPeriph_Driver/src/stm32f10x_rcc.c ****   {
 925:Libraries/STM32F10x_StdPeriph_Driver/src/stm32f10x_rcc.c ****     case 0x00:  /* HSI used as system clock */
 926:Libraries/STM32F10x_StdPeriph_Driver/src/stm32f10x_rcc.c ****       RCC_Clocks->SYSCLK_Frequency = HSI_VALUE;
 927:Libraries/STM32F10x_StdPeriph_Driver/src/stm32f10x_rcc.c ****       break;
 928:Libraries/STM32F10x_StdPeriph_Driver/src/stm32f10x_rcc.c ****     case 0x04:  /* HSE used as system clock */
 929:Libraries/STM32F10x_StdPeriph_Driver/src/stm32f10x_rcc.c ****       RCC_Clocks->SYSCLK_Frequency = HSE_VALUE;
 728              		.loc 1 929 0
 729 01c6 1A4B     		ldr	r3, .L78+4	@ tmp153,
 730              	.LVL50:
 731 01c8 10E0     		b	.L76	@
 732              	.LVL51:
 733              	.L72:
 930:Libraries/STM32F10x_StdPeriph_Driver/src/stm32f10x_rcc.c ****       break;
 931:Libraries/STM32F10x_StdPeriph_Driver/src/stm32f10x_rcc.c ****     case 0x08:  /* PLL used as system clock */
 932:Libraries/STM32F10x_StdPeriph_Driver/src/stm32f10x_rcc.c **** 
 933:Libraries/STM32F10x_StdPeriph_Driver/src/stm32f10x_rcc.c ****       /* Get PLL clock source and multiplication factor ----------------------*/
 934:Libraries/STM32F10x_StdPeriph_Driver/src/stm32f10x_rcc.c ****       pllmull = RCC->CFGR & CFGR_PLLMull_Mask;
 734              		.loc 1 934 0
 735 01ca 5368     		ldr	r3, [r2, #4]	@ D.6997, MEM[(struct RCC_TypeDef *)1073876992B].CFGR
 736              	.LVL52:
 935:Libraries/STM32F10x_StdPeriph_Driver/src/stm32f10x_rcc.c ****       pllsource = RCC->CFGR & CFGR_PLLSRC_Mask;
 737              		.loc 1 935 0
 738 01cc 5168     		ldr	r1, [r2, #4]	@ D.6997, MEM[(struct RCC_TypeDef *)1073876992B].CFGR
 739              	.LVL53:
 936:Libraries/STM32F10x_StdPeriph_Driver/src/stm32f10x_rcc.c ****       
 937:Libraries/STM32F10x_StdPeriph_Driver/src/stm32f10x_rcc.c **** #ifndef STM32F10X_CL      
 938:Libraries/STM32F10x_StdPeriph_Driver/src/stm32f10x_rcc.c ****       pllmull = ( pllmull >> 18) + 2;
 740              		.loc 1 938 0
 741 01ce C3F38343 		ubfx	r3, r3, #18, #4	@ D.6997, D.6997,,
 742              	.LVL54:
 939:Libraries/STM32F10x_StdPeriph_Driver/src/stm32f10x_rcc.c ****       
 940:Libraries/STM32F10x_StdPeriph_Driver/src/stm32f10x_rcc.c ****       if (pllsource == 0x00)
 743              		.loc 1 940 0
 744 01d2 C903     		lsls	r1, r1, #15	@, D.6997,
 745              	.LVL55:
 941:Libraries/STM32F10x_StdPeriph_Driver/src/stm32f10x_rcc.c ****       {/* HSI oscillator clock divided by 2 selected as PLL clock entry */
 942:Libraries/STM32F10x_StdPeriph_Driver/src/stm32f10x_rcc.c ****         RCC_Clocks->SYSCLK_Frequency = (HSI_VALUE >> 1) * pllmull;
 943:Libraries/STM32F10x_StdPeriph_Driver/src/stm32f10x_rcc.c ****       }
 944:Libraries/STM32F10x_StdPeriph_Driver/src/stm32f10x_rcc.c ****       else
 945:Libraries/STM32F10x_StdPeriph_Driver/src/stm32f10x_rcc.c ****       {
 946:Libraries/STM32F10x_StdPeriph_Driver/src/stm32f10x_rcc.c ****  #if defined (STM32F10X_LD_VL) || defined (STM32F10X_MD_VL) || defined (STM32F10X_HD_VL)
 947:Libraries/STM32F10x_StdPeriph_Driver/src/stm32f10x_rcc.c ****        prediv1factor = (RCC->CFGR2 & CFGR2_PREDIV1) + 1;
 746              		.loc 1 947 0
 747 01d4 41BF     		itttt	mi
 748 01d6 D16A     		ldrmi	r1, [r2, #44]	@ D.6997, MEM[(struct RCC_TypeDef *)1073876992B].CFGR2
 948:Libraries/STM32F10x_StdPeriph_Driver/src/stm32f10x_rcc.c ****        /* HSE oscillator clock selected as PREDIV1 clock entry */
 949:Libraries/STM32F10x_StdPeriph_Driver/src/stm32f10x_rcc.c ****        RCC_Clocks->SYSCLK_Frequency = (HSE_VALUE / prediv1factor) * pllmull; 
 749              		.loc 1 949 0
 750 01d8 154C     		ldrmi	r4, .L78+4	@ tmp166,
 751 01da 01F00F01 		andmi	r1, r1, #15	@ D.6997, D.6997,
 752 01de 0131     		addmi	r1, r1, #1	@ prediv1factor, D.6997,
 753 01e0 4CBF     		ite	mi
 754 01e2 B4FBF1F1 		udivmi	r1, r4, r1	@ D.6997, tmp166, prediv1factor
 942:Libraries/STM32F10x_StdPeriph_Driver/src/stm32f10x_rcc.c ****       }
ARM GAS  /var/folders/lp/0dm50ddn51vc39svyzv_6fp00000gn/T//ccS91u3A.s 			page 31


 755              		.loc 1 942 0
 756 01e6 1349     		ldrpl	r1, .L78+8	@ tmp160,
 938:Libraries/STM32F10x_StdPeriph_Driver/src/stm32f10x_rcc.c ****       
 757              		.loc 1 938 0
 758 01e8 0233     		adds	r3, r3, #2	@ pllmull, D.6997,
 759              	.LVL56:
 760              		.loc 1 949 0
 761 01ea 4B43     		muls	r3, r1, r3	@ D.6997, D.6997
 762              	.LVL57:
 763              	.L76:
 764 01ec 0360     		str	r3, [r0]	@ D.6997, RCC_Clocks_10(D)->SYSCLK_Frequency
 950:Libraries/STM32F10x_StdPeriph_Driver/src/stm32f10x_rcc.c ****  #else
 951:Libraries/STM32F10x_StdPeriph_Driver/src/stm32f10x_rcc.c ****         /* HSE selected as PLL clock entry */
 952:Libraries/STM32F10x_StdPeriph_Driver/src/stm32f10x_rcc.c ****         if ((RCC->CFGR & CFGR_PLLXTPRE_Mask) != (uint32_t)RESET)
 953:Libraries/STM32F10x_StdPeriph_Driver/src/stm32f10x_rcc.c ****         {/* HSE oscillator clock divided by 2 */
 954:Libraries/STM32F10x_StdPeriph_Driver/src/stm32f10x_rcc.c ****           RCC_Clocks->SYSCLK_Frequency = (HSE_VALUE >> 1) * pllmull;
 955:Libraries/STM32F10x_StdPeriph_Driver/src/stm32f10x_rcc.c ****         }
 956:Libraries/STM32F10x_StdPeriph_Driver/src/stm32f10x_rcc.c ****         else
 957:Libraries/STM32F10x_StdPeriph_Driver/src/stm32f10x_rcc.c ****         {
 958:Libraries/STM32F10x_StdPeriph_Driver/src/stm32f10x_rcc.c ****           RCC_Clocks->SYSCLK_Frequency = HSE_VALUE * pllmull;
 959:Libraries/STM32F10x_StdPeriph_Driver/src/stm32f10x_rcc.c ****         }
 960:Libraries/STM32F10x_StdPeriph_Driver/src/stm32f10x_rcc.c ****  #endif
 961:Libraries/STM32F10x_StdPeriph_Driver/src/stm32f10x_rcc.c ****       }
 962:Libraries/STM32F10x_StdPeriph_Driver/src/stm32f10x_rcc.c **** #else
 963:Libraries/STM32F10x_StdPeriph_Driver/src/stm32f10x_rcc.c ****       pllmull = pllmull >> 18;
 964:Libraries/STM32F10x_StdPeriph_Driver/src/stm32f10x_rcc.c ****       
 965:Libraries/STM32F10x_StdPeriph_Driver/src/stm32f10x_rcc.c ****       if (pllmull != 0x0D)
 966:Libraries/STM32F10x_StdPeriph_Driver/src/stm32f10x_rcc.c ****       {
 967:Libraries/STM32F10x_StdPeriph_Driver/src/stm32f10x_rcc.c ****          pllmull += 2;
 968:Libraries/STM32F10x_StdPeriph_Driver/src/stm32f10x_rcc.c ****       }
 969:Libraries/STM32F10x_StdPeriph_Driver/src/stm32f10x_rcc.c ****       else
 970:Libraries/STM32F10x_StdPeriph_Driver/src/stm32f10x_rcc.c ****       { /* PLL multiplication factor = PLL input clock * 6.5 */
 971:Libraries/STM32F10x_StdPeriph_Driver/src/stm32f10x_rcc.c ****         pllmull = 13 / 2; 
 972:Libraries/STM32F10x_StdPeriph_Driver/src/stm32f10x_rcc.c ****       }
 973:Libraries/STM32F10x_StdPeriph_Driver/src/stm32f10x_rcc.c ****             
 974:Libraries/STM32F10x_StdPeriph_Driver/src/stm32f10x_rcc.c ****       if (pllsource == 0x00)
 975:Libraries/STM32F10x_StdPeriph_Driver/src/stm32f10x_rcc.c ****       {/* HSI oscillator clock divided by 2 selected as PLL clock entry */
 976:Libraries/STM32F10x_StdPeriph_Driver/src/stm32f10x_rcc.c ****         RCC_Clocks->SYSCLK_Frequency = (HSI_VALUE >> 1) * pllmull;
 977:Libraries/STM32F10x_StdPeriph_Driver/src/stm32f10x_rcc.c ****       }
 978:Libraries/STM32F10x_StdPeriph_Driver/src/stm32f10x_rcc.c ****       else
 979:Libraries/STM32F10x_StdPeriph_Driver/src/stm32f10x_rcc.c ****       {/* PREDIV1 selected as PLL clock entry */
 980:Libraries/STM32F10x_StdPeriph_Driver/src/stm32f10x_rcc.c ****         
 981:Libraries/STM32F10x_StdPeriph_Driver/src/stm32f10x_rcc.c ****         /* Get PREDIV1 clock source and division factor */
 982:Libraries/STM32F10x_StdPeriph_Driver/src/stm32f10x_rcc.c ****         prediv1source = RCC->CFGR2 & CFGR2_PREDIV1SRC;
 983:Libraries/STM32F10x_StdPeriph_Driver/src/stm32f10x_rcc.c ****         prediv1factor = (RCC->CFGR2 & CFGR2_PREDIV1) + 1;
 984:Libraries/STM32F10x_StdPeriph_Driver/src/stm32f10x_rcc.c ****         
 985:Libraries/STM32F10x_StdPeriph_Driver/src/stm32f10x_rcc.c ****         if (prediv1source == 0)
 986:Libraries/STM32F10x_StdPeriph_Driver/src/stm32f10x_rcc.c ****         { /* HSE oscillator clock selected as PREDIV1 clock entry */
 987:Libraries/STM32F10x_StdPeriph_Driver/src/stm32f10x_rcc.c ****           RCC_Clocks->SYSCLK_Frequency = (HSE_VALUE / prediv1factor) * pllmull;          
 988:Libraries/STM32F10x_StdPeriph_Driver/src/stm32f10x_rcc.c ****         }
 989:Libraries/STM32F10x_StdPeriph_Driver/src/stm32f10x_rcc.c ****         else
 990:Libraries/STM32F10x_StdPeriph_Driver/src/stm32f10x_rcc.c ****         {/* PLL2 clock selected as PREDIV1 clock entry */
 991:Libraries/STM32F10x_StdPeriph_Driver/src/stm32f10x_rcc.c ****           
 992:Libraries/STM32F10x_StdPeriph_Driver/src/stm32f10x_rcc.c ****           /* Get PREDIV2 division factor and PLL2 multiplication factor */
 993:Libraries/STM32F10x_StdPeriph_Driver/src/stm32f10x_rcc.c ****           prediv2factor = ((RCC->CFGR2 & CFGR2_PREDIV2) >> 4) + 1;
 994:Libraries/STM32F10x_StdPeriph_Driver/src/stm32f10x_rcc.c ****           pll2mull = ((RCC->CFGR2 & CFGR2_PLL2MUL) >> 8 ) + 2; 
 995:Libraries/STM32F10x_StdPeriph_Driver/src/stm32f10x_rcc.c ****           RCC_Clocks->SYSCLK_Frequency = (((HSE_VALUE / prediv2factor) * pll2mull) / prediv1factor)
ARM GAS  /var/folders/lp/0dm50ddn51vc39svyzv_6fp00000gn/T//ccS91u3A.s 			page 32


 996:Libraries/STM32F10x_StdPeriph_Driver/src/stm32f10x_rcc.c ****         }
 997:Libraries/STM32F10x_StdPeriph_Driver/src/stm32f10x_rcc.c ****       }
 998:Libraries/STM32F10x_StdPeriph_Driver/src/stm32f10x_rcc.c **** #endif /* STM32F10X_CL */ 
 999:Libraries/STM32F10x_StdPeriph_Driver/src/stm32f10x_rcc.c ****       break;
1000:Libraries/STM32F10x_StdPeriph_Driver/src/stm32f10x_rcc.c **** 
1001:Libraries/STM32F10x_StdPeriph_Driver/src/stm32f10x_rcc.c ****     default:
1002:Libraries/STM32F10x_StdPeriph_Driver/src/stm32f10x_rcc.c ****       RCC_Clocks->SYSCLK_Frequency = HSI_VALUE;
1003:Libraries/STM32F10x_StdPeriph_Driver/src/stm32f10x_rcc.c ****       break;
1004:Libraries/STM32F10x_StdPeriph_Driver/src/stm32f10x_rcc.c ****   }
1005:Libraries/STM32F10x_StdPeriph_Driver/src/stm32f10x_rcc.c **** 
1006:Libraries/STM32F10x_StdPeriph_Driver/src/stm32f10x_rcc.c ****   /* Compute HCLK, PCLK1, PCLK2 and ADCCLK clocks frequencies ----------------*/
1007:Libraries/STM32F10x_StdPeriph_Driver/src/stm32f10x_rcc.c ****   /* Get HCLK prescaler */
1008:Libraries/STM32F10x_StdPeriph_Driver/src/stm32f10x_rcc.c ****   tmp = RCC->CFGR & CFGR_HPRE_Set_Mask;
 765              		.loc 1 1008 0
 766 01ee 5368     		ldr	r3, [r2, #4]	@ D.6997, MEM[(struct RCC_TypeDef *)1073876992B].CFGR
 767              	.LVL58:
1009:Libraries/STM32F10x_StdPeriph_Driver/src/stm32f10x_rcc.c ****   tmp = tmp >> 4;
1010:Libraries/STM32F10x_StdPeriph_Driver/src/stm32f10x_rcc.c ****   presc = APBAHBPrescTable[tmp];
 768              		.loc 1 1010 0
 769 01f0 1149     		ldr	r1, .L78+12	@ tmp171,
1009:Libraries/STM32F10x_StdPeriph_Driver/src/stm32f10x_rcc.c ****   tmp = tmp >> 4;
 770              		.loc 1 1009 0
 771 01f2 C3F30313 		ubfx	r3, r3, #4, #4	@ tmp, D.6997,,
 772              	.LVL59:
 773              		.loc 1 1010 0
 774 01f6 CC5C     		ldrb	r4, [r1, r3]	@ zero_extendqisi2	@ tmp174, APBAHBPrescTable
 775              	.LVL60:
1011:Libraries/STM32F10x_StdPeriph_Driver/src/stm32f10x_rcc.c ****   /* HCLK clock frequency */
1012:Libraries/STM32F10x_StdPeriph_Driver/src/stm32f10x_rcc.c ****   RCC_Clocks->HCLK_Frequency = RCC_Clocks->SYSCLK_Frequency >> presc;
 776              		.loc 1 1012 0
 777 01f8 0368     		ldr	r3, [r0]	@ RCC_Clocks_10(D)->SYSCLK_Frequency, RCC_Clocks_10(D)->SYSCLK_Frequency
 778              	.LVL61:
 779 01fa E340     		lsrs	r3, r3, r4	@ D.6997, RCC_Clocks_10(D)->SYSCLK_Frequency, tmp174
 780 01fc 4360     		str	r3, [r0, #4]	@ D.6997, RCC_Clocks_10(D)->HCLK_Frequency
1013:Libraries/STM32F10x_StdPeriph_Driver/src/stm32f10x_rcc.c ****   /* Get PCLK1 prescaler */
1014:Libraries/STM32F10x_StdPeriph_Driver/src/stm32f10x_rcc.c ****   tmp = RCC->CFGR & CFGR_PPRE1_Set_Mask;
 781              		.loc 1 1014 0
 782 01fe 5468     		ldr	r4, [r2, #4]	@ D.6997, MEM[(struct RCC_TypeDef *)1073876992B].CFGR
 783              	.LVL62:
1015:Libraries/STM32F10x_StdPeriph_Driver/src/stm32f10x_rcc.c ****   tmp = tmp >> 8;
 784              		.loc 1 1015 0
 785 0200 C4F30224 		ubfx	r4, r4, #8, #3	@ tmp, D.6997,,
 786              	.LVL63:
1016:Libraries/STM32F10x_StdPeriph_Driver/src/stm32f10x_rcc.c ****   presc = APBAHBPrescTable[tmp];
 787              		.loc 1 1016 0
 788 0204 0C5D     		ldrb	r4, [r1, r4]	@ zero_extendqisi2	@ tmp181, APBAHBPrescTable
 789              	.LVL64:
1017:Libraries/STM32F10x_StdPeriph_Driver/src/stm32f10x_rcc.c ****   /* PCLK1 clock frequency */
1018:Libraries/STM32F10x_StdPeriph_Driver/src/stm32f10x_rcc.c ****   RCC_Clocks->PCLK1_Frequency = RCC_Clocks->HCLK_Frequency >> presc;
 790              		.loc 1 1018 0
 791 0206 23FA04F4 		lsr	r4, r3, r4	@ D.6997, D.6997, tmp181
 792              	.LVL65:
 793 020a 8460     		str	r4, [r0, #8]	@ D.6997, RCC_Clocks_10(D)->PCLK1_Frequency
1019:Libraries/STM32F10x_StdPeriph_Driver/src/stm32f10x_rcc.c ****   /* Get PCLK2 prescaler */
1020:Libraries/STM32F10x_StdPeriph_Driver/src/stm32f10x_rcc.c ****   tmp = RCC->CFGR & CFGR_PPRE2_Set_Mask;
 794              		.loc 1 1020 0
 795 020c 5468     		ldr	r4, [r2, #4]	@ D.6997, MEM[(struct RCC_TypeDef *)1073876992B].CFGR
ARM GAS  /var/folders/lp/0dm50ddn51vc39svyzv_6fp00000gn/T//ccS91u3A.s 			page 33


 796              	.LVL66:
1021:Libraries/STM32F10x_StdPeriph_Driver/src/stm32f10x_rcc.c ****   tmp = tmp >> 11;
 797              		.loc 1 1021 0
 798 020e C4F3C224 		ubfx	r4, r4, #11, #3	@ tmp, D.6997,,
 799              	.LVL67:
1022:Libraries/STM32F10x_StdPeriph_Driver/src/stm32f10x_rcc.c ****   presc = APBAHBPrescTable[tmp];
 800              		.loc 1 1022 0
 801 0212 0C5D     		ldrb	r4, [r1, r4]	@ zero_extendqisi2	@ tmp188, APBAHBPrescTable
 802              	.LVL68:
1023:Libraries/STM32F10x_StdPeriph_Driver/src/stm32f10x_rcc.c ****   /* PCLK2 clock frequency */
1024:Libraries/STM32F10x_StdPeriph_Driver/src/stm32f10x_rcc.c ****   RCC_Clocks->PCLK2_Frequency = RCC_Clocks->HCLK_Frequency >> presc;
 803              		.loc 1 1024 0
 804 0214 E340     		lsrs	r3, r3, r4	@ D.6997, D.6997, tmp188
 805 0216 C360     		str	r3, [r0, #12]	@ D.6997, RCC_Clocks_10(D)->PCLK2_Frequency
1025:Libraries/STM32F10x_StdPeriph_Driver/src/stm32f10x_rcc.c ****   /* Get ADCCLK prescaler */
1026:Libraries/STM32F10x_StdPeriph_Driver/src/stm32f10x_rcc.c ****   tmp = RCC->CFGR & CFGR_ADCPRE_Set_Mask;
 806              		.loc 1 1026 0
 807 0218 5268     		ldr	r2, [r2, #4]	@ D.6997, MEM[(struct RCC_TypeDef *)1073876992B].CFGR
 808              	.LVL69:
1027:Libraries/STM32F10x_StdPeriph_Driver/src/stm32f10x_rcc.c ****   tmp = tmp >> 14;
 809              		.loc 1 1027 0
 810 021a C2F38132 		ubfx	r2, r2, #14, #2	@ tmp, D.6997,,
 811              	.LVL70:
1028:Libraries/STM32F10x_StdPeriph_Driver/src/stm32f10x_rcc.c ****   presc = ADCPrescTable[tmp];
 812              		.loc 1 1028 0
 813 021e 0A44     		add	r2, r2, r1	@ tmp192, tmp171
 814              	.LVL71:
 815 0220 127C     		ldrb	r2, [r2, #16]	@ zero_extendqisi2	@ tmp195, ADCPrescTable
 816              	.LVL72:
1029:Libraries/STM32F10x_StdPeriph_Driver/src/stm32f10x_rcc.c ****   /* ADCCLK clock frequency */
1030:Libraries/STM32F10x_StdPeriph_Driver/src/stm32f10x_rcc.c ****   RCC_Clocks->ADCCLK_Frequency = RCC_Clocks->PCLK2_Frequency / presc;
 817              		.loc 1 1030 0
 818 0222 B3FBF2F3 		udiv	r3, r3, r2	@ D.6997, D.6997, tmp195
 819 0226 0361     		str	r3, [r0, #16]	@ D.6997, RCC_Clocks_10(D)->ADCCLK_Frequency
 820 0228 10BD     		pop	{r4, pc}	@
 821              	.L79:
 822 022a 00BF     		.align	2
 823              	.L78:
 824 022c 00100240 		.word	1073876992
 825 0230 00127A00 		.word	8000000
 826 0234 00093D00 		.word	4000000
 827 0238 00000000 		.word	.LANCHOR0
 828              		.cfi_endproc
 829              	.LFE49:
 830              		.size	RCC_GetClocksFreq, .-RCC_GetClocksFreq
 831              		.align	1
 832              		.global	RCC_AHBPeriphClockCmd
 833              		.thumb
 834              		.thumb_func
 835              		.type	RCC_AHBPeriphClockCmd, %function
 836              	RCC_AHBPeriphClockCmd:
 837              	.LFB50:
1031:Libraries/STM32F10x_StdPeriph_Driver/src/stm32f10x_rcc.c **** }
1032:Libraries/STM32F10x_StdPeriph_Driver/src/stm32f10x_rcc.c **** 
1033:Libraries/STM32F10x_StdPeriph_Driver/src/stm32f10x_rcc.c **** /**
1034:Libraries/STM32F10x_StdPeriph_Driver/src/stm32f10x_rcc.c ****   * @brief  Enables or disables the AHB peripheral clock.
1035:Libraries/STM32F10x_StdPeriph_Driver/src/stm32f10x_rcc.c ****   * @param  RCC_AHBPeriph: specifies the AHB peripheral to gates its clock.
ARM GAS  /var/folders/lp/0dm50ddn51vc39svyzv_6fp00000gn/T//ccS91u3A.s 			page 34


1036:Libraries/STM32F10x_StdPeriph_Driver/src/stm32f10x_rcc.c ****   *   
1037:Libraries/STM32F10x_StdPeriph_Driver/src/stm32f10x_rcc.c ****   *   For @b STM32_Connectivity_line_devices, this parameter can be any combination
1038:Libraries/STM32F10x_StdPeriph_Driver/src/stm32f10x_rcc.c ****   *   of the following values:        
1039:Libraries/STM32F10x_StdPeriph_Driver/src/stm32f10x_rcc.c ****   *     @arg RCC_AHBPeriph_DMA1
1040:Libraries/STM32F10x_StdPeriph_Driver/src/stm32f10x_rcc.c ****   *     @arg RCC_AHBPeriph_DMA2
1041:Libraries/STM32F10x_StdPeriph_Driver/src/stm32f10x_rcc.c ****   *     @arg RCC_AHBPeriph_SRAM
1042:Libraries/STM32F10x_StdPeriph_Driver/src/stm32f10x_rcc.c ****   *     @arg RCC_AHBPeriph_FLITF
1043:Libraries/STM32F10x_StdPeriph_Driver/src/stm32f10x_rcc.c ****   *     @arg RCC_AHBPeriph_CRC
1044:Libraries/STM32F10x_StdPeriph_Driver/src/stm32f10x_rcc.c ****   *     @arg RCC_AHBPeriph_OTG_FS    
1045:Libraries/STM32F10x_StdPeriph_Driver/src/stm32f10x_rcc.c ****   *     @arg RCC_AHBPeriph_ETH_MAC   
1046:Libraries/STM32F10x_StdPeriph_Driver/src/stm32f10x_rcc.c ****   *     @arg RCC_AHBPeriph_ETH_MAC_Tx
1047:Libraries/STM32F10x_StdPeriph_Driver/src/stm32f10x_rcc.c ****   *     @arg RCC_AHBPeriph_ETH_MAC_Rx
1048:Libraries/STM32F10x_StdPeriph_Driver/src/stm32f10x_rcc.c ****   * 
1049:Libraries/STM32F10x_StdPeriph_Driver/src/stm32f10x_rcc.c ****   *   For @b other_STM32_devices, this parameter can be any combination of the 
1050:Libraries/STM32F10x_StdPeriph_Driver/src/stm32f10x_rcc.c ****   *   following values:        
1051:Libraries/STM32F10x_StdPeriph_Driver/src/stm32f10x_rcc.c ****   *     @arg RCC_AHBPeriph_DMA1
1052:Libraries/STM32F10x_StdPeriph_Driver/src/stm32f10x_rcc.c ****   *     @arg RCC_AHBPeriph_DMA2
1053:Libraries/STM32F10x_StdPeriph_Driver/src/stm32f10x_rcc.c ****   *     @arg RCC_AHBPeriph_SRAM
1054:Libraries/STM32F10x_StdPeriph_Driver/src/stm32f10x_rcc.c ****   *     @arg RCC_AHBPeriph_FLITF
1055:Libraries/STM32F10x_StdPeriph_Driver/src/stm32f10x_rcc.c ****   *     @arg RCC_AHBPeriph_CRC
1056:Libraries/STM32F10x_StdPeriph_Driver/src/stm32f10x_rcc.c ****   *     @arg RCC_AHBPeriph_FSMC
1057:Libraries/STM32F10x_StdPeriph_Driver/src/stm32f10x_rcc.c ****   *     @arg RCC_AHBPeriph_SDIO
1058:Libraries/STM32F10x_StdPeriph_Driver/src/stm32f10x_rcc.c ****   *   
1059:Libraries/STM32F10x_StdPeriph_Driver/src/stm32f10x_rcc.c ****   * @note SRAM and FLITF clock can be disabled only during sleep mode.
1060:Libraries/STM32F10x_StdPeriph_Driver/src/stm32f10x_rcc.c ****   * @param  NewState: new state of the specified peripheral clock.
1061:Libraries/STM32F10x_StdPeriph_Driver/src/stm32f10x_rcc.c ****   *   This parameter can be: ENABLE or DISABLE.
1062:Libraries/STM32F10x_StdPeriph_Driver/src/stm32f10x_rcc.c ****   * @retval None
1063:Libraries/STM32F10x_StdPeriph_Driver/src/stm32f10x_rcc.c ****   */
1064:Libraries/STM32F10x_StdPeriph_Driver/src/stm32f10x_rcc.c **** void RCC_AHBPeriphClockCmd(uint32_t RCC_AHBPeriph, FunctionalState NewState)
1065:Libraries/STM32F10x_StdPeriph_Driver/src/stm32f10x_rcc.c **** {
 838              		.loc 1 1065 0
 839              		.cfi_startproc
 840              		@ args = 0, pretend = 0, frame = 0
 841              		@ frame_needed = 0, uses_anonymous_args = 0
 842              		@ link register save eliminated.
 843              	.LVL73:
 844 023c 044B     		ldr	r3, .L84	@ tmp122,
1066:Libraries/STM32F10x_StdPeriph_Driver/src/stm32f10x_rcc.c ****   /* Check the parameters */
1067:Libraries/STM32F10x_StdPeriph_Driver/src/stm32f10x_rcc.c ****   assert_param(IS_RCC_AHB_PERIPH(RCC_AHBPeriph));
1068:Libraries/STM32F10x_StdPeriph_Driver/src/stm32f10x_rcc.c ****   assert_param(IS_FUNCTIONAL_STATE(NewState));
1069:Libraries/STM32F10x_StdPeriph_Driver/src/stm32f10x_rcc.c **** 
1070:Libraries/STM32F10x_StdPeriph_Driver/src/stm32f10x_rcc.c ****   if (NewState != DISABLE)
1071:Libraries/STM32F10x_StdPeriph_Driver/src/stm32f10x_rcc.c ****   {
1072:Libraries/STM32F10x_StdPeriph_Driver/src/stm32f10x_rcc.c ****     RCC->AHBENR |= RCC_AHBPeriph;
 845              		.loc 1 1072 0
 846 023e 5A69     		ldr	r2, [r3, #20]	@ D.7001,
1070:Libraries/STM32F10x_StdPeriph_Driver/src/stm32f10x_rcc.c ****   {
 847              		.loc 1 1070 0
 848 0240 09B1     		cbz	r1, .L81	@ NewState,
 849              		.loc 1 1072 0
 850 0242 1043     		orrs	r0, r0, r2	@, D.7001, RCC_AHBPeriph, D.7001
 851              	.LVL74:
 852 0244 01E0     		b	.L83	@
 853              	.LVL75:
 854              	.L81:
1073:Libraries/STM32F10x_StdPeriph_Driver/src/stm32f10x_rcc.c ****   }
1074:Libraries/STM32F10x_StdPeriph_Driver/src/stm32f10x_rcc.c ****   else
ARM GAS  /var/folders/lp/0dm50ddn51vc39svyzv_6fp00000gn/T//ccS91u3A.s 			page 35


1075:Libraries/STM32F10x_StdPeriph_Driver/src/stm32f10x_rcc.c ****   {
1076:Libraries/STM32F10x_StdPeriph_Driver/src/stm32f10x_rcc.c ****     RCC->AHBENR &= ~RCC_AHBPeriph;
 855              		.loc 1 1076 0
 856 0246 22EA0000 		bic	r0, r2, r0	@ D.7001, D.7001, RCC_AHBPeriph
 857              	.LVL76:
 858              	.L83:
 859 024a 5861     		str	r0, [r3, #20]	@ D.7001,
 860 024c 7047     		bx	lr	@
 861              	.L85:
 862 024e 00BF     		.align	2
 863              	.L84:
 864 0250 00100240 		.word	1073876992
 865              		.cfi_endproc
 866              	.LFE50:
 867              		.size	RCC_AHBPeriphClockCmd, .-RCC_AHBPeriphClockCmd
 868              		.align	1
 869              		.global	RCC_APB2PeriphClockCmd
 870              		.thumb
 871              		.thumb_func
 872              		.type	RCC_APB2PeriphClockCmd, %function
 873              	RCC_APB2PeriphClockCmd:
 874              	.LFB51:
1077:Libraries/STM32F10x_StdPeriph_Driver/src/stm32f10x_rcc.c ****   }
1078:Libraries/STM32F10x_StdPeriph_Driver/src/stm32f10x_rcc.c **** }
1079:Libraries/STM32F10x_StdPeriph_Driver/src/stm32f10x_rcc.c **** 
1080:Libraries/STM32F10x_StdPeriph_Driver/src/stm32f10x_rcc.c **** /**
1081:Libraries/STM32F10x_StdPeriph_Driver/src/stm32f10x_rcc.c ****   * @brief  Enables or disables the High Speed APB (APB2) peripheral clock.
1082:Libraries/STM32F10x_StdPeriph_Driver/src/stm32f10x_rcc.c ****   * @param  RCC_APB2Periph: specifies the APB2 peripheral to gates its clock.
1083:Libraries/STM32F10x_StdPeriph_Driver/src/stm32f10x_rcc.c ****   *   This parameter can be any combination of the following values:
1084:Libraries/STM32F10x_StdPeriph_Driver/src/stm32f10x_rcc.c ****   *     @arg RCC_APB2Periph_AFIO, RCC_APB2Periph_GPIOA, RCC_APB2Periph_GPIOB,
1085:Libraries/STM32F10x_StdPeriph_Driver/src/stm32f10x_rcc.c ****   *          RCC_APB2Periph_GPIOC, RCC_APB2Periph_GPIOD, RCC_APB2Periph_GPIOE,
1086:Libraries/STM32F10x_StdPeriph_Driver/src/stm32f10x_rcc.c ****   *          RCC_APB2Periph_GPIOF, RCC_APB2Periph_GPIOG, RCC_APB2Periph_ADC1,
1087:Libraries/STM32F10x_StdPeriph_Driver/src/stm32f10x_rcc.c ****   *          RCC_APB2Periph_ADC2, RCC_APB2Periph_TIM1, RCC_APB2Periph_SPI1,
1088:Libraries/STM32F10x_StdPeriph_Driver/src/stm32f10x_rcc.c ****   *          RCC_APB2Periph_TIM8, RCC_APB2Periph_USART1, RCC_APB2Periph_ADC3,
1089:Libraries/STM32F10x_StdPeriph_Driver/src/stm32f10x_rcc.c ****   *          RCC_APB2Periph_TIM15, RCC_APB2Periph_TIM16, RCC_APB2Periph_TIM17,
1090:Libraries/STM32F10x_StdPeriph_Driver/src/stm32f10x_rcc.c ****   *          RCC_APB2Periph_TIM9, RCC_APB2Periph_TIM10, RCC_APB2Periph_TIM11     
1091:Libraries/STM32F10x_StdPeriph_Driver/src/stm32f10x_rcc.c ****   * @param  NewState: new state of the specified peripheral clock.
1092:Libraries/STM32F10x_StdPeriph_Driver/src/stm32f10x_rcc.c ****   *   This parameter can be: ENABLE or DISABLE.
1093:Libraries/STM32F10x_StdPeriph_Driver/src/stm32f10x_rcc.c ****   * @retval None
1094:Libraries/STM32F10x_StdPeriph_Driver/src/stm32f10x_rcc.c ****   */
1095:Libraries/STM32F10x_StdPeriph_Driver/src/stm32f10x_rcc.c **** void RCC_APB2PeriphClockCmd(uint32_t RCC_APB2Periph, FunctionalState NewState)
1096:Libraries/STM32F10x_StdPeriph_Driver/src/stm32f10x_rcc.c **** {
 875              		.loc 1 1096 0
 876              		.cfi_startproc
 877              		@ args = 0, pretend = 0, frame = 0
 878              		@ frame_needed = 0, uses_anonymous_args = 0
 879              		@ link register save eliminated.
 880              	.LVL77:
 881 0254 044B     		ldr	r3, .L90	@ tmp122,
1097:Libraries/STM32F10x_StdPeriph_Driver/src/stm32f10x_rcc.c ****   /* Check the parameters */
1098:Libraries/STM32F10x_StdPeriph_Driver/src/stm32f10x_rcc.c ****   assert_param(IS_RCC_APB2_PERIPH(RCC_APB2Periph));
1099:Libraries/STM32F10x_StdPeriph_Driver/src/stm32f10x_rcc.c ****   assert_param(IS_FUNCTIONAL_STATE(NewState));
1100:Libraries/STM32F10x_StdPeriph_Driver/src/stm32f10x_rcc.c ****   if (NewState != DISABLE)
1101:Libraries/STM32F10x_StdPeriph_Driver/src/stm32f10x_rcc.c ****   {
1102:Libraries/STM32F10x_StdPeriph_Driver/src/stm32f10x_rcc.c ****     RCC->APB2ENR |= RCC_APB2Periph;
 882              		.loc 1 1102 0
 883 0256 9A69     		ldr	r2, [r3, #24]	@ D.7004,
ARM GAS  /var/folders/lp/0dm50ddn51vc39svyzv_6fp00000gn/T//ccS91u3A.s 			page 36


1100:Libraries/STM32F10x_StdPeriph_Driver/src/stm32f10x_rcc.c ****   {
 884              		.loc 1 1100 0
 885 0258 09B1     		cbz	r1, .L87	@ NewState,
 886              		.loc 1 1102 0
 887 025a 1043     		orrs	r0, r0, r2	@, D.7004, RCC_APB2Periph, D.7004
 888              	.LVL78:
 889 025c 01E0     		b	.L89	@
 890              	.LVL79:
 891              	.L87:
1103:Libraries/STM32F10x_StdPeriph_Driver/src/stm32f10x_rcc.c ****   }
1104:Libraries/STM32F10x_StdPeriph_Driver/src/stm32f10x_rcc.c ****   else
1105:Libraries/STM32F10x_StdPeriph_Driver/src/stm32f10x_rcc.c ****   {
1106:Libraries/STM32F10x_StdPeriph_Driver/src/stm32f10x_rcc.c ****     RCC->APB2ENR &= ~RCC_APB2Periph;
 892              		.loc 1 1106 0
 893 025e 22EA0000 		bic	r0, r2, r0	@ D.7004, D.7004, RCC_APB2Periph
 894              	.LVL80:
 895              	.L89:
 896 0262 9861     		str	r0, [r3, #24]	@ D.7004,
 897 0264 7047     		bx	lr	@
 898              	.L91:
 899 0266 00BF     		.align	2
 900              	.L90:
 901 0268 00100240 		.word	1073876992
 902              		.cfi_endproc
 903              	.LFE51:
 904              		.size	RCC_APB2PeriphClockCmd, .-RCC_APB2PeriphClockCmd
 905              		.align	1
 906              		.global	RCC_APB1PeriphClockCmd
 907              		.thumb
 908              		.thumb_func
 909              		.type	RCC_APB1PeriphClockCmd, %function
 910              	RCC_APB1PeriphClockCmd:
 911              	.LFB52:
1107:Libraries/STM32F10x_StdPeriph_Driver/src/stm32f10x_rcc.c ****   }
1108:Libraries/STM32F10x_StdPeriph_Driver/src/stm32f10x_rcc.c **** }
1109:Libraries/STM32F10x_StdPeriph_Driver/src/stm32f10x_rcc.c **** 
1110:Libraries/STM32F10x_StdPeriph_Driver/src/stm32f10x_rcc.c **** /**
1111:Libraries/STM32F10x_StdPeriph_Driver/src/stm32f10x_rcc.c ****   * @brief  Enables or disables the Low Speed APB (APB1) peripheral clock.
1112:Libraries/STM32F10x_StdPeriph_Driver/src/stm32f10x_rcc.c ****   * @param  RCC_APB1Periph: specifies the APB1 peripheral to gates its clock.
1113:Libraries/STM32F10x_StdPeriph_Driver/src/stm32f10x_rcc.c ****   *   This parameter can be any combination of the following values:
1114:Libraries/STM32F10x_StdPeriph_Driver/src/stm32f10x_rcc.c ****   *     @arg RCC_APB1Periph_TIM2, RCC_APB1Periph_TIM3, RCC_APB1Periph_TIM4,
1115:Libraries/STM32F10x_StdPeriph_Driver/src/stm32f10x_rcc.c ****   *          RCC_APB1Periph_TIM5, RCC_APB1Periph_TIM6, RCC_APB1Periph_TIM7,
1116:Libraries/STM32F10x_StdPeriph_Driver/src/stm32f10x_rcc.c ****   *          RCC_APB1Periph_WWDG, RCC_APB1Periph_SPI2, RCC_APB1Periph_SPI3,
1117:Libraries/STM32F10x_StdPeriph_Driver/src/stm32f10x_rcc.c ****   *          RCC_APB1Periph_USART2, RCC_APB1Periph_USART3, RCC_APB1Periph_USART4, 
1118:Libraries/STM32F10x_StdPeriph_Driver/src/stm32f10x_rcc.c ****   *          RCC_APB1Periph_USART5, RCC_APB1Periph_I2C1, RCC_APB1Periph_I2C2,
1119:Libraries/STM32F10x_StdPeriph_Driver/src/stm32f10x_rcc.c ****   *          RCC_APB1Periph_USB, RCC_APB1Periph_CAN1, RCC_APB1Periph_BKP,
1120:Libraries/STM32F10x_StdPeriph_Driver/src/stm32f10x_rcc.c ****   *          RCC_APB1Periph_PWR, RCC_APB1Periph_DAC, RCC_APB1Periph_CEC,
1121:Libraries/STM32F10x_StdPeriph_Driver/src/stm32f10x_rcc.c ****   *          RCC_APB1Periph_TIM12, RCC_APB1Periph_TIM13, RCC_APB1Periph_TIM14
1122:Libraries/STM32F10x_StdPeriph_Driver/src/stm32f10x_rcc.c ****   * @param  NewState: new state of the specified peripheral clock.
1123:Libraries/STM32F10x_StdPeriph_Driver/src/stm32f10x_rcc.c ****   *   This parameter can be: ENABLE or DISABLE.
1124:Libraries/STM32F10x_StdPeriph_Driver/src/stm32f10x_rcc.c ****   * @retval None
1125:Libraries/STM32F10x_StdPeriph_Driver/src/stm32f10x_rcc.c ****   */
1126:Libraries/STM32F10x_StdPeriph_Driver/src/stm32f10x_rcc.c **** void RCC_APB1PeriphClockCmd(uint32_t RCC_APB1Periph, FunctionalState NewState)
1127:Libraries/STM32F10x_StdPeriph_Driver/src/stm32f10x_rcc.c **** {
 912              		.loc 1 1127 0
 913              		.cfi_startproc
 914              		@ args = 0, pretend = 0, frame = 0
ARM GAS  /var/folders/lp/0dm50ddn51vc39svyzv_6fp00000gn/T//ccS91u3A.s 			page 37


 915              		@ frame_needed = 0, uses_anonymous_args = 0
 916              		@ link register save eliminated.
 917              	.LVL81:
 918 026c 044B     		ldr	r3, .L96	@ tmp122,
1128:Libraries/STM32F10x_StdPeriph_Driver/src/stm32f10x_rcc.c ****   /* Check the parameters */
1129:Libraries/STM32F10x_StdPeriph_Driver/src/stm32f10x_rcc.c ****   assert_param(IS_RCC_APB1_PERIPH(RCC_APB1Periph));
1130:Libraries/STM32F10x_StdPeriph_Driver/src/stm32f10x_rcc.c ****   assert_param(IS_FUNCTIONAL_STATE(NewState));
1131:Libraries/STM32F10x_StdPeriph_Driver/src/stm32f10x_rcc.c ****   if (NewState != DISABLE)
1132:Libraries/STM32F10x_StdPeriph_Driver/src/stm32f10x_rcc.c ****   {
1133:Libraries/STM32F10x_StdPeriph_Driver/src/stm32f10x_rcc.c ****     RCC->APB1ENR |= RCC_APB1Periph;
 919              		.loc 1 1133 0
 920 026e DA69     		ldr	r2, [r3, #28]	@ D.7007,
1131:Libraries/STM32F10x_StdPeriph_Driver/src/stm32f10x_rcc.c ****   {
 921              		.loc 1 1131 0
 922 0270 09B1     		cbz	r1, .L93	@ NewState,
 923              		.loc 1 1133 0
 924 0272 1043     		orrs	r0, r0, r2	@, D.7007, RCC_APB1Periph, D.7007
 925              	.LVL82:
 926 0274 01E0     		b	.L95	@
 927              	.LVL83:
 928              	.L93:
1134:Libraries/STM32F10x_StdPeriph_Driver/src/stm32f10x_rcc.c ****   }
1135:Libraries/STM32F10x_StdPeriph_Driver/src/stm32f10x_rcc.c ****   else
1136:Libraries/STM32F10x_StdPeriph_Driver/src/stm32f10x_rcc.c ****   {
1137:Libraries/STM32F10x_StdPeriph_Driver/src/stm32f10x_rcc.c ****     RCC->APB1ENR &= ~RCC_APB1Periph;
 929              		.loc 1 1137 0
 930 0276 22EA0000 		bic	r0, r2, r0	@ D.7007, D.7007, RCC_APB1Periph
 931              	.LVL84:
 932              	.L95:
 933 027a D861     		str	r0, [r3, #28]	@ D.7007,
 934 027c 7047     		bx	lr	@
 935              	.L97:
 936 027e 00BF     		.align	2
 937              	.L96:
 938 0280 00100240 		.word	1073876992
 939              		.cfi_endproc
 940              	.LFE52:
 941              		.size	RCC_APB1PeriphClockCmd, .-RCC_APB1PeriphClockCmd
 942              		.align	1
 943              		.global	RCC_APB2PeriphResetCmd
 944              		.thumb
 945              		.thumb_func
 946              		.type	RCC_APB2PeriphResetCmd, %function
 947              	RCC_APB2PeriphResetCmd:
 948              	.LFB53:
1138:Libraries/STM32F10x_StdPeriph_Driver/src/stm32f10x_rcc.c ****   }
1139:Libraries/STM32F10x_StdPeriph_Driver/src/stm32f10x_rcc.c **** }
1140:Libraries/STM32F10x_StdPeriph_Driver/src/stm32f10x_rcc.c **** 
1141:Libraries/STM32F10x_StdPeriph_Driver/src/stm32f10x_rcc.c **** #ifdef STM32F10X_CL
1142:Libraries/STM32F10x_StdPeriph_Driver/src/stm32f10x_rcc.c **** /**
1143:Libraries/STM32F10x_StdPeriph_Driver/src/stm32f10x_rcc.c ****   * @brief  Forces or releases AHB peripheral reset.
1144:Libraries/STM32F10x_StdPeriph_Driver/src/stm32f10x_rcc.c ****   * @note   This function applies only to STM32 Connectivity line devices.
1145:Libraries/STM32F10x_StdPeriph_Driver/src/stm32f10x_rcc.c ****   * @param  RCC_AHBPeriph: specifies the AHB peripheral to reset.
1146:Libraries/STM32F10x_StdPeriph_Driver/src/stm32f10x_rcc.c ****   *   This parameter can be any combination of the following values:
1147:Libraries/STM32F10x_StdPeriph_Driver/src/stm32f10x_rcc.c ****   *     @arg RCC_AHBPeriph_OTG_FS 
1148:Libraries/STM32F10x_StdPeriph_Driver/src/stm32f10x_rcc.c ****   *     @arg RCC_AHBPeriph_ETH_MAC
1149:Libraries/STM32F10x_StdPeriph_Driver/src/stm32f10x_rcc.c ****   * @param  NewState: new state of the specified peripheral reset.
ARM GAS  /var/folders/lp/0dm50ddn51vc39svyzv_6fp00000gn/T//ccS91u3A.s 			page 38


1150:Libraries/STM32F10x_StdPeriph_Driver/src/stm32f10x_rcc.c ****   *   This parameter can be: ENABLE or DISABLE.
1151:Libraries/STM32F10x_StdPeriph_Driver/src/stm32f10x_rcc.c ****   * @retval None
1152:Libraries/STM32F10x_StdPeriph_Driver/src/stm32f10x_rcc.c ****   */
1153:Libraries/STM32F10x_StdPeriph_Driver/src/stm32f10x_rcc.c **** void RCC_AHBPeriphResetCmd(uint32_t RCC_AHBPeriph, FunctionalState NewState)
1154:Libraries/STM32F10x_StdPeriph_Driver/src/stm32f10x_rcc.c **** {
1155:Libraries/STM32F10x_StdPeriph_Driver/src/stm32f10x_rcc.c ****   /* Check the parameters */
1156:Libraries/STM32F10x_StdPeriph_Driver/src/stm32f10x_rcc.c ****   assert_param(IS_RCC_AHB_PERIPH_RESET(RCC_AHBPeriph));
1157:Libraries/STM32F10x_StdPeriph_Driver/src/stm32f10x_rcc.c ****   assert_param(IS_FUNCTIONAL_STATE(NewState));
1158:Libraries/STM32F10x_StdPeriph_Driver/src/stm32f10x_rcc.c **** 
1159:Libraries/STM32F10x_StdPeriph_Driver/src/stm32f10x_rcc.c ****   if (NewState != DISABLE)
1160:Libraries/STM32F10x_StdPeriph_Driver/src/stm32f10x_rcc.c ****   {
1161:Libraries/STM32F10x_StdPeriph_Driver/src/stm32f10x_rcc.c ****     RCC->AHBRSTR |= RCC_AHBPeriph;
1162:Libraries/STM32F10x_StdPeriph_Driver/src/stm32f10x_rcc.c ****   }
1163:Libraries/STM32F10x_StdPeriph_Driver/src/stm32f10x_rcc.c ****   else
1164:Libraries/STM32F10x_StdPeriph_Driver/src/stm32f10x_rcc.c ****   {
1165:Libraries/STM32F10x_StdPeriph_Driver/src/stm32f10x_rcc.c ****     RCC->AHBRSTR &= ~RCC_AHBPeriph;
1166:Libraries/STM32F10x_StdPeriph_Driver/src/stm32f10x_rcc.c ****   }
1167:Libraries/STM32F10x_StdPeriph_Driver/src/stm32f10x_rcc.c **** }
1168:Libraries/STM32F10x_StdPeriph_Driver/src/stm32f10x_rcc.c **** #endif /* STM32F10X_CL */ 
1169:Libraries/STM32F10x_StdPeriph_Driver/src/stm32f10x_rcc.c **** 
1170:Libraries/STM32F10x_StdPeriph_Driver/src/stm32f10x_rcc.c **** /**
1171:Libraries/STM32F10x_StdPeriph_Driver/src/stm32f10x_rcc.c ****   * @brief  Forces or releases High Speed APB (APB2) peripheral reset.
1172:Libraries/STM32F10x_StdPeriph_Driver/src/stm32f10x_rcc.c ****   * @param  RCC_APB2Periph: specifies the APB2 peripheral to reset.
1173:Libraries/STM32F10x_StdPeriph_Driver/src/stm32f10x_rcc.c ****   *   This parameter can be any combination of the following values:
1174:Libraries/STM32F10x_StdPeriph_Driver/src/stm32f10x_rcc.c ****   *     @arg RCC_APB2Periph_AFIO, RCC_APB2Periph_GPIOA, RCC_APB2Periph_GPIOB,
1175:Libraries/STM32F10x_StdPeriph_Driver/src/stm32f10x_rcc.c ****   *          RCC_APB2Periph_GPIOC, RCC_APB2Periph_GPIOD, RCC_APB2Periph_GPIOE,
1176:Libraries/STM32F10x_StdPeriph_Driver/src/stm32f10x_rcc.c ****   *          RCC_APB2Periph_GPIOF, RCC_APB2Periph_GPIOG, RCC_APB2Periph_ADC1,
1177:Libraries/STM32F10x_StdPeriph_Driver/src/stm32f10x_rcc.c ****   *          RCC_APB2Periph_ADC2, RCC_APB2Periph_TIM1, RCC_APB2Periph_SPI1,
1178:Libraries/STM32F10x_StdPeriph_Driver/src/stm32f10x_rcc.c ****   *          RCC_APB2Periph_TIM8, RCC_APB2Periph_USART1, RCC_APB2Periph_ADC3,
1179:Libraries/STM32F10x_StdPeriph_Driver/src/stm32f10x_rcc.c ****   *          RCC_APB2Periph_TIM15, RCC_APB2Periph_TIM16, RCC_APB2Periph_TIM17,
1180:Libraries/STM32F10x_StdPeriph_Driver/src/stm32f10x_rcc.c ****   *          RCC_APB2Periph_TIM9, RCC_APB2Periph_TIM10, RCC_APB2Periph_TIM11  
1181:Libraries/STM32F10x_StdPeriph_Driver/src/stm32f10x_rcc.c ****   * @param  NewState: new state of the specified peripheral reset.
1182:Libraries/STM32F10x_StdPeriph_Driver/src/stm32f10x_rcc.c ****   *   This parameter can be: ENABLE or DISABLE.
1183:Libraries/STM32F10x_StdPeriph_Driver/src/stm32f10x_rcc.c ****   * @retval None
1184:Libraries/STM32F10x_StdPeriph_Driver/src/stm32f10x_rcc.c ****   */
1185:Libraries/STM32F10x_StdPeriph_Driver/src/stm32f10x_rcc.c **** void RCC_APB2PeriphResetCmd(uint32_t RCC_APB2Periph, FunctionalState NewState)
1186:Libraries/STM32F10x_StdPeriph_Driver/src/stm32f10x_rcc.c **** {
 949              		.loc 1 1186 0
 950              		.cfi_startproc
 951              		@ args = 0, pretend = 0, frame = 0
 952              		@ frame_needed = 0, uses_anonymous_args = 0
 953              		@ link register save eliminated.
 954              	.LVL85:
 955 0284 044B     		ldr	r3, .L102	@ tmp122,
1187:Libraries/STM32F10x_StdPeriph_Driver/src/stm32f10x_rcc.c ****   /* Check the parameters */
1188:Libraries/STM32F10x_StdPeriph_Driver/src/stm32f10x_rcc.c ****   assert_param(IS_RCC_APB2_PERIPH(RCC_APB2Periph));
1189:Libraries/STM32F10x_StdPeriph_Driver/src/stm32f10x_rcc.c ****   assert_param(IS_FUNCTIONAL_STATE(NewState));
1190:Libraries/STM32F10x_StdPeriph_Driver/src/stm32f10x_rcc.c ****   if (NewState != DISABLE)
1191:Libraries/STM32F10x_StdPeriph_Driver/src/stm32f10x_rcc.c ****   {
1192:Libraries/STM32F10x_StdPeriph_Driver/src/stm32f10x_rcc.c ****     RCC->APB2RSTR |= RCC_APB2Periph;
 956              		.loc 1 1192 0
 957 0286 DA68     		ldr	r2, [r3, #12]	@ D.7010,
1190:Libraries/STM32F10x_StdPeriph_Driver/src/stm32f10x_rcc.c ****   {
 958              		.loc 1 1190 0
 959 0288 09B1     		cbz	r1, .L99	@ NewState,
 960              		.loc 1 1192 0
 961 028a 1043     		orrs	r0, r0, r2	@, D.7010, RCC_APB2Periph, D.7010
ARM GAS  /var/folders/lp/0dm50ddn51vc39svyzv_6fp00000gn/T//ccS91u3A.s 			page 39


 962              	.LVL86:
 963 028c 01E0     		b	.L101	@
 964              	.LVL87:
 965              	.L99:
1193:Libraries/STM32F10x_StdPeriph_Driver/src/stm32f10x_rcc.c ****   }
1194:Libraries/STM32F10x_StdPeriph_Driver/src/stm32f10x_rcc.c ****   else
1195:Libraries/STM32F10x_StdPeriph_Driver/src/stm32f10x_rcc.c ****   {
1196:Libraries/STM32F10x_StdPeriph_Driver/src/stm32f10x_rcc.c ****     RCC->APB2RSTR &= ~RCC_APB2Periph;
 966              		.loc 1 1196 0
 967 028e 22EA0000 		bic	r0, r2, r0	@ D.7010, D.7010, RCC_APB2Periph
 968              	.LVL88:
 969              	.L101:
 970 0292 D860     		str	r0, [r3, #12]	@ D.7010,
 971 0294 7047     		bx	lr	@
 972              	.L103:
 973 0296 00BF     		.align	2
 974              	.L102:
 975 0298 00100240 		.word	1073876992
 976              		.cfi_endproc
 977              	.LFE53:
 978              		.size	RCC_APB2PeriphResetCmd, .-RCC_APB2PeriphResetCmd
 979              		.align	1
 980              		.global	RCC_APB1PeriphResetCmd
 981              		.thumb
 982              		.thumb_func
 983              		.type	RCC_APB1PeriphResetCmd, %function
 984              	RCC_APB1PeriphResetCmd:
 985              	.LFB54:
1197:Libraries/STM32F10x_StdPeriph_Driver/src/stm32f10x_rcc.c ****   }
1198:Libraries/STM32F10x_StdPeriph_Driver/src/stm32f10x_rcc.c **** }
1199:Libraries/STM32F10x_StdPeriph_Driver/src/stm32f10x_rcc.c **** 
1200:Libraries/STM32F10x_StdPeriph_Driver/src/stm32f10x_rcc.c **** /**
1201:Libraries/STM32F10x_StdPeriph_Driver/src/stm32f10x_rcc.c ****   * @brief  Forces or releases Low Speed APB (APB1) peripheral reset.
1202:Libraries/STM32F10x_StdPeriph_Driver/src/stm32f10x_rcc.c ****   * @param  RCC_APB1Periph: specifies the APB1 peripheral to reset.
1203:Libraries/STM32F10x_StdPeriph_Driver/src/stm32f10x_rcc.c ****   *   This parameter can be any combination of the following values:
1204:Libraries/STM32F10x_StdPeriph_Driver/src/stm32f10x_rcc.c ****   *     @arg RCC_APB1Periph_TIM2, RCC_APB1Periph_TIM3, RCC_APB1Periph_TIM4,
1205:Libraries/STM32F10x_StdPeriph_Driver/src/stm32f10x_rcc.c ****   *          RCC_APB1Periph_TIM5, RCC_APB1Periph_TIM6, RCC_APB1Periph_TIM7,
1206:Libraries/STM32F10x_StdPeriph_Driver/src/stm32f10x_rcc.c ****   *          RCC_APB1Periph_WWDG, RCC_APB1Periph_SPI2, RCC_APB1Periph_SPI3,
1207:Libraries/STM32F10x_StdPeriph_Driver/src/stm32f10x_rcc.c ****   *          RCC_APB1Periph_USART2, RCC_APB1Periph_USART3, RCC_APB1Periph_USART4, 
1208:Libraries/STM32F10x_StdPeriph_Driver/src/stm32f10x_rcc.c ****   *          RCC_APB1Periph_USART5, RCC_APB1Periph_I2C1, RCC_APB1Periph_I2C2,
1209:Libraries/STM32F10x_StdPeriph_Driver/src/stm32f10x_rcc.c ****   *          RCC_APB1Periph_USB, RCC_APB1Periph_CAN1, RCC_APB1Periph_BKP,
1210:Libraries/STM32F10x_StdPeriph_Driver/src/stm32f10x_rcc.c ****   *          RCC_APB1Periph_PWR, RCC_APB1Periph_DAC, RCC_APB1Periph_CEC,
1211:Libraries/STM32F10x_StdPeriph_Driver/src/stm32f10x_rcc.c ****   *          RCC_APB1Periph_TIM12, RCC_APB1Periph_TIM13, RCC_APB1Periph_TIM14  
1212:Libraries/STM32F10x_StdPeriph_Driver/src/stm32f10x_rcc.c ****   * @param  NewState: new state of the specified peripheral clock.
1213:Libraries/STM32F10x_StdPeriph_Driver/src/stm32f10x_rcc.c ****   *   This parameter can be: ENABLE or DISABLE.
1214:Libraries/STM32F10x_StdPeriph_Driver/src/stm32f10x_rcc.c ****   * @retval None
1215:Libraries/STM32F10x_StdPeriph_Driver/src/stm32f10x_rcc.c ****   */
1216:Libraries/STM32F10x_StdPeriph_Driver/src/stm32f10x_rcc.c **** void RCC_APB1PeriphResetCmd(uint32_t RCC_APB1Periph, FunctionalState NewState)
1217:Libraries/STM32F10x_StdPeriph_Driver/src/stm32f10x_rcc.c **** {
 986              		.loc 1 1217 0
 987              		.cfi_startproc
 988              		@ args = 0, pretend = 0, frame = 0
 989              		@ frame_needed = 0, uses_anonymous_args = 0
 990              		@ link register save eliminated.
 991              	.LVL89:
 992 029c 044B     		ldr	r3, .L108	@ tmp122,
1218:Libraries/STM32F10x_StdPeriph_Driver/src/stm32f10x_rcc.c ****   /* Check the parameters */
ARM GAS  /var/folders/lp/0dm50ddn51vc39svyzv_6fp00000gn/T//ccS91u3A.s 			page 40


1219:Libraries/STM32F10x_StdPeriph_Driver/src/stm32f10x_rcc.c ****   assert_param(IS_RCC_APB1_PERIPH(RCC_APB1Periph));
1220:Libraries/STM32F10x_StdPeriph_Driver/src/stm32f10x_rcc.c ****   assert_param(IS_FUNCTIONAL_STATE(NewState));
1221:Libraries/STM32F10x_StdPeriph_Driver/src/stm32f10x_rcc.c ****   if (NewState != DISABLE)
1222:Libraries/STM32F10x_StdPeriph_Driver/src/stm32f10x_rcc.c ****   {
1223:Libraries/STM32F10x_StdPeriph_Driver/src/stm32f10x_rcc.c ****     RCC->APB1RSTR |= RCC_APB1Periph;
 993              		.loc 1 1223 0
 994 029e 1A69     		ldr	r2, [r3, #16]	@ D.7013,
1221:Libraries/STM32F10x_StdPeriph_Driver/src/stm32f10x_rcc.c ****   {
 995              		.loc 1 1221 0
 996 02a0 09B1     		cbz	r1, .L105	@ NewState,
 997              		.loc 1 1223 0
 998 02a2 1043     		orrs	r0, r0, r2	@, D.7013, RCC_APB1Periph, D.7013
 999              	.LVL90:
 1000 02a4 01E0     		b	.L107	@
 1001              	.LVL91:
 1002              	.L105:
1224:Libraries/STM32F10x_StdPeriph_Driver/src/stm32f10x_rcc.c ****   }
1225:Libraries/STM32F10x_StdPeriph_Driver/src/stm32f10x_rcc.c ****   else
1226:Libraries/STM32F10x_StdPeriph_Driver/src/stm32f10x_rcc.c ****   {
1227:Libraries/STM32F10x_StdPeriph_Driver/src/stm32f10x_rcc.c ****     RCC->APB1RSTR &= ~RCC_APB1Periph;
 1003              		.loc 1 1227 0
 1004 02a6 22EA0000 		bic	r0, r2, r0	@ D.7013, D.7013, RCC_APB1Periph
 1005              	.LVL92:
 1006              	.L107:
 1007 02aa 1861     		str	r0, [r3, #16]	@ D.7013,
 1008 02ac 7047     		bx	lr	@
 1009              	.L109:
 1010 02ae 00BF     		.align	2
 1011              	.L108:
 1012 02b0 00100240 		.word	1073876992
 1013              		.cfi_endproc
 1014              	.LFE54:
 1015              		.size	RCC_APB1PeriphResetCmd, .-RCC_APB1PeriphResetCmd
 1016              		.align	1
 1017              		.global	RCC_BackupResetCmd
 1018              		.thumb
 1019              		.thumb_func
 1020              		.type	RCC_BackupResetCmd, %function
 1021              	RCC_BackupResetCmd:
 1022              	.LFB55:
1228:Libraries/STM32F10x_StdPeriph_Driver/src/stm32f10x_rcc.c ****   }
1229:Libraries/STM32F10x_StdPeriph_Driver/src/stm32f10x_rcc.c **** }
1230:Libraries/STM32F10x_StdPeriph_Driver/src/stm32f10x_rcc.c **** 
1231:Libraries/STM32F10x_StdPeriph_Driver/src/stm32f10x_rcc.c **** /**
1232:Libraries/STM32F10x_StdPeriph_Driver/src/stm32f10x_rcc.c ****   * @brief  Forces or releases the Backup domain reset.
1233:Libraries/STM32F10x_StdPeriph_Driver/src/stm32f10x_rcc.c ****   * @param  NewState: new state of the Backup domain reset.
1234:Libraries/STM32F10x_StdPeriph_Driver/src/stm32f10x_rcc.c ****   *   This parameter can be: ENABLE or DISABLE.
1235:Libraries/STM32F10x_StdPeriph_Driver/src/stm32f10x_rcc.c ****   * @retval None
1236:Libraries/STM32F10x_StdPeriph_Driver/src/stm32f10x_rcc.c ****   */
1237:Libraries/STM32F10x_StdPeriph_Driver/src/stm32f10x_rcc.c **** void RCC_BackupResetCmd(FunctionalState NewState)
1238:Libraries/STM32F10x_StdPeriph_Driver/src/stm32f10x_rcc.c **** {
 1023              		.loc 1 1238 0
 1024              		.cfi_startproc
 1025              		@ args = 0, pretend = 0, frame = 0
 1026              		@ frame_needed = 0, uses_anonymous_args = 0
 1027              		@ link register save eliminated.
 1028              	.LVL93:
ARM GAS  /var/folders/lp/0dm50ddn51vc39svyzv_6fp00000gn/T//ccS91u3A.s 			page 41


1239:Libraries/STM32F10x_StdPeriph_Driver/src/stm32f10x_rcc.c ****   /* Check the parameters */
1240:Libraries/STM32F10x_StdPeriph_Driver/src/stm32f10x_rcc.c ****   assert_param(IS_FUNCTIONAL_STATE(NewState));
1241:Libraries/STM32F10x_StdPeriph_Driver/src/stm32f10x_rcc.c ****   *(__IO uint32_t *) BDCR_BDRST_BB = (uint32_t)NewState;
 1029              		.loc 1 1241 0
 1030 02b4 014B     		ldr	r3, .L111	@ tmp112,
 1031 02b6 1860     		str	r0, [r3]	@ NewState, MEM[(volatile uint32_t *)1111622720B]
 1032 02b8 7047     		bx	lr	@
 1033              	.L112:
 1034 02ba 00BF     		.align	2
 1035              	.L111:
 1036 02bc 40044242 		.word	1111622720
 1037              		.cfi_endproc
 1038              	.LFE55:
 1039              		.size	RCC_BackupResetCmd, .-RCC_BackupResetCmd
 1040              		.align	1
 1041              		.global	RCC_ClockSecuritySystemCmd
 1042              		.thumb
 1043              		.thumb_func
 1044              		.type	RCC_ClockSecuritySystemCmd, %function
 1045              	RCC_ClockSecuritySystemCmd:
 1046              	.LFB56:
1242:Libraries/STM32F10x_StdPeriph_Driver/src/stm32f10x_rcc.c **** }
1243:Libraries/STM32F10x_StdPeriph_Driver/src/stm32f10x_rcc.c **** 
1244:Libraries/STM32F10x_StdPeriph_Driver/src/stm32f10x_rcc.c **** /**
1245:Libraries/STM32F10x_StdPeriph_Driver/src/stm32f10x_rcc.c ****   * @brief  Enables or disables the Clock Security System.
1246:Libraries/STM32F10x_StdPeriph_Driver/src/stm32f10x_rcc.c ****   * @param  NewState: new state of the Clock Security System..
1247:Libraries/STM32F10x_StdPeriph_Driver/src/stm32f10x_rcc.c ****   *   This parameter can be: ENABLE or DISABLE.
1248:Libraries/STM32F10x_StdPeriph_Driver/src/stm32f10x_rcc.c ****   * @retval None
1249:Libraries/STM32F10x_StdPeriph_Driver/src/stm32f10x_rcc.c ****   */
1250:Libraries/STM32F10x_StdPeriph_Driver/src/stm32f10x_rcc.c **** void RCC_ClockSecuritySystemCmd(FunctionalState NewState)
1251:Libraries/STM32F10x_StdPeriph_Driver/src/stm32f10x_rcc.c **** {
 1047              		.loc 1 1251 0
 1048              		.cfi_startproc
 1049              		@ args = 0, pretend = 0, frame = 0
 1050              		@ frame_needed = 0, uses_anonymous_args = 0
 1051              		@ link register save eliminated.
 1052              	.LVL94:
1252:Libraries/STM32F10x_StdPeriph_Driver/src/stm32f10x_rcc.c ****   /* Check the parameters */
1253:Libraries/STM32F10x_StdPeriph_Driver/src/stm32f10x_rcc.c ****   assert_param(IS_FUNCTIONAL_STATE(NewState));
1254:Libraries/STM32F10x_StdPeriph_Driver/src/stm32f10x_rcc.c ****   *(__IO uint32_t *) CR_CSSON_BB = (uint32_t)NewState;
 1053              		.loc 1 1254 0
 1054 02c0 014B     		ldr	r3, .L114	@ tmp112,
 1055 02c2 1860     		str	r0, [r3]	@ NewState, MEM[(volatile uint32_t *)1111621708B]
 1056 02c4 7047     		bx	lr	@
 1057              	.L115:
 1058 02c6 00BF     		.align	2
 1059              	.L114:
 1060 02c8 4C004242 		.word	1111621708
 1061              		.cfi_endproc
 1062              	.LFE56:
 1063              		.size	RCC_ClockSecuritySystemCmd, .-RCC_ClockSecuritySystemCmd
 1064              		.align	1
 1065              		.global	RCC_MCOConfig
 1066              		.thumb
 1067              		.thumb_func
 1068              		.type	RCC_MCOConfig, %function
 1069              	RCC_MCOConfig:
ARM GAS  /var/folders/lp/0dm50ddn51vc39svyzv_6fp00000gn/T//ccS91u3A.s 			page 42


 1070              	.LFB57:
1255:Libraries/STM32F10x_StdPeriph_Driver/src/stm32f10x_rcc.c **** }
1256:Libraries/STM32F10x_StdPeriph_Driver/src/stm32f10x_rcc.c **** 
1257:Libraries/STM32F10x_StdPeriph_Driver/src/stm32f10x_rcc.c **** /**
1258:Libraries/STM32F10x_StdPeriph_Driver/src/stm32f10x_rcc.c ****   * @brief  Selects the clock source to output on MCO pin.
1259:Libraries/STM32F10x_StdPeriph_Driver/src/stm32f10x_rcc.c ****   * @param  RCC_MCO: specifies the clock source to output.
1260:Libraries/STM32F10x_StdPeriph_Driver/src/stm32f10x_rcc.c ****   *   
1261:Libraries/STM32F10x_StdPeriph_Driver/src/stm32f10x_rcc.c ****   *   For @b STM32_Connectivity_line_devices, this parameter can be one of the
1262:Libraries/STM32F10x_StdPeriph_Driver/src/stm32f10x_rcc.c ****   *   following values:       
1263:Libraries/STM32F10x_StdPeriph_Driver/src/stm32f10x_rcc.c ****   *     @arg RCC_MCO_NoClock: No clock selected
1264:Libraries/STM32F10x_StdPeriph_Driver/src/stm32f10x_rcc.c ****   *     @arg RCC_MCO_SYSCLK: System clock selected
1265:Libraries/STM32F10x_StdPeriph_Driver/src/stm32f10x_rcc.c ****   *     @arg RCC_MCO_HSI: HSI oscillator clock selected
1266:Libraries/STM32F10x_StdPeriph_Driver/src/stm32f10x_rcc.c ****   *     @arg RCC_MCO_HSE: HSE oscillator clock selected
1267:Libraries/STM32F10x_StdPeriph_Driver/src/stm32f10x_rcc.c ****   *     @arg RCC_MCO_PLLCLK_Div2: PLL clock divided by 2 selected
1268:Libraries/STM32F10x_StdPeriph_Driver/src/stm32f10x_rcc.c ****   *     @arg RCC_MCO_PLL2CLK: PLL2 clock selected                     
1269:Libraries/STM32F10x_StdPeriph_Driver/src/stm32f10x_rcc.c ****   *     @arg RCC_MCO_PLL3CLK_Div2: PLL3 clock divided by 2 selected   
1270:Libraries/STM32F10x_StdPeriph_Driver/src/stm32f10x_rcc.c ****   *     @arg RCC_MCO_XT1: External 3-25 MHz oscillator clock selected  
1271:Libraries/STM32F10x_StdPeriph_Driver/src/stm32f10x_rcc.c ****   *     @arg RCC_MCO_PLL3CLK: PLL3 clock selected 
1272:Libraries/STM32F10x_StdPeriph_Driver/src/stm32f10x_rcc.c ****   * 
1273:Libraries/STM32F10x_StdPeriph_Driver/src/stm32f10x_rcc.c ****   *   For  @b other_STM32_devices, this parameter can be one of the following values:        
1274:Libraries/STM32F10x_StdPeriph_Driver/src/stm32f10x_rcc.c ****   *     @arg RCC_MCO_NoClock: No clock selected
1275:Libraries/STM32F10x_StdPeriph_Driver/src/stm32f10x_rcc.c ****   *     @arg RCC_MCO_SYSCLK: System clock selected
1276:Libraries/STM32F10x_StdPeriph_Driver/src/stm32f10x_rcc.c ****   *     @arg RCC_MCO_HSI: HSI oscillator clock selected
1277:Libraries/STM32F10x_StdPeriph_Driver/src/stm32f10x_rcc.c ****   *     @arg RCC_MCO_HSE: HSE oscillator clock selected
1278:Libraries/STM32F10x_StdPeriph_Driver/src/stm32f10x_rcc.c ****   *     @arg RCC_MCO_PLLCLK_Div2: PLL clock divided by 2 selected
1279:Libraries/STM32F10x_StdPeriph_Driver/src/stm32f10x_rcc.c ****   *   
1280:Libraries/STM32F10x_StdPeriph_Driver/src/stm32f10x_rcc.c ****   * @retval None
1281:Libraries/STM32F10x_StdPeriph_Driver/src/stm32f10x_rcc.c ****   */
1282:Libraries/STM32F10x_StdPeriph_Driver/src/stm32f10x_rcc.c **** void RCC_MCOConfig(uint8_t RCC_MCO)
1283:Libraries/STM32F10x_StdPeriph_Driver/src/stm32f10x_rcc.c **** {
 1071              		.loc 1 1283 0
 1072              		.cfi_startproc
 1073              		@ args = 0, pretend = 0, frame = 0
 1074              		@ frame_needed = 0, uses_anonymous_args = 0
 1075              		@ link register save eliminated.
 1076              	.LVL95:
1284:Libraries/STM32F10x_StdPeriph_Driver/src/stm32f10x_rcc.c ****   /* Check the parameters */
1285:Libraries/STM32F10x_StdPeriph_Driver/src/stm32f10x_rcc.c ****   assert_param(IS_RCC_MCO(RCC_MCO));
1286:Libraries/STM32F10x_StdPeriph_Driver/src/stm32f10x_rcc.c **** 
1287:Libraries/STM32F10x_StdPeriph_Driver/src/stm32f10x_rcc.c ****   /* Perform Byte access to MCO bits to select the MCO source */
1288:Libraries/STM32F10x_StdPeriph_Driver/src/stm32f10x_rcc.c ****   *(__IO uint8_t *) CFGR_BYTE4_ADDRESS = RCC_MCO;
 1077              		.loc 1 1288 0
 1078 02cc 014B     		ldr	r3, .L117	@ tmp111,
 1079 02ce 1870     		strb	r0, [r3]	@ RCC_MCO, MEM[(volatile uint8_t *)1073876999B]
 1080 02d0 7047     		bx	lr	@
 1081              	.L118:
 1082 02d2 00BF     		.align	2
 1083              	.L117:
 1084 02d4 07100240 		.word	1073876999
 1085              		.cfi_endproc
 1086              	.LFE57:
 1087              		.size	RCC_MCOConfig, .-RCC_MCOConfig
 1088              		.align	1
 1089              		.global	RCC_GetFlagStatus
 1090              		.thumb
 1091              		.thumb_func
 1092              		.type	RCC_GetFlagStatus, %function
ARM GAS  /var/folders/lp/0dm50ddn51vc39svyzv_6fp00000gn/T//ccS91u3A.s 			page 43


 1093              	RCC_GetFlagStatus:
 1094              	.LFB58:
1289:Libraries/STM32F10x_StdPeriph_Driver/src/stm32f10x_rcc.c **** }
1290:Libraries/STM32F10x_StdPeriph_Driver/src/stm32f10x_rcc.c **** 
1291:Libraries/STM32F10x_StdPeriph_Driver/src/stm32f10x_rcc.c **** /**
1292:Libraries/STM32F10x_StdPeriph_Driver/src/stm32f10x_rcc.c ****   * @brief  Checks whether the specified RCC flag is set or not.
1293:Libraries/STM32F10x_StdPeriph_Driver/src/stm32f10x_rcc.c ****   * @param  RCC_FLAG: specifies the flag to check.
1294:Libraries/STM32F10x_StdPeriph_Driver/src/stm32f10x_rcc.c ****   *   
1295:Libraries/STM32F10x_StdPeriph_Driver/src/stm32f10x_rcc.c ****   *   For @b STM32_Connectivity_line_devices, this parameter can be one of the
1296:Libraries/STM32F10x_StdPeriph_Driver/src/stm32f10x_rcc.c ****   *   following values:
1297:Libraries/STM32F10x_StdPeriph_Driver/src/stm32f10x_rcc.c ****   *     @arg RCC_FLAG_HSIRDY: HSI oscillator clock ready
1298:Libraries/STM32F10x_StdPeriph_Driver/src/stm32f10x_rcc.c ****   *     @arg RCC_FLAG_HSERDY: HSE oscillator clock ready
1299:Libraries/STM32F10x_StdPeriph_Driver/src/stm32f10x_rcc.c ****   *     @arg RCC_FLAG_PLLRDY: PLL clock ready
1300:Libraries/STM32F10x_StdPeriph_Driver/src/stm32f10x_rcc.c ****   *     @arg RCC_FLAG_PLL2RDY: PLL2 clock ready      
1301:Libraries/STM32F10x_StdPeriph_Driver/src/stm32f10x_rcc.c ****   *     @arg RCC_FLAG_PLL3RDY: PLL3 clock ready                           
1302:Libraries/STM32F10x_StdPeriph_Driver/src/stm32f10x_rcc.c ****   *     @arg RCC_FLAG_LSERDY: LSE oscillator clock ready
1303:Libraries/STM32F10x_StdPeriph_Driver/src/stm32f10x_rcc.c ****   *     @arg RCC_FLAG_LSIRDY: LSI oscillator clock ready
1304:Libraries/STM32F10x_StdPeriph_Driver/src/stm32f10x_rcc.c ****   *     @arg RCC_FLAG_PINRST: Pin reset
1305:Libraries/STM32F10x_StdPeriph_Driver/src/stm32f10x_rcc.c ****   *     @arg RCC_FLAG_PORRST: POR/PDR reset
1306:Libraries/STM32F10x_StdPeriph_Driver/src/stm32f10x_rcc.c ****   *     @arg RCC_FLAG_SFTRST: Software reset
1307:Libraries/STM32F10x_StdPeriph_Driver/src/stm32f10x_rcc.c ****   *     @arg RCC_FLAG_IWDGRST: Independent Watchdog reset
1308:Libraries/STM32F10x_StdPeriph_Driver/src/stm32f10x_rcc.c ****   *     @arg RCC_FLAG_WWDGRST: Window Watchdog reset
1309:Libraries/STM32F10x_StdPeriph_Driver/src/stm32f10x_rcc.c ****   *     @arg RCC_FLAG_LPWRRST: Low Power reset
1310:Libraries/STM32F10x_StdPeriph_Driver/src/stm32f10x_rcc.c ****   * 
1311:Libraries/STM32F10x_StdPeriph_Driver/src/stm32f10x_rcc.c ****   *   For @b other_STM32_devices, this parameter can be one of the following values:        
1312:Libraries/STM32F10x_StdPeriph_Driver/src/stm32f10x_rcc.c ****   *     @arg RCC_FLAG_HSIRDY: HSI oscillator clock ready
1313:Libraries/STM32F10x_StdPeriph_Driver/src/stm32f10x_rcc.c ****   *     @arg RCC_FLAG_HSERDY: HSE oscillator clock ready
1314:Libraries/STM32F10x_StdPeriph_Driver/src/stm32f10x_rcc.c ****   *     @arg RCC_FLAG_PLLRDY: PLL clock ready
1315:Libraries/STM32F10x_StdPeriph_Driver/src/stm32f10x_rcc.c ****   *     @arg RCC_FLAG_LSERDY: LSE oscillator clock ready
1316:Libraries/STM32F10x_StdPeriph_Driver/src/stm32f10x_rcc.c ****   *     @arg RCC_FLAG_LSIRDY: LSI oscillator clock ready
1317:Libraries/STM32F10x_StdPeriph_Driver/src/stm32f10x_rcc.c ****   *     @arg RCC_FLAG_PINRST: Pin reset
1318:Libraries/STM32F10x_StdPeriph_Driver/src/stm32f10x_rcc.c ****   *     @arg RCC_FLAG_PORRST: POR/PDR reset
1319:Libraries/STM32F10x_StdPeriph_Driver/src/stm32f10x_rcc.c ****   *     @arg RCC_FLAG_SFTRST: Software reset
1320:Libraries/STM32F10x_StdPeriph_Driver/src/stm32f10x_rcc.c ****   *     @arg RCC_FLAG_IWDGRST: Independent Watchdog reset
1321:Libraries/STM32F10x_StdPeriph_Driver/src/stm32f10x_rcc.c ****   *     @arg RCC_FLAG_WWDGRST: Window Watchdog reset
1322:Libraries/STM32F10x_StdPeriph_Driver/src/stm32f10x_rcc.c ****   *     @arg RCC_FLAG_LPWRRST: Low Power reset
1323:Libraries/STM32F10x_StdPeriph_Driver/src/stm32f10x_rcc.c ****   *   
1324:Libraries/STM32F10x_StdPeriph_Driver/src/stm32f10x_rcc.c ****   * @retval The new state of RCC_FLAG (SET or RESET).
1325:Libraries/STM32F10x_StdPeriph_Driver/src/stm32f10x_rcc.c ****   */
1326:Libraries/STM32F10x_StdPeriph_Driver/src/stm32f10x_rcc.c **** FlagStatus RCC_GetFlagStatus(uint8_t RCC_FLAG)
1327:Libraries/STM32F10x_StdPeriph_Driver/src/stm32f10x_rcc.c **** {
 1095              		.loc 1 1327 0
 1096              		.cfi_startproc
 1097              		@ args = 0, pretend = 0, frame = 0
 1098              		@ frame_needed = 0, uses_anonymous_args = 0
 1099              		@ link register save eliminated.
 1100              	.LVL96:
1328:Libraries/STM32F10x_StdPeriph_Driver/src/stm32f10x_rcc.c ****   uint32_t tmp = 0;
1329:Libraries/STM32F10x_StdPeriph_Driver/src/stm32f10x_rcc.c ****   uint32_t statusreg = 0;
1330:Libraries/STM32F10x_StdPeriph_Driver/src/stm32f10x_rcc.c ****   FlagStatus bitstatus = RESET;
1331:Libraries/STM32F10x_StdPeriph_Driver/src/stm32f10x_rcc.c ****   /* Check the parameters */
1332:Libraries/STM32F10x_StdPeriph_Driver/src/stm32f10x_rcc.c ****   assert_param(IS_RCC_FLAG(RCC_FLAG));
1333:Libraries/STM32F10x_StdPeriph_Driver/src/stm32f10x_rcc.c **** 
1334:Libraries/STM32F10x_StdPeriph_Driver/src/stm32f10x_rcc.c ****   /* Get the RCC register index */
1335:Libraries/STM32F10x_StdPeriph_Driver/src/stm32f10x_rcc.c ****   tmp = RCC_FLAG >> 5;
 1101              		.loc 1 1335 0
 1102 02d8 4209     		lsrs	r2, r0, #5	@ D.7025, RCC_FLAG,
ARM GAS  /var/folders/lp/0dm50ddn51vc39svyzv_6fp00000gn/T//ccS91u3A.s 			page 44


 1103              	.LVL97:
1336:Libraries/STM32F10x_StdPeriph_Driver/src/stm32f10x_rcc.c ****   if (tmp == 1)               /* The flag to check is in CR register */
 1104              		.loc 1 1336 0
 1105 02da 012A     		cmp	r2, #1	@ D.7025,
 1106 02dc 074B     		ldr	r3, .L123	@ tmp129,
 1107 02de 01D1     		bne	.L120	@,
1337:Libraries/STM32F10x_StdPeriph_Driver/src/stm32f10x_rcc.c ****   {
1338:Libraries/STM32F10x_StdPeriph_Driver/src/stm32f10x_rcc.c ****     statusreg = RCC->CR;
 1108              		.loc 1 1338 0
 1109 02e0 1B68     		ldr	r3, [r3]	@ statusreg, MEM[(struct RCC_TypeDef *)1073876992B].CR
 1110              	.LVL98:
 1111 02e2 03E0     		b	.L121	@
 1112              	.LVL99:
 1113              	.L120:
1339:Libraries/STM32F10x_StdPeriph_Driver/src/stm32f10x_rcc.c ****   }
1340:Libraries/STM32F10x_StdPeriph_Driver/src/stm32f10x_rcc.c ****   else if (tmp == 2)          /* The flag to check is in BDCR register */
 1114              		.loc 1 1340 0
 1115 02e4 022A     		cmp	r2, #2	@ D.7025,
1341:Libraries/STM32F10x_StdPeriph_Driver/src/stm32f10x_rcc.c ****   {
1342:Libraries/STM32F10x_StdPeriph_Driver/src/stm32f10x_rcc.c ****     statusreg = RCC->BDCR;
 1116              		.loc 1 1342 0
 1117 02e6 0CBF     		ite	eq
 1118 02e8 1B6A     		ldreq	r3, [r3, #32]	@ statusreg, MEM[(struct RCC_TypeDef *)1073876992B].BDCR
 1119              	.LVL100:
1343:Libraries/STM32F10x_StdPeriph_Driver/src/stm32f10x_rcc.c ****   }
1344:Libraries/STM32F10x_StdPeriph_Driver/src/stm32f10x_rcc.c ****   else                       /* The flag to check is in CSR register */
1345:Libraries/STM32F10x_StdPeriph_Driver/src/stm32f10x_rcc.c ****   {
1346:Libraries/STM32F10x_StdPeriph_Driver/src/stm32f10x_rcc.c ****     statusreg = RCC->CSR;
 1120              		.loc 1 1346 0
 1121 02ea 5B6A     		ldrne	r3, [r3, #36]	@ statusreg, MEM[(struct RCC_TypeDef *)1073876992B].CSR
 1122              	.LVL101:
 1123              	.L121:
1347:Libraries/STM32F10x_StdPeriph_Driver/src/stm32f10x_rcc.c ****   }
1348:Libraries/STM32F10x_StdPeriph_Driver/src/stm32f10x_rcc.c **** 
1349:Libraries/STM32F10x_StdPeriph_Driver/src/stm32f10x_rcc.c ****   /* Get the flag position */
1350:Libraries/STM32F10x_StdPeriph_Driver/src/stm32f10x_rcc.c ****   tmp = RCC_FLAG & FLAG_Mask;
1351:Libraries/STM32F10x_StdPeriph_Driver/src/stm32f10x_rcc.c ****   if ((statusreg & ((uint32_t)1 << tmp)) != (uint32_t)RESET)
1352:Libraries/STM32F10x_StdPeriph_Driver/src/stm32f10x_rcc.c ****   {
1353:Libraries/STM32F10x_StdPeriph_Driver/src/stm32f10x_rcc.c ****     bitstatus = SET;
1354:Libraries/STM32F10x_StdPeriph_Driver/src/stm32f10x_rcc.c ****   }
1355:Libraries/STM32F10x_StdPeriph_Driver/src/stm32f10x_rcc.c ****   else
1356:Libraries/STM32F10x_StdPeriph_Driver/src/stm32f10x_rcc.c ****   {
1357:Libraries/STM32F10x_StdPeriph_Driver/src/stm32f10x_rcc.c ****     bitstatus = RESET;
1358:Libraries/STM32F10x_StdPeriph_Driver/src/stm32f10x_rcc.c ****   }
1359:Libraries/STM32F10x_StdPeriph_Driver/src/stm32f10x_rcc.c **** 
1360:Libraries/STM32F10x_StdPeriph_Driver/src/stm32f10x_rcc.c ****   /* Return the flag status */
1361:Libraries/STM32F10x_StdPeriph_Driver/src/stm32f10x_rcc.c ****   return bitstatus;
 1124              		.loc 1 1361 0
 1125 02ec 00F01F00 		and	r0, r0, #31	@ tmp, RCC_FLAG,
 1126              	.LVL102:
 1127 02f0 23FA00F0 		lsr	r0, r3, r0	@ D.7026, statusreg, tmp
1362:Libraries/STM32F10x_StdPeriph_Driver/src/stm32f10x_rcc.c **** }
 1128              		.loc 1 1362 0
 1129 02f4 00F00100 		and	r0, r0, #1	@, D.7026,
 1130 02f8 7047     		bx	lr	@
 1131              	.L124:
 1132 02fa 00BF     		.align	2
ARM GAS  /var/folders/lp/0dm50ddn51vc39svyzv_6fp00000gn/T//ccS91u3A.s 			page 45


 1133              	.L123:
 1134 02fc 00100240 		.word	1073876992
 1135              		.cfi_endproc
 1136              	.LFE58:
 1137              		.size	RCC_GetFlagStatus, .-RCC_GetFlagStatus
 1138              		.align	1
 1139              		.global	RCC_WaitForHSEStartUp
 1140              		.thumb
 1141              		.thumb_func
 1142              		.type	RCC_WaitForHSEStartUp, %function
 1143              	RCC_WaitForHSEStartUp:
 1144              	.LFB31:
 305:Libraries/STM32F10x_StdPeriph_Driver/src/stm32f10x_rcc.c ****   __IO uint32_t StartUpCounter = 0;
 1145              		.loc 1 305 0
 1146              		.cfi_startproc
 1147              		@ args = 0, pretend = 0, frame = 8
 1148              		@ frame_needed = 0, uses_anonymous_args = 0
 1149 0300 07B5     		push	{r0, r1, r2, lr}	@
 1150              	.LCFI1:
 1151              		.cfi_def_cfa_offset 16
 1152              		.cfi_offset 14, -4
 306:Libraries/STM32F10x_StdPeriph_Driver/src/stm32f10x_rcc.c ****   ErrorStatus status = ERROR;
 1153              		.loc 1 306 0
 1154 0302 0023     		movs	r3, #0	@ tmp118,
 1155 0304 0193     		str	r3, [sp, #4]	@ tmp118, StartUpCounter
 1156              	.LVL103:
 1157              	.L127:
 313:Libraries/STM32F10x_StdPeriph_Driver/src/stm32f10x_rcc.c ****     StartUpCounter++;  
 1158              		.loc 1 313 0 discriminator 2
 1159 0306 3120     		movs	r0, #49	@,
 1160 0308 FFF7FEFF 		bl	RCC_GetFlagStatus	@
 1161              	.LVL104:
 314:Libraries/STM32F10x_StdPeriph_Driver/src/stm32f10x_rcc.c ****   } while((StartUpCounter != HSE_STARTUP_TIMEOUT) && (HSEStatus == RESET));
 1162              		.loc 1 314 0 discriminator 2
 1163 030c 019B     		ldr	r3, [sp, #4]	@ D.7031, StartUpCounter
 1164 030e 0133     		adds	r3, r3, #1	@ D.7031, D.7031,
 1165 0310 0193     		str	r3, [sp, #4]	@ D.7031, StartUpCounter
 315:Libraries/STM32F10x_StdPeriph_Driver/src/stm32f10x_rcc.c ****   
 1166              		.loc 1 315 0 discriminator 2
 1167 0312 019B     		ldr	r3, [sp, #4]	@ D.7031, StartUpCounter
 1168 0314 B3F5A06F 		cmp	r3, #1280	@ D.7031,
 1169 0318 01D0     		beq	.L126	@,
 315:Libraries/STM32F10x_StdPeriph_Driver/src/stm32f10x_rcc.c ****   
 1170              		.loc 1 315 0 is_stmt 0 discriminator 1
 1171 031a 0028     		cmp	r0, #0	@ tmp119
 1172 031c F3D0     		beq	.L127	@
 1173              	.L126:
 317:Libraries/STM32F10x_StdPeriph_Driver/src/stm32f10x_rcc.c ****   {
 1174              		.loc 1 317 0 is_stmt 1
 1175 031e 3120     		movs	r0, #49	@,
 1176              	.LVL105:
 1177 0320 FFF7FEFF 		bl	RCC_GetFlagStatus	@
 1178              	.LVL106:
 326:Libraries/STM32F10x_StdPeriph_Driver/src/stm32f10x_rcc.c **** 
 1179              		.loc 1 326 0
 1180 0324 0030     		adds	r0, r0, #0	@,,
 1181              	.LVL107:
ARM GAS  /var/folders/lp/0dm50ddn51vc39svyzv_6fp00000gn/T//ccS91u3A.s 			page 46


 1182 0326 18BF     		it	ne
 1183 0328 0120     		movne	r0, #1	@,
 1184 032a 03B0     		add	sp, sp, #12	@,,
 1185              	.LCFI2:
 1186              		.cfi_def_cfa_offset 4
 1187              		@ sp needed	@
 1188 032c 5DF804FB 		ldr	pc, [sp], #4	@
 1189              		.cfi_endproc
 1190              	.LFE31:
 1191              		.size	RCC_WaitForHSEStartUp, .-RCC_WaitForHSEStartUp
 1192              		.align	1
 1193              		.global	RCC_ClearFlag
 1194              		.thumb
 1195              		.thumb_func
 1196              		.type	RCC_ClearFlag, %function
 1197              	RCC_ClearFlag:
 1198              	.LFB59:
1363:Libraries/STM32F10x_StdPeriph_Driver/src/stm32f10x_rcc.c **** 
1364:Libraries/STM32F10x_StdPeriph_Driver/src/stm32f10x_rcc.c **** /**
1365:Libraries/STM32F10x_StdPeriph_Driver/src/stm32f10x_rcc.c ****   * @brief  Clears the RCC reset flags.
1366:Libraries/STM32F10x_StdPeriph_Driver/src/stm32f10x_rcc.c ****   * @note   The reset flags are: RCC_FLAG_PINRST, RCC_FLAG_PORRST, RCC_FLAG_SFTRST,
1367:Libraries/STM32F10x_StdPeriph_Driver/src/stm32f10x_rcc.c ****   *   RCC_FLAG_IWDGRST, RCC_FLAG_WWDGRST, RCC_FLAG_LPWRRST
1368:Libraries/STM32F10x_StdPeriph_Driver/src/stm32f10x_rcc.c ****   * @param  None
1369:Libraries/STM32F10x_StdPeriph_Driver/src/stm32f10x_rcc.c ****   * @retval None
1370:Libraries/STM32F10x_StdPeriph_Driver/src/stm32f10x_rcc.c ****   */
1371:Libraries/STM32F10x_StdPeriph_Driver/src/stm32f10x_rcc.c **** void RCC_ClearFlag(void)
1372:Libraries/STM32F10x_StdPeriph_Driver/src/stm32f10x_rcc.c **** {
 1199              		.loc 1 1372 0
 1200              		.cfi_startproc
 1201              		@ args = 0, pretend = 0, frame = 0
 1202              		@ frame_needed = 0, uses_anonymous_args = 0
 1203              		@ link register save eliminated.
1373:Libraries/STM32F10x_StdPeriph_Driver/src/stm32f10x_rcc.c ****   /* Set RMVF bit to clear the reset flags */
1374:Libraries/STM32F10x_StdPeriph_Driver/src/stm32f10x_rcc.c ****   RCC->CSR |= CSR_RMVF_Set;
 1204              		.loc 1 1374 0
 1205 0330 024A     		ldr	r2, .L134	@ tmp112,
 1206 0332 536A     		ldr	r3, [r2, #36]	@ D.7037, MEM[(struct RCC_TypeDef *)1073876992B].CSR
 1207 0334 43F08073 		orr	r3, r3, #16777216	@ D.7037, D.7037,
 1208 0338 5362     		str	r3, [r2, #36]	@ D.7037, MEM[(struct RCC_TypeDef *)1073876992B].CSR
 1209 033a 7047     		bx	lr	@
 1210              	.L135:
 1211              		.align	2
 1212              	.L134:
 1213 033c 00100240 		.word	1073876992
 1214              		.cfi_endproc
 1215              	.LFE59:
 1216              		.size	RCC_ClearFlag, .-RCC_ClearFlag
 1217              		.align	1
 1218              		.global	RCC_GetITStatus
 1219              		.thumb
 1220              		.thumb_func
 1221              		.type	RCC_GetITStatus, %function
 1222              	RCC_GetITStatus:
 1223              	.LFB60:
1375:Libraries/STM32F10x_StdPeriph_Driver/src/stm32f10x_rcc.c **** }
1376:Libraries/STM32F10x_StdPeriph_Driver/src/stm32f10x_rcc.c **** 
1377:Libraries/STM32F10x_StdPeriph_Driver/src/stm32f10x_rcc.c **** /**
ARM GAS  /var/folders/lp/0dm50ddn51vc39svyzv_6fp00000gn/T//ccS91u3A.s 			page 47


1378:Libraries/STM32F10x_StdPeriph_Driver/src/stm32f10x_rcc.c ****   * @brief  Checks whether the specified RCC interrupt has occurred or not.
1379:Libraries/STM32F10x_StdPeriph_Driver/src/stm32f10x_rcc.c ****   * @param  RCC_IT: specifies the RCC interrupt source to check.
1380:Libraries/STM32F10x_StdPeriph_Driver/src/stm32f10x_rcc.c ****   *   
1381:Libraries/STM32F10x_StdPeriph_Driver/src/stm32f10x_rcc.c ****   *   For @b STM32_Connectivity_line_devices, this parameter can be one of the
1382:Libraries/STM32F10x_StdPeriph_Driver/src/stm32f10x_rcc.c ****   *   following values:
1383:Libraries/STM32F10x_StdPeriph_Driver/src/stm32f10x_rcc.c ****   *     @arg RCC_IT_LSIRDY: LSI ready interrupt
1384:Libraries/STM32F10x_StdPeriph_Driver/src/stm32f10x_rcc.c ****   *     @arg RCC_IT_LSERDY: LSE ready interrupt
1385:Libraries/STM32F10x_StdPeriph_Driver/src/stm32f10x_rcc.c ****   *     @arg RCC_IT_HSIRDY: HSI ready interrupt
1386:Libraries/STM32F10x_StdPeriph_Driver/src/stm32f10x_rcc.c ****   *     @arg RCC_IT_HSERDY: HSE ready interrupt
1387:Libraries/STM32F10x_StdPeriph_Driver/src/stm32f10x_rcc.c ****   *     @arg RCC_IT_PLLRDY: PLL ready interrupt
1388:Libraries/STM32F10x_StdPeriph_Driver/src/stm32f10x_rcc.c ****   *     @arg RCC_IT_PLL2RDY: PLL2 ready interrupt 
1389:Libraries/STM32F10x_StdPeriph_Driver/src/stm32f10x_rcc.c ****   *     @arg RCC_IT_PLL3RDY: PLL3 ready interrupt                      
1390:Libraries/STM32F10x_StdPeriph_Driver/src/stm32f10x_rcc.c ****   *     @arg RCC_IT_CSS: Clock Security System interrupt
1391:Libraries/STM32F10x_StdPeriph_Driver/src/stm32f10x_rcc.c ****   * 
1392:Libraries/STM32F10x_StdPeriph_Driver/src/stm32f10x_rcc.c ****   *   For @b other_STM32_devices, this parameter can be one of the following values:        
1393:Libraries/STM32F10x_StdPeriph_Driver/src/stm32f10x_rcc.c ****   *     @arg RCC_IT_LSIRDY: LSI ready interrupt
1394:Libraries/STM32F10x_StdPeriph_Driver/src/stm32f10x_rcc.c ****   *     @arg RCC_IT_LSERDY: LSE ready interrupt
1395:Libraries/STM32F10x_StdPeriph_Driver/src/stm32f10x_rcc.c ****   *     @arg RCC_IT_HSIRDY: HSI ready interrupt
1396:Libraries/STM32F10x_StdPeriph_Driver/src/stm32f10x_rcc.c ****   *     @arg RCC_IT_HSERDY: HSE ready interrupt
1397:Libraries/STM32F10x_StdPeriph_Driver/src/stm32f10x_rcc.c ****   *     @arg RCC_IT_PLLRDY: PLL ready interrupt
1398:Libraries/STM32F10x_StdPeriph_Driver/src/stm32f10x_rcc.c ****   *     @arg RCC_IT_CSS: Clock Security System interrupt
1399:Libraries/STM32F10x_StdPeriph_Driver/src/stm32f10x_rcc.c ****   *   
1400:Libraries/STM32F10x_StdPeriph_Driver/src/stm32f10x_rcc.c ****   * @retval The new state of RCC_IT (SET or RESET).
1401:Libraries/STM32F10x_StdPeriph_Driver/src/stm32f10x_rcc.c ****   */
1402:Libraries/STM32F10x_StdPeriph_Driver/src/stm32f10x_rcc.c **** ITStatus RCC_GetITStatus(uint8_t RCC_IT)
1403:Libraries/STM32F10x_StdPeriph_Driver/src/stm32f10x_rcc.c **** {
 1224              		.loc 1 1403 0
 1225              		.cfi_startproc
 1226              		@ args = 0, pretend = 0, frame = 0
 1227              		@ frame_needed = 0, uses_anonymous_args = 0
 1228              		@ link register save eliminated.
 1229              	.LVL108:
1404:Libraries/STM32F10x_StdPeriph_Driver/src/stm32f10x_rcc.c ****   ITStatus bitstatus = RESET;
1405:Libraries/STM32F10x_StdPeriph_Driver/src/stm32f10x_rcc.c ****   /* Check the parameters */
1406:Libraries/STM32F10x_StdPeriph_Driver/src/stm32f10x_rcc.c ****   assert_param(IS_RCC_GET_IT(RCC_IT));
1407:Libraries/STM32F10x_StdPeriph_Driver/src/stm32f10x_rcc.c **** 
1408:Libraries/STM32F10x_StdPeriph_Driver/src/stm32f10x_rcc.c ****   /* Check the status of the specified RCC interrupt */
1409:Libraries/STM32F10x_StdPeriph_Driver/src/stm32f10x_rcc.c ****   if ((RCC->CIR & RCC_IT) != (uint32_t)RESET)
 1230              		.loc 1 1409 0
 1231 0340 034B     		ldr	r3, .L137	@ tmp117,
 1232 0342 9B68     		ldr	r3, [r3, #8]	@ D.7040, MEM[(struct RCC_TypeDef *)1073876992B].CIR
 1233              	.LVL109:
1410:Libraries/STM32F10x_StdPeriph_Driver/src/stm32f10x_rcc.c ****   {
1411:Libraries/STM32F10x_StdPeriph_Driver/src/stm32f10x_rcc.c ****     bitstatus = SET;
1412:Libraries/STM32F10x_StdPeriph_Driver/src/stm32f10x_rcc.c ****   }
1413:Libraries/STM32F10x_StdPeriph_Driver/src/stm32f10x_rcc.c ****   else
1414:Libraries/STM32F10x_StdPeriph_Driver/src/stm32f10x_rcc.c ****   {
1415:Libraries/STM32F10x_StdPeriph_Driver/src/stm32f10x_rcc.c ****     bitstatus = RESET;
1416:Libraries/STM32F10x_StdPeriph_Driver/src/stm32f10x_rcc.c ****   }
1417:Libraries/STM32F10x_StdPeriph_Driver/src/stm32f10x_rcc.c **** 
1418:Libraries/STM32F10x_StdPeriph_Driver/src/stm32f10x_rcc.c ****   /* Return the RCC_IT status */
1419:Libraries/STM32F10x_StdPeriph_Driver/src/stm32f10x_rcc.c ****   return  bitstatus;
 1234              		.loc 1 1419 0
 1235 0344 1842     		tst	r0, r3	@ RCC_IT, D.7040
1420:Libraries/STM32F10x_StdPeriph_Driver/src/stm32f10x_rcc.c **** }
 1236              		.loc 1 1420 0
 1237 0346 14BF     		ite	ne
ARM GAS  /var/folders/lp/0dm50ddn51vc39svyzv_6fp00000gn/T//ccS91u3A.s 			page 48


 1238 0348 0120     		movne	r0, #1	@,
 1239              	.LVL110:
 1240 034a 0020     		moveq	r0, #0	@,
 1241 034c 7047     		bx	lr	@
 1242              	.L138:
 1243 034e 00BF     		.align	2
 1244              	.L137:
 1245 0350 00100240 		.word	1073876992
 1246              		.cfi_endproc
 1247              	.LFE60:
 1248              		.size	RCC_GetITStatus, .-RCC_GetITStatus
 1249              		.align	1
 1250              		.global	RCC_ClearITPendingBit
 1251              		.thumb
 1252              		.thumb_func
 1253              		.type	RCC_ClearITPendingBit, %function
 1254              	RCC_ClearITPendingBit:
 1255              	.LFB61:
1421:Libraries/STM32F10x_StdPeriph_Driver/src/stm32f10x_rcc.c **** 
1422:Libraries/STM32F10x_StdPeriph_Driver/src/stm32f10x_rcc.c **** /**
1423:Libraries/STM32F10x_StdPeriph_Driver/src/stm32f10x_rcc.c ****   * @brief  Clears the RCC's interrupt pending bits.
1424:Libraries/STM32F10x_StdPeriph_Driver/src/stm32f10x_rcc.c ****   * @param  RCC_IT: specifies the interrupt pending bit to clear.
1425:Libraries/STM32F10x_StdPeriph_Driver/src/stm32f10x_rcc.c ****   *   
1426:Libraries/STM32F10x_StdPeriph_Driver/src/stm32f10x_rcc.c ****   *   For @b STM32_Connectivity_line_devices, this parameter can be any combination
1427:Libraries/STM32F10x_StdPeriph_Driver/src/stm32f10x_rcc.c ****   *   of the following values:
1428:Libraries/STM32F10x_StdPeriph_Driver/src/stm32f10x_rcc.c ****   *     @arg RCC_IT_LSIRDY: LSI ready interrupt
1429:Libraries/STM32F10x_StdPeriph_Driver/src/stm32f10x_rcc.c ****   *     @arg RCC_IT_LSERDY: LSE ready interrupt
1430:Libraries/STM32F10x_StdPeriph_Driver/src/stm32f10x_rcc.c ****   *     @arg RCC_IT_HSIRDY: HSI ready interrupt
1431:Libraries/STM32F10x_StdPeriph_Driver/src/stm32f10x_rcc.c ****   *     @arg RCC_IT_HSERDY: HSE ready interrupt
1432:Libraries/STM32F10x_StdPeriph_Driver/src/stm32f10x_rcc.c ****   *     @arg RCC_IT_PLLRDY: PLL ready interrupt
1433:Libraries/STM32F10x_StdPeriph_Driver/src/stm32f10x_rcc.c ****   *     @arg RCC_IT_PLL2RDY: PLL2 ready interrupt 
1434:Libraries/STM32F10x_StdPeriph_Driver/src/stm32f10x_rcc.c ****   *     @arg RCC_IT_PLL3RDY: PLL3 ready interrupt                      
1435:Libraries/STM32F10x_StdPeriph_Driver/src/stm32f10x_rcc.c ****   *     @arg RCC_IT_CSS: Clock Security System interrupt
1436:Libraries/STM32F10x_StdPeriph_Driver/src/stm32f10x_rcc.c ****   * 
1437:Libraries/STM32F10x_StdPeriph_Driver/src/stm32f10x_rcc.c ****   *   For @b other_STM32_devices, this parameter can be any combination of the
1438:Libraries/STM32F10x_StdPeriph_Driver/src/stm32f10x_rcc.c ****   *   following values:        
1439:Libraries/STM32F10x_StdPeriph_Driver/src/stm32f10x_rcc.c ****   *     @arg RCC_IT_LSIRDY: LSI ready interrupt
1440:Libraries/STM32F10x_StdPeriph_Driver/src/stm32f10x_rcc.c ****   *     @arg RCC_IT_LSERDY: LSE ready interrupt
1441:Libraries/STM32F10x_StdPeriph_Driver/src/stm32f10x_rcc.c ****   *     @arg RCC_IT_HSIRDY: HSI ready interrupt
1442:Libraries/STM32F10x_StdPeriph_Driver/src/stm32f10x_rcc.c ****   *     @arg RCC_IT_HSERDY: HSE ready interrupt
1443:Libraries/STM32F10x_StdPeriph_Driver/src/stm32f10x_rcc.c ****   *     @arg RCC_IT_PLLRDY: PLL ready interrupt
1444:Libraries/STM32F10x_StdPeriph_Driver/src/stm32f10x_rcc.c ****   *   
1445:Libraries/STM32F10x_StdPeriph_Driver/src/stm32f10x_rcc.c ****   *     @arg RCC_IT_CSS: Clock Security System interrupt
1446:Libraries/STM32F10x_StdPeriph_Driver/src/stm32f10x_rcc.c ****   * @retval None
1447:Libraries/STM32F10x_StdPeriph_Driver/src/stm32f10x_rcc.c ****   */
1448:Libraries/STM32F10x_StdPeriph_Driver/src/stm32f10x_rcc.c **** void RCC_ClearITPendingBit(uint8_t RCC_IT)
1449:Libraries/STM32F10x_StdPeriph_Driver/src/stm32f10x_rcc.c **** {
 1256              		.loc 1 1449 0
 1257              		.cfi_startproc
 1258              		@ args = 0, pretend = 0, frame = 0
 1259              		@ frame_needed = 0, uses_anonymous_args = 0
 1260              		@ link register save eliminated.
 1261              	.LVL111:
1450:Libraries/STM32F10x_StdPeriph_Driver/src/stm32f10x_rcc.c ****   /* Check the parameters */
1451:Libraries/STM32F10x_StdPeriph_Driver/src/stm32f10x_rcc.c ****   assert_param(IS_RCC_CLEAR_IT(RCC_IT));
1452:Libraries/STM32F10x_StdPeriph_Driver/src/stm32f10x_rcc.c **** 
1453:Libraries/STM32F10x_StdPeriph_Driver/src/stm32f10x_rcc.c ****   /* Perform Byte access to RCC_CIR[23:16] bits to clear the selected interrupt
ARM GAS  /var/folders/lp/0dm50ddn51vc39svyzv_6fp00000gn/T//ccS91u3A.s 			page 49


1454:Libraries/STM32F10x_StdPeriph_Driver/src/stm32f10x_rcc.c ****      pending bits */
1455:Libraries/STM32F10x_StdPeriph_Driver/src/stm32f10x_rcc.c ****   *(__IO uint8_t *) CIR_BYTE3_ADDRESS = RCC_IT;
 1262              		.loc 1 1455 0
 1263 0354 014B     		ldr	r3, .L140	@ tmp111,
 1264 0356 1870     		strb	r0, [r3]	@ RCC_IT, MEM[(volatile uint8_t *)1073877002B]
 1265 0358 7047     		bx	lr	@
 1266              	.L141:
 1267 035a 00BF     		.align	2
 1268              	.L140:
 1269 035c 0A100240 		.word	1073877002
 1270              		.cfi_endproc
 1271              	.LFE61:
 1272              		.size	RCC_ClearITPendingBit, .-RCC_ClearITPendingBit
 1273              		.data
 1274              		.set	.LANCHOR0,. + 0
 1275              		.type	APBAHBPrescTable, %object
 1276              		.size	APBAHBPrescTable, 16
 1277              	APBAHBPrescTable:
 1278 0000 00       		.byte	0
 1279 0001 00       		.byte	0
 1280 0002 00       		.byte	0
 1281 0003 00       		.byte	0
 1282 0004 01       		.byte	1
 1283 0005 02       		.byte	2
 1284 0006 03       		.byte	3
 1285 0007 04       		.byte	4
 1286 0008 01       		.byte	1
 1287 0009 02       		.byte	2
 1288 000a 03       		.byte	3
 1289 000b 04       		.byte	4
 1290 000c 06       		.byte	6
 1291 000d 07       		.byte	7
 1292 000e 08       		.byte	8
 1293 000f 09       		.byte	9
 1294              		.type	ADCPrescTable, %object
 1295              		.size	ADCPrescTable, 4
 1296              	ADCPrescTable:
 1297 0010 02       		.byte	2
 1298 0011 04       		.byte	4
 1299 0012 06       		.byte	6
 1300 0013 08       		.byte	8
 1301              		.text
 1302              	.Letext0:
 1303              		.file 2 "/usr/local/share/gcc-arm-none-eabi-5_4-2016q3/arm-none-eabi/include/machine/_default_type
 1304              		.file 3 "/usr/local/share/gcc-arm-none-eabi-5_4-2016q3/arm-none-eabi/include/sys/_stdint.h"
 1305              		.file 4 "./Libraries/CMSIS/CM3/DeviceSupport/ST/STM32F10x/stm32f10x.h"
 1306              		.file 5 "./Libraries/STM32F10x_StdPeriph_Driver/inc/stm32f10x_rcc.h"
 1307              		.file 6 "./Libraries/CMSIS/CM3/CoreSupport/core_cm3.h"
 1308              		.section	.debug_info,"",%progbits
 1309              	.Ldebug_info0:
 1310 0000 DC090000 		.4byte	0x9dc
 1311 0004 0200     		.2byte	0x2
 1312 0006 00000000 		.4byte	.Ldebug_abbrev0
 1313 000a 04       		.byte	0x4
 1314 000b 01       		.uleb128 0x1
 1315 000c A8000000 		.4byte	.LASF106
 1316 0010 0C       		.byte	0xc
ARM GAS  /var/folders/lp/0dm50ddn51vc39svyzv_6fp00000gn/T//ccS91u3A.s 			page 50


 1317 0011 6B020000 		.4byte	.LASF107
 1318 0015 B9040000 		.4byte	.LASF108
 1319 0019 00000000 		.4byte	.Ltext0
 1320 001d 60030000 		.4byte	.Letext0
 1321 0021 00000000 		.4byte	.Ldebug_line0
 1322 0025 02       		.uleb128 0x2
 1323 0026 01       		.byte	0x1
 1324 0027 06       		.byte	0x6
 1325 0028 88030000 		.4byte	.LASF0
 1326 002c 03       		.uleb128 0x3
 1327 002d E5020000 		.4byte	.LASF3
 1328 0031 02       		.byte	0x2
 1329 0032 1D       		.byte	0x1d
 1330 0033 37000000 		.4byte	0x37
 1331 0037 02       		.uleb128 0x2
 1332 0038 01       		.byte	0x1
 1333 0039 08       		.byte	0x8
 1334 003a 59030000 		.4byte	.LASF1
 1335 003e 02       		.uleb128 0x2
 1336 003f 02       		.byte	0x2
 1337 0040 05       		.byte	0x5
 1338 0041 67030000 		.4byte	.LASF2
 1339 0045 03       		.uleb128 0x3
 1340 0046 2F010000 		.4byte	.LASF4
 1341 004a 02       		.byte	0x2
 1342 004b 2B       		.byte	0x2b
 1343 004c 50000000 		.4byte	0x50
 1344 0050 02       		.uleb128 0x2
 1345 0051 02       		.byte	0x2
 1346 0052 07       		.byte	0x7
 1347 0053 60040000 		.4byte	.LASF5
 1348 0057 02       		.uleb128 0x2
 1349 0058 04       		.byte	0x4
 1350 0059 05       		.byte	0x5
 1351 005a 54020000 		.4byte	.LASF6
 1352 005e 03       		.uleb128 0x3
 1353 005f 9D000000 		.4byte	.LASF7
 1354 0063 02       		.byte	0x2
 1355 0064 41       		.byte	0x41
 1356 0065 69000000 		.4byte	0x69
 1357 0069 02       		.uleb128 0x2
 1358 006a 04       		.byte	0x4
 1359 006b 07       		.byte	0x7
 1360 006c 5A050000 		.4byte	.LASF8
 1361 0070 02       		.uleb128 0x2
 1362 0071 08       		.byte	0x8
 1363 0072 05       		.byte	0x5
 1364 0073 01020000 		.4byte	.LASF9
 1365 0077 02       		.uleb128 0x2
 1366 0078 08       		.byte	0x8
 1367 0079 07       		.byte	0x7
 1368 007a 0F020000 		.4byte	.LASF10
 1369 007e 04       		.uleb128 0x4
 1370 007f 04       		.byte	0x4
 1371 0080 05       		.byte	0x5
 1372 0081 696E7400 		.ascii	"int\000"
 1373 0085 02       		.uleb128 0x2
ARM GAS  /var/folders/lp/0dm50ddn51vc39svyzv_6fp00000gn/T//ccS91u3A.s 			page 51


 1374 0086 04       		.byte	0x4
 1375 0087 07       		.byte	0x7
 1376 0088 DF030000 		.4byte	.LASF11
 1377 008c 03       		.uleb128 0x3
 1378 008d 86010000 		.4byte	.LASF12
 1379 0091 03       		.byte	0x3
 1380 0092 18       		.byte	0x18
 1381 0093 2C000000 		.4byte	0x2c
 1382 0097 03       		.uleb128 0x3
 1383 0098 FA030000 		.4byte	.LASF13
 1384 009c 03       		.byte	0x3
 1385 009d 24       		.byte	0x24
 1386 009e 45000000 		.4byte	0x45
 1387 00a2 03       		.uleb128 0x3
 1388 00a3 40050000 		.4byte	.LASF14
 1389 00a7 03       		.byte	0x3
 1390 00a8 30       		.byte	0x30
 1391 00a9 5E000000 		.4byte	0x5e
 1392 00ad 02       		.uleb128 0x2
 1393 00ae 04       		.byte	0x4
 1394 00af 07       		.byte	0x7
 1395 00b0 6C000000 		.4byte	.LASF15
 1396 00b4 05       		.uleb128 0x5
 1397 00b5 A2000000 		.4byte	0xa2
 1398 00b9 06       		.uleb128 0x6
 1399 00ba 8C000000 		.4byte	0x8c
 1400 00be 05       		.uleb128 0x5
 1401 00bf B9000000 		.4byte	0xb9
 1402 00c3 07       		.uleb128 0x7
 1403 00c4 01       		.byte	0x1
 1404 00c5 37000000 		.4byte	0x37
 1405 00c9 04       		.byte	0x4
 1406 00ca 0702     		.2byte	0x207
 1407 00cc DD000000 		.4byte	0xdd
 1408 00d0 08       		.uleb128 0x8
 1409 00d1 FC040000 		.4byte	.LASF16
 1410 00d5 00       		.byte	0
 1411 00d6 09       		.uleb128 0x9
 1412 00d7 53455400 		.ascii	"SET\000"
 1413 00db 01       		.byte	0x1
 1414 00dc 00       		.byte	0
 1415 00dd 0A       		.uleb128 0xa
 1416 00de 61060000 		.4byte	.LASF17
 1417 00e2 04       		.byte	0x4
 1418 00e3 0702     		.2byte	0x207
 1419 00e5 C3000000 		.4byte	0xc3
 1420 00e9 0A       		.uleb128 0xa
 1421 00ea 4B020000 		.4byte	.LASF18
 1422 00ee 04       		.byte	0x4
 1423 00ef 0702     		.2byte	0x207
 1424 00f1 C3000000 		.4byte	0xc3
 1425 00f5 07       		.uleb128 0x7
 1426 00f6 01       		.byte	0x1
 1427 00f7 37000000 		.4byte	0x37
 1428 00fb 04       		.byte	0x4
 1429 00fc 0902     		.2byte	0x209
 1430 00fe 0F010000 		.4byte	0x10f
ARM GAS  /var/folders/lp/0dm50ddn51vc39svyzv_6fp00000gn/T//ccS91u3A.s 			page 52


 1431 0102 08       		.uleb128 0x8
 1432 0103 D4010000 		.4byte	.LASF19
 1433 0107 00       		.byte	0
 1434 0108 08       		.uleb128 0x8
 1435 0109 70010000 		.4byte	.LASF20
 1436 010d 01       		.byte	0x1
 1437 010e 00       		.byte	0
 1438 010f 0A       		.uleb128 0xa
 1439 0110 85050000 		.4byte	.LASF21
 1440 0114 04       		.byte	0x4
 1441 0115 0902     		.2byte	0x209
 1442 0117 F5000000 		.4byte	0xf5
 1443 011b 07       		.uleb128 0x7
 1444 011c 01       		.byte	0x1
 1445 011d 37000000 		.4byte	0x37
 1446 0121 04       		.byte	0x4
 1447 0122 0C02     		.2byte	0x20c
 1448 0124 35010000 		.4byte	0x135
 1449 0128 08       		.uleb128 0x8
 1450 0129 FB020000 		.4byte	.LASF22
 1451 012d 00       		.byte	0
 1452 012e 08       		.uleb128 0x8
 1453 012f 38040000 		.4byte	.LASF23
 1454 0133 01       		.byte	0x1
 1455 0134 00       		.byte	0
 1456 0135 0A       		.uleb128 0xa
 1457 0136 EF020000 		.4byte	.LASF24
 1458 013a 04       		.byte	0x4
 1459 013b 0C02     		.2byte	0x20c
 1460 013d 1B010000 		.4byte	0x11b
 1461 0141 0B       		.uleb128 0xb
 1462 0142 30       		.byte	0x30
 1463 0143 04       		.byte	0x4
 1464 0144 3404     		.2byte	0x434
 1465 0146 FE010000 		.4byte	0x1fe
 1466 014a 0C       		.uleb128 0xc
 1467 014b 435200   		.ascii	"CR\000"
 1468 014e 04       		.byte	0x4
 1469 014f 3604     		.2byte	0x436
 1470 0151 B4000000 		.4byte	0xb4
 1471 0155 02       		.byte	0x2
 1472 0156 23       		.byte	0x23
 1473 0157 00       		.uleb128 0
 1474 0158 0D       		.uleb128 0xd
 1475 0159 6B010000 		.4byte	.LASF25
 1476 015d 04       		.byte	0x4
 1477 015e 3704     		.2byte	0x437
 1478 0160 B4000000 		.4byte	0xb4
 1479 0164 02       		.byte	0x2
 1480 0165 23       		.byte	0x23
 1481 0166 04       		.uleb128 0x4
 1482 0167 0C       		.uleb128 0xc
 1483 0168 43495200 		.ascii	"CIR\000"
 1484 016c 04       		.byte	0x4
 1485 016d 3804     		.2byte	0x438
 1486 016f B4000000 		.4byte	0xb4
 1487 0173 02       		.byte	0x2
ARM GAS  /var/folders/lp/0dm50ddn51vc39svyzv_6fp00000gn/T//ccS91u3A.s 			page 53


 1488 0174 23       		.byte	0x23
 1489 0175 08       		.uleb128 0x8
 1490 0176 0D       		.uleb128 0xd
 1491 0177 DC020000 		.4byte	.LASF26
 1492 017b 04       		.byte	0x4
 1493 017c 3904     		.2byte	0x439
 1494 017e B4000000 		.4byte	0xb4
 1495 0182 02       		.byte	0x2
 1496 0183 23       		.byte	0x23
 1497 0184 0C       		.uleb128 0xc
 1498 0185 0D       		.uleb128 0xd
 1499 0186 13000000 		.4byte	.LASF27
 1500 018a 04       		.byte	0x4
 1501 018b 3A04     		.2byte	0x43a
 1502 018d B4000000 		.4byte	0xb4
 1503 0191 02       		.byte	0x2
 1504 0192 23       		.byte	0x23
 1505 0193 10       		.uleb128 0x10
 1506 0194 0D       		.uleb128 0xd
 1507 0195 0B030000 		.4byte	.LASF28
 1508 0199 04       		.byte	0x4
 1509 019a 3B04     		.2byte	0x43b
 1510 019c B4000000 		.4byte	0xb4
 1511 01a0 02       		.byte	0x2
 1512 01a1 23       		.byte	0x23
 1513 01a2 14       		.uleb128 0x14
 1514 01a3 0D       		.uleb128 0xd
 1515 01a4 71030000 		.4byte	.LASF29
 1516 01a8 04       		.byte	0x4
 1517 01a9 3C04     		.2byte	0x43c
 1518 01ab B4000000 		.4byte	0xb4
 1519 01af 02       		.byte	0x2
 1520 01b0 23       		.byte	0x23
 1521 01b1 18       		.uleb128 0x18
 1522 01b2 0D       		.uleb128 0xd
 1523 01b3 8E010000 		.4byte	.LASF30
 1524 01b7 04       		.byte	0x4
 1525 01b8 3D04     		.2byte	0x43d
 1526 01ba B4000000 		.4byte	0xb4
 1527 01be 02       		.byte	0x2
 1528 01bf 23       		.byte	0x23
 1529 01c0 1C       		.uleb128 0x1c
 1530 01c1 0D       		.uleb128 0xd
 1531 01c2 3D030000 		.4byte	.LASF31
 1532 01c6 04       		.byte	0x4
 1533 01c7 3E04     		.2byte	0x43e
 1534 01c9 B4000000 		.4byte	0xb4
 1535 01cd 02       		.byte	0x2
 1536 01ce 23       		.byte	0x23
 1537 01cf 20       		.uleb128 0x20
 1538 01d0 0C       		.uleb128 0xc
 1539 01d1 43535200 		.ascii	"CSR\000"
 1540 01d5 04       		.byte	0x4
 1541 01d6 3F04     		.2byte	0x43f
 1542 01d8 B4000000 		.4byte	0xb4
 1543 01dc 02       		.byte	0x2
 1544 01dd 23       		.byte	0x23
ARM GAS  /var/folders/lp/0dm50ddn51vc39svyzv_6fp00000gn/T//ccS91u3A.s 			page 54


 1545 01de 24       		.uleb128 0x24
 1546 01df 0D       		.uleb128 0xd
 1547 01e0 36050000 		.4byte	.LASF32
 1548 01e4 04       		.byte	0x4
 1549 01e5 4704     		.2byte	0x447
 1550 01e7 A2000000 		.4byte	0xa2
 1551 01eb 02       		.byte	0x2
 1552 01ec 23       		.byte	0x23
 1553 01ed 28       		.uleb128 0x28
 1554 01ee 0D       		.uleb128 0xd
 1555 01ef 4F010000 		.4byte	.LASF33
 1556 01f3 04       		.byte	0x4
 1557 01f4 4804     		.2byte	0x448
 1558 01f6 B4000000 		.4byte	0xb4
 1559 01fa 02       		.byte	0x2
 1560 01fb 23       		.byte	0x23
 1561 01fc 2C       		.uleb128 0x2c
 1562 01fd 00       		.byte	0
 1563 01fe 0A       		.uleb128 0xa
 1564 01ff F5010000 		.4byte	.LASF34
 1565 0203 04       		.byte	0x4
 1566 0204 4A04     		.2byte	0x44a
 1567 0206 41010000 		.4byte	0x141
 1568 020a 0E       		.uleb128 0xe
 1569 020b 14       		.byte	0x14
 1570 020c 05       		.byte	0x5
 1571 020d 2E       		.byte	0x2e
 1572 020e 59020000 		.4byte	0x259
 1573 0212 0F       		.uleb128 0xf
 1574 0213 EB040000 		.4byte	.LASF35
 1575 0217 05       		.byte	0x5
 1576 0218 30       		.byte	0x30
 1577 0219 A2000000 		.4byte	0xa2
 1578 021d 02       		.byte	0x2
 1579 021e 23       		.byte	0x23
 1580 021f 00       		.uleb128 0
 1581 0220 0F       		.uleb128 0xf
 1582 0221 75000000 		.4byte	.LASF36
 1583 0225 05       		.byte	0x5
 1584 0226 31       		.byte	0x31
 1585 0227 A2000000 		.4byte	0xa2
 1586 022b 02       		.byte	0x2
 1587 022c 23       		.byte	0x23
 1588 022d 04       		.uleb128 0x4
 1589 022e 0F       		.uleb128 0xf
 1590 022f 95050000 		.4byte	.LASF37
 1591 0233 05       		.byte	0x5
 1592 0234 32       		.byte	0x32
 1593 0235 A2000000 		.4byte	0xa2
 1594 0239 02       		.byte	0x2
 1595 023a 23       		.byte	0x23
 1596 023b 08       		.uleb128 0x8
 1597 023c 0F       		.uleb128 0xf
 1598 023d 02050000 		.4byte	.LASF38
 1599 0241 05       		.byte	0x5
 1600 0242 33       		.byte	0x33
 1601 0243 A2000000 		.4byte	0xa2
ARM GAS  /var/folders/lp/0dm50ddn51vc39svyzv_6fp00000gn/T//ccS91u3A.s 			page 55


 1602 0247 02       		.byte	0x2
 1603 0248 23       		.byte	0x23
 1604 0249 0C       		.uleb128 0xc
 1605 024a 0F       		.uleb128 0xf
 1606 024b C5030000 		.4byte	.LASF39
 1607 024f 05       		.byte	0x5
 1608 0250 34       		.byte	0x34
 1609 0251 A2000000 		.4byte	0xa2
 1610 0255 02       		.byte	0x2
 1611 0256 23       		.byte	0x23
 1612 0257 10       		.uleb128 0x10
 1613 0258 00       		.byte	0
 1614 0259 03       		.uleb128 0x3
 1615 025a 40040000 		.4byte	.LASF40
 1616 025e 05       		.byte	0x5
 1617 025f 35       		.byte	0x35
 1618 0260 0A020000 		.4byte	0x20a
 1619 0264 10       		.uleb128 0x10
 1620 0265 01       		.byte	0x1
 1621 0266 B3010000 		.4byte	.LASF100
 1622 026a 01       		.byte	0x1
 1623 026b D9       		.byte	0xd9
 1624 026c 01       		.byte	0x1
 1625 026d 00000000 		.4byte	.LFB29
 1626 0271 44000000 		.4byte	.LFE29
 1627 0275 02       		.byte	0x2
 1628 0276 7D       		.byte	0x7d
 1629 0277 00       		.sleb128 0
 1630 0278 01       		.byte	0x1
 1631 0279 11       		.uleb128 0x11
 1632 027a 01       		.byte	0x1
 1633 027b AB040000 		.4byte	.LASF41
 1634 027f 01       		.byte	0x1
 1635 0280 0E01     		.2byte	0x10e
 1636 0282 01       		.byte	0x1
 1637 0283 44000000 		.4byte	.LFB30
 1638 0287 7C000000 		.4byte	.LFE30
 1639 028b 02       		.byte	0x2
 1640 028c 7D       		.byte	0x7d
 1641 028d 00       		.sleb128 0
 1642 028e 01       		.byte	0x1
 1643 028f A2020000 		.4byte	0x2a2
 1644 0293 12       		.uleb128 0x12
 1645 0294 6C050000 		.4byte	.LASF43
 1646 0298 01       		.byte	0x1
 1647 0299 0E01     		.2byte	0x10e
 1648 029b A2000000 		.4byte	0xa2
 1649 029f 01       		.byte	0x1
 1650 02a0 50       		.byte	0x50
 1651 02a1 00       		.byte	0
 1652 02a2 11       		.uleb128 0x11
 1653 02a3 01       		.byte	0x1
 1654 02a4 A7030000 		.4byte	.LASF42
 1655 02a8 01       		.byte	0x1
 1656 02a9 4E01     		.2byte	0x14e
 1657 02ab 01       		.byte	0x1
 1658 02ac 7C000000 		.4byte	.LFB32
ARM GAS  /var/folders/lp/0dm50ddn51vc39svyzv_6fp00000gn/T//ccS91u3A.s 			page 56


 1659 02b0 90000000 		.4byte	.LFE32
 1660 02b4 02       		.byte	0x2
 1661 02b5 7D       		.byte	0x7d
 1662 02b6 00       		.sleb128 0
 1663 02b7 01       		.byte	0x1
 1664 02b8 DD020000 		.4byte	0x2dd
 1665 02bc 13       		.uleb128 0x13
 1666 02bd C4050000 		.4byte	.LASF44
 1667 02c1 01       		.byte	0x1
 1668 02c2 4E01     		.2byte	0x14e
 1669 02c4 8C000000 		.4byte	0x8c
 1670 02c8 00000000 		.4byte	.LLST0
 1671 02cc 14       		.uleb128 0x14
 1672 02cd 22030000 		.4byte	.LASF50
 1673 02d1 01       		.byte	0x1
 1674 02d2 5001     		.2byte	0x150
 1675 02d4 A2000000 		.4byte	0xa2
 1676 02d8 21000000 		.4byte	.LLST1
 1677 02dc 00       		.byte	0
 1678 02dd 11       		.uleb128 0x11
 1679 02de 01       		.byte	0x1
 1680 02df 3A060000 		.4byte	.LASF45
 1681 02e3 01       		.byte	0x1
 1682 02e4 6201     		.2byte	0x162
 1683 02e6 01       		.byte	0x1
 1684 02e7 90000000 		.4byte	.LFB33
 1685 02eb 9C000000 		.4byte	.LFE33
 1686 02ef 02       		.byte	0x2
 1687 02f0 7D       		.byte	0x7d
 1688 02f1 00       		.sleb128 0
 1689 02f2 01       		.byte	0x1
 1690 02f3 06030000 		.4byte	0x306
 1691 02f7 12       		.uleb128 0x12
 1692 02f8 9C010000 		.4byte	.LASF46
 1693 02fc 01       		.byte	0x1
 1694 02fd 6201     		.2byte	0x162
 1695 02ff 0F010000 		.4byte	0x10f
 1696 0303 01       		.byte	0x1
 1697 0304 50       		.byte	0x50
 1698 0305 00       		.byte	0
 1699 0306 11       		.uleb128 0x11
 1700 0307 01       		.byte	0x1
 1701 0308 3D020000 		.4byte	.LASF47
 1702 030c 01       		.byte	0x1
 1703 030d 7A01     		.2byte	0x17a
 1704 030f 01       		.byte	0x1
 1705 0310 9C000000 		.4byte	.LFB34
 1706 0314 B0000000 		.4byte	.LFE34
 1707 0318 02       		.byte	0x2
 1708 0319 7D       		.byte	0x7d
 1709 031a 00       		.sleb128 0
 1710 031b 01       		.byte	0x1
 1711 031c 51030000 		.4byte	0x351
 1712 0320 13       		.uleb128 0x13
 1713 0321 EC030000 		.4byte	.LASF48
 1714 0325 01       		.byte	0x1
 1715 0326 7A01     		.2byte	0x17a
ARM GAS  /var/folders/lp/0dm50ddn51vc39svyzv_6fp00000gn/T//ccS91u3A.s 			page 57


 1716 0328 A2000000 		.4byte	0xa2
 1717 032c 4B000000 		.4byte	.LLST2
 1718 0330 13       		.uleb128 0x13
 1719 0331 A0040000 		.4byte	.LASF49
 1720 0335 01       		.byte	0x1
 1721 0336 7A01     		.2byte	0x17a
 1722 0338 A2000000 		.4byte	0xa2
 1723 033c 6C000000 		.4byte	.LLST3
 1724 0340 14       		.uleb128 0x14
 1725 0341 22030000 		.4byte	.LASF50
 1726 0345 01       		.byte	0x1
 1727 0346 7C01     		.2byte	0x17c
 1728 0348 A2000000 		.4byte	0xa2
 1729 034c 8D000000 		.4byte	.LLST4
 1730 0350 00       		.byte	0
 1731 0351 11       		.uleb128 0x11
 1732 0352 01       		.byte	0x1
 1733 0353 3A010000 		.4byte	.LASF51
 1734 0357 01       		.byte	0x1
 1735 0358 9101     		.2byte	0x191
 1736 035a 01       		.byte	0x1
 1737 035b B0000000 		.4byte	.LFB35
 1738 035f BC000000 		.4byte	.LFE35
 1739 0363 02       		.byte	0x2
 1740 0364 7D       		.byte	0x7d
 1741 0365 00       		.sleb128 0
 1742 0366 01       		.byte	0x1
 1743 0367 7A030000 		.4byte	0x37a
 1744 036b 12       		.uleb128 0x12
 1745 036c 9C010000 		.4byte	.LASF46
 1746 0370 01       		.byte	0x1
 1747 0371 9101     		.2byte	0x191
 1748 0373 0F010000 		.4byte	0x10f
 1749 0377 01       		.byte	0x1
 1750 0378 50       		.byte	0x50
 1751 0379 00       		.byte	0
 1752 037a 11       		.uleb128 0x11
 1753 037b 01       		.byte	0x1
 1754 037c 15040000 		.4byte	.LASF52
 1755 0380 01       		.byte	0x1
 1756 0381 AA01     		.2byte	0x1aa
 1757 0383 01       		.byte	0x1
 1758 0384 BC000000 		.4byte	.LFB36
 1759 0388 D4000000 		.4byte	.LFE36
 1760 038c 02       		.byte	0x2
 1761 038d 7D       		.byte	0x7d
 1762 038e 00       		.sleb128 0
 1763 038f 01       		.byte	0x1
 1764 0390 C5030000 		.4byte	0x3c5
 1765 0394 13       		.uleb128 0x13
 1766 0395 00000000 		.4byte	.LASF53
 1767 0399 01       		.byte	0x1
 1768 039a AA01     		.2byte	0x1aa
 1769 039c A2000000 		.4byte	0xa2
 1770 03a0 CA000000 		.4byte	.LLST5
 1771 03a4 13       		.uleb128 0x13
 1772 03a5 36000000 		.4byte	.LASF54
ARM GAS  /var/folders/lp/0dm50ddn51vc39svyzv_6fp00000gn/T//ccS91u3A.s 			page 58


 1773 03a9 01       		.byte	0x1
 1774 03aa AA01     		.2byte	0x1aa
 1775 03ac A2000000 		.4byte	0xa2
 1776 03b0 EB000000 		.4byte	.LLST6
 1777 03b4 14       		.uleb128 0x14
 1778 03b5 22030000 		.4byte	.LASF50
 1779 03b9 01       		.byte	0x1
 1780 03ba AC01     		.2byte	0x1ac
 1781 03bc A2000000 		.4byte	0xa2
 1782 03c0 0C010000 		.4byte	.LLST7
 1783 03c4 00       		.byte	0
 1784 03c5 11       		.uleb128 0x11
 1785 03c6 01       		.byte	0x1
 1786 03c7 1A060000 		.4byte	.LASF55
 1787 03cb 01       		.byte	0x1
 1788 03cc 3402     		.2byte	0x234
 1789 03ce 01       		.byte	0x1
 1790 03cf D4000000 		.4byte	.LFB37
 1791 03d3 E8000000 		.4byte	.LFE37
 1792 03d7 02       		.byte	0x2
 1793 03d8 7D       		.byte	0x7d
 1794 03d9 00       		.sleb128 0
 1795 03da 01       		.byte	0x1
 1796 03db 00040000 		.4byte	0x400
 1797 03df 13       		.uleb128 0x13
 1798 03e0 74050000 		.4byte	.LASF56
 1799 03e4 01       		.byte	0x1
 1800 03e5 3402     		.2byte	0x234
 1801 03e7 A2000000 		.4byte	0xa2
 1802 03eb 3D010000 		.4byte	.LLST8
 1803 03ef 14       		.uleb128 0x14
 1804 03f0 22030000 		.4byte	.LASF50
 1805 03f4 01       		.byte	0x1
 1806 03f5 3602     		.2byte	0x236
 1807 03f7 A2000000 		.4byte	0xa2
 1808 03fb 5E010000 		.4byte	.LLST9
 1809 03ff 00       		.byte	0
 1810 0400 15       		.uleb128 0x15
 1811 0401 01       		.byte	0x1
 1812 0402 C8020000 		.4byte	.LASF109
 1813 0406 01       		.byte	0x1
 1814 0407 4B02     		.2byte	0x24b
 1815 0409 01       		.byte	0x1
 1816 040a 8C000000 		.4byte	0x8c
 1817 040e E8000000 		.4byte	.LFB38
 1818 0412 F8000000 		.4byte	.LFE38
 1819 0416 02       		.byte	0x2
 1820 0417 7D       		.byte	0x7d
 1821 0418 00       		.sleb128 0
 1822 0419 01       		.byte	0x1
 1823 041a 11       		.uleb128 0x11
 1824 041b 01       		.byte	0x1
 1825 041c 2B060000 		.4byte	.LASF57
 1826 0420 01       		.byte	0x1
 1827 0421 6002     		.2byte	0x260
 1828 0423 01       		.byte	0x1
 1829 0424 F8000000 		.4byte	.LFB39
ARM GAS  /var/folders/lp/0dm50ddn51vc39svyzv_6fp00000gn/T//ccS91u3A.s 			page 59


 1830 0428 0C010000 		.4byte	.LFE39
 1831 042c 02       		.byte	0x2
 1832 042d 7D       		.byte	0x7d
 1833 042e 00       		.sleb128 0
 1834 042f 01       		.byte	0x1
 1835 0430 55040000 		.4byte	0x455
 1836 0434 13       		.uleb128 0x13
 1837 0435 7A040000 		.4byte	.LASF58
 1838 0439 01       		.byte	0x1
 1839 043a 6002     		.2byte	0x260
 1840 043c A2000000 		.4byte	0xa2
 1841 0440 88010000 		.4byte	.LLST10
 1842 0444 14       		.uleb128 0x14
 1843 0445 22030000 		.4byte	.LASF50
 1844 0449 01       		.byte	0x1
 1845 044a 6202     		.2byte	0x262
 1846 044c A2000000 		.4byte	0xa2
 1847 0450 A9010000 		.4byte	.LLST11
 1848 0454 00       		.byte	0
 1849 0455 11       		.uleb128 0x11
 1850 0456 01       		.byte	0x1
 1851 0457 12030000 		.4byte	.LASF59
 1852 045b 01       		.byte	0x1
 1853 045c 7A02     		.2byte	0x27a
 1854 045e 01       		.byte	0x1
 1855 045f 0C010000 		.4byte	.LFB40
 1856 0463 20010000 		.4byte	.LFE40
 1857 0467 02       		.byte	0x2
 1858 0468 7D       		.byte	0x7d
 1859 0469 00       		.sleb128 0
 1860 046a 01       		.byte	0x1
 1861 046b 90040000 		.4byte	0x490
 1862 046f 13       		.uleb128 0x13
 1863 0470 1C000000 		.4byte	.LASF60
 1864 0474 01       		.byte	0x1
 1865 0475 7A02     		.2byte	0x27a
 1866 0477 A2000000 		.4byte	0xa2
 1867 047b D3010000 		.4byte	.LLST12
 1868 047f 14       		.uleb128 0x14
 1869 0480 22030000 		.4byte	.LASF50
 1870 0484 01       		.byte	0x1
 1871 0485 7C02     		.2byte	0x27c
 1872 0487 A2000000 		.4byte	0xa2
 1873 048b F4010000 		.4byte	.LLST13
 1874 048f 00       		.byte	0
 1875 0490 11       		.uleb128 0x11
 1876 0491 01       		.byte	0x1
 1877 0492 7A060000 		.4byte	.LASF61
 1878 0496 01       		.byte	0x1
 1879 0497 9402     		.2byte	0x294
 1880 0499 01       		.byte	0x1
 1881 049a 20010000 		.4byte	.LFB41
 1882 049e 34010000 		.4byte	.LFE41
 1883 04a2 02       		.byte	0x2
 1884 04a3 7D       		.byte	0x7d
 1885 04a4 00       		.sleb128 0
 1886 04a5 01       		.byte	0x1
ARM GAS  /var/folders/lp/0dm50ddn51vc39svyzv_6fp00000gn/T//ccS91u3A.s 			page 60


 1887 04a6 CB040000 		.4byte	0x4cb
 1888 04aa 13       		.uleb128 0x13
 1889 04ab 1C000000 		.4byte	.LASF60
 1890 04af 01       		.byte	0x1
 1891 04b0 9402     		.2byte	0x294
 1892 04b2 A2000000 		.4byte	0xa2
 1893 04b6 1E020000 		.4byte	.LLST14
 1894 04ba 14       		.uleb128 0x14
 1895 04bb 22030000 		.4byte	.LASF50
 1896 04bf 01       		.byte	0x1
 1897 04c0 9602     		.2byte	0x296
 1898 04c2 A2000000 		.4byte	0xa2
 1899 04c6 3F020000 		.4byte	.LLST15
 1900 04ca 00       		.byte	0
 1901 04cb 11       		.uleb128 0x11
 1902 04cc 01       		.byte	0x1
 1903 04cd 12050000 		.4byte	.LASF62
 1904 04d1 01       		.byte	0x1
 1905 04d2 BC02     		.2byte	0x2bc
 1906 04d4 01       		.byte	0x1
 1907 04d5 34010000 		.4byte	.LFB42
 1908 04d9 4C010000 		.4byte	.LFE42
 1909 04dd 02       		.byte	0x2
 1910 04de 7D       		.byte	0x7d
 1911 04df 00       		.sleb128 0
 1912 04e0 01       		.byte	0x1
 1913 04e1 04050000 		.4byte	0x504
 1914 04e5 13       		.uleb128 0x13
 1915 04e6 5A060000 		.4byte	.LASF63
 1916 04ea 01       		.byte	0x1
 1917 04eb BC02     		.2byte	0x2bc
 1918 04ed 8C000000 		.4byte	0x8c
 1919 04f1 69020000 		.4byte	.LLST16
 1920 04f5 12       		.uleb128 0x12
 1921 04f6 9C010000 		.4byte	.LASF46
 1922 04fa 01       		.byte	0x1
 1923 04fb BC02     		.2byte	0x2bc
 1924 04fd 0F010000 		.4byte	0x10f
 1925 0501 01       		.byte	0x1
 1926 0502 51       		.byte	0x51
 1927 0503 00       		.byte	0
 1928 0504 11       		.uleb128 0x11
 1929 0505 01       		.byte	0x1
 1930 0506 AC020000 		.4byte	.LASF64
 1931 050a 01       		.byte	0x1
 1932 050b D802     		.2byte	0x2d8
 1933 050d 01       		.byte	0x1
 1934 050e 4C010000 		.4byte	.LFB43
 1935 0512 58010000 		.4byte	.LFE43
 1936 0516 02       		.byte	0x2
 1937 0517 7D       		.byte	0x7d
 1938 0518 00       		.sleb128 0
 1939 0519 01       		.byte	0x1
 1940 051a 2D050000 		.4byte	0x52d
 1941 051e 12       		.uleb128 0x12
 1942 051f 27040000 		.4byte	.LASF65
 1943 0523 01       		.byte	0x1
ARM GAS  /var/folders/lp/0dm50ddn51vc39svyzv_6fp00000gn/T//ccS91u3A.s 			page 61


 1944 0524 D802     		.2byte	0x2d8
 1945 0526 A2000000 		.4byte	0xa2
 1946 052a 01       		.byte	0x1
 1947 052b 50       		.byte	0x50
 1948 052c 00       		.byte	0
 1949 052d 11       		.uleb128 0x11
 1950 052e 01       		.byte	0x1
 1951 052f 25000000 		.4byte	.LASF66
 1952 0533 01       		.byte	0x1
 1953 0534 FE02     		.2byte	0x2fe
 1954 0536 01       		.byte	0x1
 1955 0537 58010000 		.4byte	.LFB44
 1956 053b 6C010000 		.4byte	.LFE44
 1957 053f 02       		.byte	0x2
 1958 0540 7D       		.byte	0x7d
 1959 0541 00       		.sleb128 0
 1960 0542 01       		.byte	0x1
 1961 0543 68050000 		.4byte	0x568
 1962 0547 13       		.uleb128 0x13
 1963 0548 93000000 		.4byte	.LASF67
 1964 054c 01       		.byte	0x1
 1965 054d FE02     		.2byte	0x2fe
 1966 054f A2000000 		.4byte	0xa2
 1967 0553 A3020000 		.4byte	.LLST17
 1968 0557 14       		.uleb128 0x14
 1969 0558 22030000 		.4byte	.LASF50
 1970 055c 01       		.byte	0x1
 1971 055d 0003     		.2byte	0x300
 1972 055f A2000000 		.4byte	0xa2
 1973 0563 C4020000 		.4byte	.LLST18
 1974 0567 00       		.byte	0
 1975 0568 11       		.uleb128 0x11
 1976 0569 01       		.byte	0x1
 1977 056a A5050000 		.4byte	.LASF68
 1978 056e 01       		.byte	0x1
 1979 056f 3D03     		.2byte	0x33d
 1980 0571 01       		.byte	0x1
 1981 0572 6C010000 		.4byte	.LFB45
 1982 0576 8C010000 		.4byte	.LFE45
 1983 057a 02       		.byte	0x2
 1984 057b 7D       		.byte	0x7d
 1985 057c 00       		.sleb128 0
 1986 057d 01       		.byte	0x1
 1987 057e 91050000 		.4byte	0x591
 1988 0582 12       		.uleb128 0x12
 1989 0583 DC010000 		.4byte	.LASF69
 1990 0587 01       		.byte	0x1
 1991 0588 3D03     		.2byte	0x33d
 1992 058a 8C000000 		.4byte	0x8c
 1993 058e 01       		.byte	0x1
 1994 058f 50       		.byte	0x50
 1995 0590 00       		.byte	0
 1996 0591 11       		.uleb128 0x11
 1997 0592 01       		.byte	0x1
 1998 0593 BD020000 		.4byte	.LASF70
 1999 0597 01       		.byte	0x1
 2000 0598 5E03     		.2byte	0x35e
ARM GAS  /var/folders/lp/0dm50ddn51vc39svyzv_6fp00000gn/T//ccS91u3A.s 			page 62


 2001 059a 01       		.byte	0x1
 2002 059b 8C010000 		.4byte	.LFB46
 2003 059f 98010000 		.4byte	.LFE46
 2004 05a3 02       		.byte	0x2
 2005 05a4 7D       		.byte	0x7d
 2006 05a5 00       		.sleb128 0
 2007 05a6 01       		.byte	0x1
 2008 05a7 BA050000 		.4byte	0x5ba
 2009 05ab 12       		.uleb128 0x12
 2010 05ac 9C010000 		.4byte	.LASF46
 2011 05b0 01       		.byte	0x1
 2012 05b1 5E03     		.2byte	0x35e
 2013 05b3 0F010000 		.4byte	0x10f
 2014 05b7 01       		.byte	0x1
 2015 05b8 50       		.byte	0x50
 2016 05b9 00       		.byte	0
 2017 05ba 11       		.uleb128 0x11
 2018 05bb 01       		.byte	0x1
 2019 05bc 49050000 		.4byte	.LASF71
 2020 05c0 01       		.byte	0x1
 2021 05c1 6F03     		.2byte	0x36f
 2022 05c3 01       		.byte	0x1
 2023 05c4 98010000 		.4byte	.LFB47
 2024 05c8 A8010000 		.4byte	.LFE47
 2025 05cc 02       		.byte	0x2
 2026 05cd 7D       		.byte	0x7d
 2027 05ce 00       		.sleb128 0
 2028 05cf 01       		.byte	0x1
 2029 05d0 E5050000 		.4byte	0x5e5
 2030 05d4 13       		.uleb128 0x13
 2031 05d5 E4010000 		.4byte	.LASF72
 2032 05d9 01       		.byte	0x1
 2033 05da 6F03     		.2byte	0x36f
 2034 05dc A2000000 		.4byte	0xa2
 2035 05e0 EE020000 		.4byte	.LLST19
 2036 05e4 00       		.byte	0
 2037 05e5 11       		.uleb128 0x11
 2038 05e6 01       		.byte	0x1
 2039 05e7 01060000 		.4byte	.LASF73
 2040 05eb 01       		.byte	0x1
 2041 05ec 7D03     		.2byte	0x37d
 2042 05ee 01       		.byte	0x1
 2043 05ef A8010000 		.4byte	.LFB48
 2044 05f3 B4010000 		.4byte	.LFE48
 2045 05f7 02       		.byte	0x2
 2046 05f8 7D       		.byte	0x7d
 2047 05f9 00       		.sleb128 0
 2048 05fa 01       		.byte	0x1
 2049 05fb 0E060000 		.4byte	0x60e
 2050 05ff 12       		.uleb128 0x12
 2051 0600 9C010000 		.4byte	.LASF46
 2052 0604 01       		.byte	0x1
 2053 0605 7D03     		.2byte	0x37d
 2054 0607 0F010000 		.4byte	0x10f
 2055 060b 01       		.byte	0x1
 2056 060c 50       		.byte	0x50
 2057 060d 00       		.byte	0
ARM GAS  /var/folders/lp/0dm50ddn51vc39svyzv_6fp00000gn/T//ccS91u3A.s 			page 63


 2058 060e 16       		.uleb128 0x16
 2059 060f 01       		.byte	0x1
 2060 0610 D8050000 		.4byte	.LASF74
 2061 0614 01       		.byte	0x1
 2062 0615 8C03     		.2byte	0x38c
 2063 0617 01       		.byte	0x1
 2064 0618 B4010000 		.4byte	.LFB49
 2065 061c 3C020000 		.4byte	.LFE49
 2066 0620 0F030000 		.4byte	.LLST20
 2067 0624 01       		.byte	0x1
 2068 0625 88060000 		.4byte	0x688
 2069 0629 12       		.uleb128 0x12
 2070 062a 0F060000 		.4byte	.LASF75
 2071 062e 01       		.byte	0x1
 2072 062f 8C03     		.2byte	0x38c
 2073 0631 88060000 		.4byte	0x688
 2074 0635 01       		.byte	0x1
 2075 0636 50       		.byte	0x50
 2076 0637 17       		.uleb128 0x17
 2077 0638 746D7000 		.ascii	"tmp\000"
 2078 063c 01       		.byte	0x1
 2079 063d 8E03     		.2byte	0x38e
 2080 063f A2000000 		.4byte	0xa2
 2081 0643 2F030000 		.4byte	.LLST21
 2082 0647 14       		.uleb128 0x14
 2083 0648 A4020000 		.4byte	.LASF76
 2084 064c 01       		.byte	0x1
 2085 064d 8E03     		.2byte	0x38e
 2086 064f A2000000 		.4byte	0xa2
 2087 0653 EA030000 		.4byte	.LLST22
 2088 0657 14       		.uleb128 0x14
 2089 0658 01030000 		.4byte	.LASF77
 2090 065c 01       		.byte	0x1
 2091 065d 8E03     		.2byte	0x38e
 2092 065f A2000000 		.4byte	0xa2
 2093 0663 1A040000 		.4byte	.LLST23
 2094 0667 14       		.uleb128 0x14
 2095 0668 96010000 		.4byte	.LASF78
 2096 066c 01       		.byte	0x1
 2097 066d 8E03     		.2byte	0x38e
 2098 066f A2000000 		.4byte	0xa2
 2099 0673 3F040000 		.4byte	.LLST24
 2100 0677 14       		.uleb128 0x14
 2101 0678 5D020000 		.4byte	.LASF79
 2102 067c 01       		.byte	0x1
 2103 067d 9503     		.2byte	0x395
 2104 067f A2000000 		.4byte	0xa2
 2105 0683 7F040000 		.4byte	.LLST25
 2106 0687 00       		.byte	0
 2107 0688 18       		.uleb128 0x18
 2108 0689 04       		.byte	0x4
 2109 068a 59020000 		.4byte	0x259
 2110 068e 11       		.uleb128 0x11
 2111 068f 01       		.byte	0x1
 2112 0690 55010000 		.4byte	.LASF80
 2113 0694 01       		.byte	0x1
 2114 0695 2804     		.2byte	0x428
ARM GAS  /var/folders/lp/0dm50ddn51vc39svyzv_6fp00000gn/T//ccS91u3A.s 			page 64


 2115 0697 01       		.byte	0x1
 2116 0698 3C020000 		.4byte	.LFB50
 2117 069c 54020000 		.4byte	.LFE50
 2118 06a0 02       		.byte	0x2
 2119 06a1 7D       		.byte	0x7d
 2120 06a2 00       		.sleb128 0
 2121 06a3 01       		.byte	0x1
 2122 06a4 C7060000 		.4byte	0x6c7
 2123 06a8 13       		.uleb128 0x13
 2124 06a9 6C060000 		.4byte	.LASF81
 2125 06ad 01       		.byte	0x1
 2126 06ae 2804     		.2byte	0x428
 2127 06b0 A2000000 		.4byte	0xa2
 2128 06b4 93040000 		.4byte	.LLST26
 2129 06b8 12       		.uleb128 0x12
 2130 06b9 9C010000 		.4byte	.LASF46
 2131 06bd 01       		.byte	0x1
 2132 06be 2804     		.2byte	0x428
 2133 06c0 0F010000 		.4byte	0x10f
 2134 06c4 01       		.byte	0x1
 2135 06c5 51       		.byte	0x51
 2136 06c6 00       		.byte	0
 2137 06c7 11       		.uleb128 0x11
 2138 06c8 01       		.byte	0x1
 2139 06c9 1F050000 		.4byte	.LASF82
 2140 06cd 01       		.byte	0x1
 2141 06ce 4704     		.2byte	0x447
 2142 06d0 01       		.byte	0x1
 2143 06d1 54020000 		.4byte	.LFB51
 2144 06d5 6C020000 		.4byte	.LFE51
 2145 06d9 02       		.byte	0x2
 2146 06da 7D       		.byte	0x7d
 2147 06db 00       		.sleb128 0
 2148 06dc 01       		.byte	0x1
 2149 06dd 00070000 		.4byte	0x700
 2150 06e1 13       		.uleb128 0x13
 2151 06e2 84000000 		.4byte	.LASF83
 2152 06e6 01       		.byte	0x1
 2153 06e7 4704     		.2byte	0x447
 2154 06e9 A2000000 		.4byte	0xa2
 2155 06ed CD040000 		.4byte	.LLST27
 2156 06f1 12       		.uleb128 0x12
 2157 06f2 9C010000 		.4byte	.LASF46
 2158 06f6 01       		.byte	0x1
 2159 06f7 4704     		.2byte	0x447
 2160 06f9 0F010000 		.4byte	0x10f
 2161 06fd 01       		.byte	0x1
 2162 06fe 51       		.byte	0x51
 2163 06ff 00       		.byte	0
 2164 0700 11       		.uleb128 0x11
 2165 0701 01       		.byte	0x1
 2166 0702 42030000 		.4byte	.LASF84
 2167 0706 01       		.byte	0x1
 2168 0707 6604     		.2byte	0x466
 2169 0709 01       		.byte	0x1
 2170 070a 6C020000 		.4byte	.LFB52
 2171 070e 84020000 		.4byte	.LFE52
ARM GAS  /var/folders/lp/0dm50ddn51vc39svyzv_6fp00000gn/T//ccS91u3A.s 			page 65


 2172 0712 02       		.byte	0x2
 2173 0713 7D       		.byte	0x7d
 2174 0714 00       		.sleb128 0
 2175 0715 01       		.byte	0x1
 2176 0716 39070000 		.4byte	0x739
 2177 071a 13       		.uleb128 0x13
 2178 071b 77010000 		.4byte	.LASF85
 2179 071f 01       		.byte	0x1
 2180 0720 6604     		.2byte	0x466
 2181 0722 A2000000 		.4byte	0xa2
 2182 0726 07050000 		.4byte	.LLST28
 2183 072a 12       		.uleb128 0x12
 2184 072b 9C010000 		.4byte	.LASF46
 2185 072f 01       		.byte	0x1
 2186 0730 6604     		.2byte	0x466
 2187 0732 0F010000 		.4byte	0x10f
 2188 0736 01       		.byte	0x1
 2189 0737 51       		.byte	0x51
 2190 0738 00       		.byte	0
 2191 0739 11       		.uleb128 0x11
 2192 073a 01       		.byte	0x1
 2193 073b EA050000 		.4byte	.LASF86
 2194 073f 01       		.byte	0x1
 2195 0740 A104     		.2byte	0x4a1
 2196 0742 01       		.byte	0x1
 2197 0743 84020000 		.4byte	.LFB53
 2198 0747 9C020000 		.4byte	.LFE53
 2199 074b 02       		.byte	0x2
 2200 074c 7D       		.byte	0x7d
 2201 074d 00       		.sleb128 0
 2202 074e 01       		.byte	0x1
 2203 074f 72070000 		.4byte	0x772
 2204 0753 13       		.uleb128 0x13
 2205 0754 84000000 		.4byte	.LASF83
 2206 0758 01       		.byte	0x1
 2207 0759 A104     		.2byte	0x4a1
 2208 075b A2000000 		.4byte	0xa2
 2209 075f 41050000 		.4byte	.LLST29
 2210 0763 12       		.uleb128 0x12
 2211 0764 9C010000 		.4byte	.LASF46
 2212 0768 01       		.byte	0x1
 2213 0769 A104     		.2byte	0x4a1
 2214 076b 0F010000 		.4byte	0x10f
 2215 076f 01       		.byte	0x1
 2216 0770 51       		.byte	0x51
 2217 0771 00       		.byte	0
 2218 0772 11       		.uleb128 0x11
 2219 0773 01       		.byte	0x1
 2220 0774 26020000 		.4byte	.LASF87
 2221 0778 01       		.byte	0x1
 2222 0779 C004     		.2byte	0x4c0
 2223 077b 01       		.byte	0x1
 2224 077c 9C020000 		.4byte	.LFB54
 2225 0780 B4020000 		.4byte	.LFE54
 2226 0784 02       		.byte	0x2
 2227 0785 7D       		.byte	0x7d
 2228 0786 00       		.sleb128 0
ARM GAS  /var/folders/lp/0dm50ddn51vc39svyzv_6fp00000gn/T//ccS91u3A.s 			page 66


 2229 0787 01       		.byte	0x1
 2230 0788 AB070000 		.4byte	0x7ab
 2231 078c 13       		.uleb128 0x13
 2232 078d 77010000 		.4byte	.LASF85
 2233 0791 01       		.byte	0x1
 2234 0792 C004     		.2byte	0x4c0
 2235 0794 A2000000 		.4byte	0xa2
 2236 0798 7B050000 		.4byte	.LLST30
 2237 079c 12       		.uleb128 0x12
 2238 079d 9C010000 		.4byte	.LASF46
 2239 07a1 01       		.byte	0x1
 2240 07a2 C004     		.2byte	0x4c0
 2241 07a4 0F010000 		.4byte	0x10f
 2242 07a8 01       		.byte	0x1
 2243 07a9 51       		.byte	0x51
 2244 07aa 00       		.byte	0
 2245 07ab 11       		.uleb128 0x11
 2246 07ac 01       		.byte	0x1
 2247 07ad 94030000 		.4byte	.LASF88
 2248 07b1 01       		.byte	0x1
 2249 07b2 D504     		.2byte	0x4d5
 2250 07b4 01       		.byte	0x1
 2251 07b5 B4020000 		.4byte	.LFB55
 2252 07b9 C0020000 		.4byte	.LFE55
 2253 07bd 02       		.byte	0x2
 2254 07be 7D       		.byte	0x7d
 2255 07bf 00       		.sleb128 0
 2256 07c0 01       		.byte	0x1
 2257 07c1 D4070000 		.4byte	0x7d4
 2258 07c5 12       		.uleb128 0x12
 2259 07c6 9C010000 		.4byte	.LASF46
 2260 07ca 01       		.byte	0x1
 2261 07cb D504     		.2byte	0x4d5
 2262 07cd 0F010000 		.4byte	0x10f
 2263 07d1 01       		.byte	0x1
 2264 07d2 50       		.byte	0x50
 2265 07d3 00       		.byte	0
 2266 07d4 11       		.uleb128 0x11
 2267 07d5 01       		.byte	0x1
 2268 07d6 85040000 		.4byte	.LASF89
 2269 07da 01       		.byte	0x1
 2270 07db E204     		.2byte	0x4e2
 2271 07dd 01       		.byte	0x1
 2272 07de C0020000 		.4byte	.LFB56
 2273 07e2 CC020000 		.4byte	.LFE56
 2274 07e6 02       		.byte	0x2
 2275 07e7 7D       		.byte	0x7d
 2276 07e8 00       		.sleb128 0
 2277 07e9 01       		.byte	0x1
 2278 07ea FD070000 		.4byte	0x7fd
 2279 07ee 12       		.uleb128 0x12
 2280 07ef 9C010000 		.4byte	.LASF46
 2281 07f3 01       		.byte	0x1
 2282 07f4 E204     		.2byte	0x4e2
 2283 07f6 0F010000 		.4byte	0x10f
 2284 07fa 01       		.byte	0x1
 2285 07fb 50       		.byte	0x50
ARM GAS  /var/folders/lp/0dm50ddn51vc39svyzv_6fp00000gn/T//ccS91u3A.s 			page 67


 2286 07fc 00       		.byte	0
 2287 07fd 11       		.uleb128 0x11
 2288 07fe 01       		.byte	0x1
 2289 07ff A5010000 		.4byte	.LASF90
 2290 0803 01       		.byte	0x1
 2291 0804 0205     		.2byte	0x502
 2292 0806 01       		.byte	0x1
 2293 0807 CC020000 		.4byte	.LFB57
 2294 080b D8020000 		.4byte	.LFE57
 2295 080f 02       		.byte	0x2
 2296 0810 7D       		.byte	0x7d
 2297 0811 00       		.sleb128 0
 2298 0812 01       		.byte	0x1
 2299 0813 26080000 		.4byte	0x826
 2300 0817 12       		.uleb128 0x12
 2301 0818 52060000 		.4byte	.LASF91
 2302 081c 01       		.byte	0x1
 2303 081d 0205     		.2byte	0x502
 2304 081f 8C000000 		.4byte	0x8c
 2305 0823 01       		.byte	0x1
 2306 0824 50       		.byte	0x50
 2307 0825 00       		.byte	0
 2308 0826 19       		.uleb128 0x19
 2309 0827 01       		.byte	0x1
 2310 0828 03040000 		.4byte	.LASF95
 2311 082c 01       		.byte	0x1
 2312 082d 2E05     		.2byte	0x52e
 2313 082f 01       		.byte	0x1
 2314 0830 DD000000 		.4byte	0xdd
 2315 0834 D8020000 		.4byte	.LFB58
 2316 0838 00030000 		.4byte	.LFE58
 2317 083c 02       		.byte	0x2
 2318 083d 7D       		.byte	0x7d
 2319 083e 00       		.sleb128 0
 2320 083f 01       		.byte	0x1
 2321 0840 85080000 		.4byte	0x885
 2322 0844 13       		.uleb128 0x13
 2323 0845 D6030000 		.4byte	.LASF92
 2324 0849 01       		.byte	0x1
 2325 084a 2E05     		.2byte	0x52e
 2326 084c 8C000000 		.4byte	0x8c
 2327 0850 B5050000 		.4byte	.LLST31
 2328 0854 17       		.uleb128 0x17
 2329 0855 746D7000 		.ascii	"tmp\000"
 2330 0859 01       		.byte	0x1
 2331 085a 3005     		.2byte	0x530
 2332 085c A2000000 		.4byte	0xa2
 2333 0860 D6050000 		.4byte	.LLST32
 2334 0864 14       		.uleb128 0x14
 2335 0865 33030000 		.4byte	.LASF93
 2336 0869 01       		.byte	0x1
 2337 086a 3105     		.2byte	0x531
 2338 086c A2000000 		.4byte	0xa2
 2339 0870 1F060000 		.4byte	.LLST33
 2340 0874 14       		.uleb128 0x14
 2341 0875 29030000 		.4byte	.LASF94
 2342 0879 01       		.byte	0x1
ARM GAS  /var/folders/lp/0dm50ddn51vc39svyzv_6fp00000gn/T//ccS91u3A.s 			page 68


 2343 087a 3205     		.2byte	0x532
 2344 087c DD000000 		.4byte	0xdd
 2345 0880 55060000 		.4byte	.LLST34
 2346 0884 00       		.byte	0
 2347 0885 1A       		.uleb128 0x1a
 2348 0886 01       		.byte	0x1
 2349 0887 BE010000 		.4byte	.LASF96
 2350 088b 01       		.byte	0x1
 2351 088c 3001     		.2byte	0x130
 2352 088e 01       		.byte	0x1
 2353 088f 35010000 		.4byte	0x135
 2354 0893 00030000 		.4byte	.LFB31
 2355 0897 30030000 		.4byte	.LFE31
 2356 089b 94060000 		.4byte	.LLST35
 2357 089f 01       		.byte	0x1
 2358 08a0 F8080000 		.4byte	0x8f8
 2359 08a4 1B       		.uleb128 0x1b
 2360 08a5 79030000 		.4byte	.LASF97
 2361 08a9 01       		.byte	0x1
 2362 08aa 3201     		.2byte	0x132
 2363 08ac B4000000 		.4byte	0xb4
 2364 08b0 02       		.byte	0x2
 2365 08b1 91       		.byte	0x91
 2366 08b2 74       		.sleb128 -12
 2367 08b3 14       		.uleb128 0x14
 2368 08b4 73040000 		.4byte	.LASF98
 2369 08b8 01       		.byte	0x1
 2370 08b9 3301     		.2byte	0x133
 2371 08bb 35010000 		.4byte	0x135
 2372 08bf C0060000 		.4byte	.LLST36
 2373 08c3 14       		.uleb128 0x14
 2374 08c4 45010000 		.4byte	.LASF99
 2375 08c8 01       		.byte	0x1
 2376 08c9 3401     		.2byte	0x134
 2377 08cb DD000000 		.4byte	0xdd
 2378 08cf E5060000 		.4byte	.LLST37
 2379 08d3 1C       		.uleb128 0x1c
 2380 08d4 0C030000 		.4byte	.LVL104
 2381 08d8 26080000 		.4byte	0x826
 2382 08dc E7080000 		.4byte	0x8e7
 2383 08e0 1D       		.uleb128 0x1d
 2384 08e1 01       		.byte	0x1
 2385 08e2 50       		.byte	0x50
 2386 08e3 02       		.byte	0x2
 2387 08e4 08       		.byte	0x8
 2388 08e5 31       		.byte	0x31
 2389 08e6 00       		.byte	0
 2390 08e7 1E       		.uleb128 0x1e
 2391 08e8 24030000 		.4byte	.LVL106
 2392 08ec 26080000 		.4byte	0x826
 2393 08f0 1D       		.uleb128 0x1d
 2394 08f1 01       		.byte	0x1
 2395 08f2 50       		.byte	0x50
 2396 08f3 02       		.byte	0x2
 2397 08f4 08       		.byte	0x8
 2398 08f5 31       		.byte	0x31
 2399 08f6 00       		.byte	0
ARM GAS  /var/folders/lp/0dm50ddn51vc39svyzv_6fp00000gn/T//ccS91u3A.s 			page 69


 2400 08f7 00       		.byte	0
 2401 08f8 1F       		.uleb128 0x1f
 2402 08f9 01       		.byte	0x1
 2403 08fa 52040000 		.4byte	.LASF101
 2404 08fe 01       		.byte	0x1
 2405 08ff 5B05     		.2byte	0x55b
 2406 0901 01       		.byte	0x1
 2407 0902 30030000 		.4byte	.LFB59
 2408 0906 40030000 		.4byte	.LFE59
 2409 090a 02       		.byte	0x2
 2410 090b 7D       		.byte	0x7d
 2411 090c 00       		.sleb128 0
 2412 090d 01       		.byte	0x1
 2413 090e 19       		.uleb128 0x19
 2414 090f 01       		.byte	0x1
 2415 0910 5C000000 		.4byte	.LASF102
 2416 0914 01       		.byte	0x1
 2417 0915 7A05     		.2byte	0x57a
 2418 0917 01       		.byte	0x1
 2419 0918 E9000000 		.4byte	0xe9
 2420 091c 40030000 		.4byte	.LFB60
 2421 0920 54030000 		.4byte	.LFE60
 2422 0924 02       		.byte	0x2
 2423 0925 7D       		.byte	0x7d
 2424 0926 00       		.sleb128 0
 2425 0927 01       		.byte	0x1
 2426 0928 4D090000 		.4byte	0x94d
 2427 092c 13       		.uleb128 0x13
 2428 092d 5A060000 		.4byte	.LASF63
 2429 0931 01       		.byte	0x1
 2430 0932 7A05     		.2byte	0x57a
 2431 0934 8C000000 		.4byte	0x8c
 2432 0938 F8060000 		.4byte	.LLST38
 2433 093c 14       		.uleb128 0x14
 2434 093d 29030000 		.4byte	.LASF94
 2435 0941 01       		.byte	0x1
 2436 0942 7C05     		.2byte	0x57c
 2437 0944 E9000000 		.4byte	0xe9
 2438 0948 19070000 		.4byte	.LLST39
 2439 094c 00       		.byte	0
 2440 094d 11       		.uleb128 0x11
 2441 094e 01       		.byte	0x1
 2442 094f 46000000 		.4byte	.LASF103
 2443 0953 01       		.byte	0x1
 2444 0954 A805     		.2byte	0x5a8
 2445 0956 01       		.byte	0x1
 2446 0957 54030000 		.4byte	.LFB61
 2447 095b 60030000 		.4byte	.LFE61
 2448 095f 02       		.byte	0x2
 2449 0960 7D       		.byte	0x7d
 2450 0961 00       		.sleb128 0
 2451 0962 01       		.byte	0x1
 2452 0963 76090000 		.4byte	0x976
 2453 0967 12       		.uleb128 0x12
 2454 0968 5A060000 		.4byte	.LASF63
 2455 096c 01       		.byte	0x1
 2456 096d A805     		.2byte	0x5a8
ARM GAS  /var/folders/lp/0dm50ddn51vc39svyzv_6fp00000gn/T//ccS91u3A.s 			page 70


 2457 096f 8C000000 		.4byte	0x8c
 2458 0973 01       		.byte	0x1
 2459 0974 50       		.byte	0x50
 2460 0975 00       		.byte	0
 2461 0976 20       		.uleb128 0x20
 2462 0977 BE000000 		.4byte	0xbe
 2463 097b 86090000 		.4byte	0x986
 2464 097f 21       		.uleb128 0x21
 2465 0980 AD000000 		.4byte	0xad
 2466 0984 0F       		.byte	0xf
 2467 0985 00       		.byte	0
 2468 0986 22       		.uleb128 0x22
 2469 0987 B3050000 		.4byte	.LASF104
 2470 098b 01       		.byte	0x1
 2471 098c C1       		.byte	0xc1
 2472 098d 9C090000 		.4byte	0x99c
 2473 0991 05       		.byte	0x5
 2474 0992 03       		.byte	0x3
 2475 0993 00000000 		.4byte	APBAHBPrescTable
 2476 0997 05       		.uleb128 0x5
 2477 0998 76090000 		.4byte	0x976
 2478 099c 06       		.uleb128 0x6
 2479 099d 97090000 		.4byte	0x997
 2480 09a1 20       		.uleb128 0x20
 2481 09a2 BE000000 		.4byte	0xbe
 2482 09a6 B1090000 		.4byte	0x9b1
 2483 09aa 21       		.uleb128 0x21
 2484 09ab AD000000 		.4byte	0xad
 2485 09af 03       		.byte	0x3
 2486 09b0 00       		.byte	0
 2487 09b1 22       		.uleb128 0x22
 2488 09b2 8A060000 		.4byte	.LASF105
 2489 09b6 01       		.byte	0x1
 2490 09b7 C2       		.byte	0xc2
 2491 09b8 C7090000 		.4byte	0x9c7
 2492 09bc 05       		.byte	0x5
 2493 09bd 03       		.byte	0x3
 2494 09be 10000000 		.4byte	ADCPrescTable
 2495 09c2 05       		.uleb128 0x5
 2496 09c3 A1090000 		.4byte	0x9a1
 2497 09c7 06       		.uleb128 0x6
 2498 09c8 C2090000 		.4byte	0x9c2
 2499 09cc 23       		.uleb128 0x23
 2500 09cd 45060000 		.4byte	.LASF110
 2501 09d1 06       		.byte	0x6
 2502 09d2 CE06     		.2byte	0x6ce
 2503 09d4 DA090000 		.4byte	0x9da
 2504 09d8 01       		.byte	0x1
 2505 09d9 01       		.byte	0x1
 2506 09da 05       		.uleb128 0x5
 2507 09db 7E000000 		.4byte	0x7e
 2508 09df 00       		.byte	0
 2509              		.section	.debug_abbrev,"",%progbits
 2510              	.Ldebug_abbrev0:
 2511 0000 01       		.uleb128 0x1
 2512 0001 11       		.uleb128 0x11
 2513 0002 01       		.byte	0x1
ARM GAS  /var/folders/lp/0dm50ddn51vc39svyzv_6fp00000gn/T//ccS91u3A.s 			page 71


 2514 0003 25       		.uleb128 0x25
 2515 0004 0E       		.uleb128 0xe
 2516 0005 13       		.uleb128 0x13
 2517 0006 0B       		.uleb128 0xb
 2518 0007 03       		.uleb128 0x3
 2519 0008 0E       		.uleb128 0xe
 2520 0009 1B       		.uleb128 0x1b
 2521 000a 0E       		.uleb128 0xe
 2522 000b 11       		.uleb128 0x11
 2523 000c 01       		.uleb128 0x1
 2524 000d 12       		.uleb128 0x12
 2525 000e 01       		.uleb128 0x1
 2526 000f 10       		.uleb128 0x10
 2527 0010 06       		.uleb128 0x6
 2528 0011 00       		.byte	0
 2529 0012 00       		.byte	0
 2530 0013 02       		.uleb128 0x2
 2531 0014 24       		.uleb128 0x24
 2532 0015 00       		.byte	0
 2533 0016 0B       		.uleb128 0xb
 2534 0017 0B       		.uleb128 0xb
 2535 0018 3E       		.uleb128 0x3e
 2536 0019 0B       		.uleb128 0xb
 2537 001a 03       		.uleb128 0x3
 2538 001b 0E       		.uleb128 0xe
 2539 001c 00       		.byte	0
 2540 001d 00       		.byte	0
 2541 001e 03       		.uleb128 0x3
 2542 001f 16       		.uleb128 0x16
 2543 0020 00       		.byte	0
 2544 0021 03       		.uleb128 0x3
 2545 0022 0E       		.uleb128 0xe
 2546 0023 3A       		.uleb128 0x3a
 2547 0024 0B       		.uleb128 0xb
 2548 0025 3B       		.uleb128 0x3b
 2549 0026 0B       		.uleb128 0xb
 2550 0027 49       		.uleb128 0x49
 2551 0028 13       		.uleb128 0x13
 2552 0029 00       		.byte	0
 2553 002a 00       		.byte	0
 2554 002b 04       		.uleb128 0x4
 2555 002c 24       		.uleb128 0x24
 2556 002d 00       		.byte	0
 2557 002e 0B       		.uleb128 0xb
 2558 002f 0B       		.uleb128 0xb
 2559 0030 3E       		.uleb128 0x3e
 2560 0031 0B       		.uleb128 0xb
 2561 0032 03       		.uleb128 0x3
 2562 0033 08       		.uleb128 0x8
 2563 0034 00       		.byte	0
 2564 0035 00       		.byte	0
 2565 0036 05       		.uleb128 0x5
 2566 0037 35       		.uleb128 0x35
 2567 0038 00       		.byte	0
 2568 0039 49       		.uleb128 0x49
 2569 003a 13       		.uleb128 0x13
 2570 003b 00       		.byte	0
ARM GAS  /var/folders/lp/0dm50ddn51vc39svyzv_6fp00000gn/T//ccS91u3A.s 			page 72


 2571 003c 00       		.byte	0
 2572 003d 06       		.uleb128 0x6
 2573 003e 26       		.uleb128 0x26
 2574 003f 00       		.byte	0
 2575 0040 49       		.uleb128 0x49
 2576 0041 13       		.uleb128 0x13
 2577 0042 00       		.byte	0
 2578 0043 00       		.byte	0
 2579 0044 07       		.uleb128 0x7
 2580 0045 04       		.uleb128 0x4
 2581 0046 01       		.byte	0x1
 2582 0047 0B       		.uleb128 0xb
 2583 0048 0B       		.uleb128 0xb
 2584 0049 49       		.uleb128 0x49
 2585 004a 13       		.uleb128 0x13
 2586 004b 3A       		.uleb128 0x3a
 2587 004c 0B       		.uleb128 0xb
 2588 004d 3B       		.uleb128 0x3b
 2589 004e 05       		.uleb128 0x5
 2590 004f 01       		.uleb128 0x1
 2591 0050 13       		.uleb128 0x13
 2592 0051 00       		.byte	0
 2593 0052 00       		.byte	0
 2594 0053 08       		.uleb128 0x8
 2595 0054 28       		.uleb128 0x28
 2596 0055 00       		.byte	0
 2597 0056 03       		.uleb128 0x3
 2598 0057 0E       		.uleb128 0xe
 2599 0058 1C       		.uleb128 0x1c
 2600 0059 0B       		.uleb128 0xb
 2601 005a 00       		.byte	0
 2602 005b 00       		.byte	0
 2603 005c 09       		.uleb128 0x9
 2604 005d 28       		.uleb128 0x28
 2605 005e 00       		.byte	0
 2606 005f 03       		.uleb128 0x3
 2607 0060 08       		.uleb128 0x8
 2608 0061 1C       		.uleb128 0x1c
 2609 0062 0B       		.uleb128 0xb
 2610 0063 00       		.byte	0
 2611 0064 00       		.byte	0
 2612 0065 0A       		.uleb128 0xa
 2613 0066 16       		.uleb128 0x16
 2614 0067 00       		.byte	0
 2615 0068 03       		.uleb128 0x3
 2616 0069 0E       		.uleb128 0xe
 2617 006a 3A       		.uleb128 0x3a
 2618 006b 0B       		.uleb128 0xb
 2619 006c 3B       		.uleb128 0x3b
 2620 006d 05       		.uleb128 0x5
 2621 006e 49       		.uleb128 0x49
 2622 006f 13       		.uleb128 0x13
 2623 0070 00       		.byte	0
 2624 0071 00       		.byte	0
 2625 0072 0B       		.uleb128 0xb
 2626 0073 13       		.uleb128 0x13
 2627 0074 01       		.byte	0x1
ARM GAS  /var/folders/lp/0dm50ddn51vc39svyzv_6fp00000gn/T//ccS91u3A.s 			page 73


 2628 0075 0B       		.uleb128 0xb
 2629 0076 0B       		.uleb128 0xb
 2630 0077 3A       		.uleb128 0x3a
 2631 0078 0B       		.uleb128 0xb
 2632 0079 3B       		.uleb128 0x3b
 2633 007a 05       		.uleb128 0x5
 2634 007b 01       		.uleb128 0x1
 2635 007c 13       		.uleb128 0x13
 2636 007d 00       		.byte	0
 2637 007e 00       		.byte	0
 2638 007f 0C       		.uleb128 0xc
 2639 0080 0D       		.uleb128 0xd
 2640 0081 00       		.byte	0
 2641 0082 03       		.uleb128 0x3
 2642 0083 08       		.uleb128 0x8
 2643 0084 3A       		.uleb128 0x3a
 2644 0085 0B       		.uleb128 0xb
 2645 0086 3B       		.uleb128 0x3b
 2646 0087 05       		.uleb128 0x5
 2647 0088 49       		.uleb128 0x49
 2648 0089 13       		.uleb128 0x13
 2649 008a 38       		.uleb128 0x38
 2650 008b 0A       		.uleb128 0xa
 2651 008c 00       		.byte	0
 2652 008d 00       		.byte	0
 2653 008e 0D       		.uleb128 0xd
 2654 008f 0D       		.uleb128 0xd
 2655 0090 00       		.byte	0
 2656 0091 03       		.uleb128 0x3
 2657 0092 0E       		.uleb128 0xe
 2658 0093 3A       		.uleb128 0x3a
 2659 0094 0B       		.uleb128 0xb
 2660 0095 3B       		.uleb128 0x3b
 2661 0096 05       		.uleb128 0x5
 2662 0097 49       		.uleb128 0x49
 2663 0098 13       		.uleb128 0x13
 2664 0099 38       		.uleb128 0x38
 2665 009a 0A       		.uleb128 0xa
 2666 009b 00       		.byte	0
 2667 009c 00       		.byte	0
 2668 009d 0E       		.uleb128 0xe
 2669 009e 13       		.uleb128 0x13
 2670 009f 01       		.byte	0x1
 2671 00a0 0B       		.uleb128 0xb
 2672 00a1 0B       		.uleb128 0xb
 2673 00a2 3A       		.uleb128 0x3a
 2674 00a3 0B       		.uleb128 0xb
 2675 00a4 3B       		.uleb128 0x3b
 2676 00a5 0B       		.uleb128 0xb
 2677 00a6 01       		.uleb128 0x1
 2678 00a7 13       		.uleb128 0x13
 2679 00a8 00       		.byte	0
 2680 00a9 00       		.byte	0
 2681 00aa 0F       		.uleb128 0xf
 2682 00ab 0D       		.uleb128 0xd
 2683 00ac 00       		.byte	0
 2684 00ad 03       		.uleb128 0x3
ARM GAS  /var/folders/lp/0dm50ddn51vc39svyzv_6fp00000gn/T//ccS91u3A.s 			page 74


 2685 00ae 0E       		.uleb128 0xe
 2686 00af 3A       		.uleb128 0x3a
 2687 00b0 0B       		.uleb128 0xb
 2688 00b1 3B       		.uleb128 0x3b
 2689 00b2 0B       		.uleb128 0xb
 2690 00b3 49       		.uleb128 0x49
 2691 00b4 13       		.uleb128 0x13
 2692 00b5 38       		.uleb128 0x38
 2693 00b6 0A       		.uleb128 0xa
 2694 00b7 00       		.byte	0
 2695 00b8 00       		.byte	0
 2696 00b9 10       		.uleb128 0x10
 2697 00ba 2E       		.uleb128 0x2e
 2698 00bb 00       		.byte	0
 2699 00bc 3F       		.uleb128 0x3f
 2700 00bd 0C       		.uleb128 0xc
 2701 00be 03       		.uleb128 0x3
 2702 00bf 0E       		.uleb128 0xe
 2703 00c0 3A       		.uleb128 0x3a
 2704 00c1 0B       		.uleb128 0xb
 2705 00c2 3B       		.uleb128 0x3b
 2706 00c3 0B       		.uleb128 0xb
 2707 00c4 27       		.uleb128 0x27
 2708 00c5 0C       		.uleb128 0xc
 2709 00c6 11       		.uleb128 0x11
 2710 00c7 01       		.uleb128 0x1
 2711 00c8 12       		.uleb128 0x12
 2712 00c9 01       		.uleb128 0x1
 2713 00ca 40       		.uleb128 0x40
 2714 00cb 0A       		.uleb128 0xa
 2715 00cc 9742     		.uleb128 0x2117
 2716 00ce 0C       		.uleb128 0xc
 2717 00cf 00       		.byte	0
 2718 00d0 00       		.byte	0
 2719 00d1 11       		.uleb128 0x11
 2720 00d2 2E       		.uleb128 0x2e
 2721 00d3 01       		.byte	0x1
 2722 00d4 3F       		.uleb128 0x3f
 2723 00d5 0C       		.uleb128 0xc
 2724 00d6 03       		.uleb128 0x3
 2725 00d7 0E       		.uleb128 0xe
 2726 00d8 3A       		.uleb128 0x3a
 2727 00d9 0B       		.uleb128 0xb
 2728 00da 3B       		.uleb128 0x3b
 2729 00db 05       		.uleb128 0x5
 2730 00dc 27       		.uleb128 0x27
 2731 00dd 0C       		.uleb128 0xc
 2732 00de 11       		.uleb128 0x11
 2733 00df 01       		.uleb128 0x1
 2734 00e0 12       		.uleb128 0x12
 2735 00e1 01       		.uleb128 0x1
 2736 00e2 40       		.uleb128 0x40
 2737 00e3 0A       		.uleb128 0xa
 2738 00e4 9742     		.uleb128 0x2117
 2739 00e6 0C       		.uleb128 0xc
 2740 00e7 01       		.uleb128 0x1
 2741 00e8 13       		.uleb128 0x13
ARM GAS  /var/folders/lp/0dm50ddn51vc39svyzv_6fp00000gn/T//ccS91u3A.s 			page 75


 2742 00e9 00       		.byte	0
 2743 00ea 00       		.byte	0
 2744 00eb 12       		.uleb128 0x12
 2745 00ec 05       		.uleb128 0x5
 2746 00ed 00       		.byte	0
 2747 00ee 03       		.uleb128 0x3
 2748 00ef 0E       		.uleb128 0xe
 2749 00f0 3A       		.uleb128 0x3a
 2750 00f1 0B       		.uleb128 0xb
 2751 00f2 3B       		.uleb128 0x3b
 2752 00f3 05       		.uleb128 0x5
 2753 00f4 49       		.uleb128 0x49
 2754 00f5 13       		.uleb128 0x13
 2755 00f6 02       		.uleb128 0x2
 2756 00f7 0A       		.uleb128 0xa
 2757 00f8 00       		.byte	0
 2758 00f9 00       		.byte	0
 2759 00fa 13       		.uleb128 0x13
 2760 00fb 05       		.uleb128 0x5
 2761 00fc 00       		.byte	0
 2762 00fd 03       		.uleb128 0x3
 2763 00fe 0E       		.uleb128 0xe
 2764 00ff 3A       		.uleb128 0x3a
 2765 0100 0B       		.uleb128 0xb
 2766 0101 3B       		.uleb128 0x3b
 2767 0102 05       		.uleb128 0x5
 2768 0103 49       		.uleb128 0x49
 2769 0104 13       		.uleb128 0x13
 2770 0105 02       		.uleb128 0x2
 2771 0106 06       		.uleb128 0x6
 2772 0107 00       		.byte	0
 2773 0108 00       		.byte	0
 2774 0109 14       		.uleb128 0x14
 2775 010a 34       		.uleb128 0x34
 2776 010b 00       		.byte	0
 2777 010c 03       		.uleb128 0x3
 2778 010d 0E       		.uleb128 0xe
 2779 010e 3A       		.uleb128 0x3a
 2780 010f 0B       		.uleb128 0xb
 2781 0110 3B       		.uleb128 0x3b
 2782 0111 05       		.uleb128 0x5
 2783 0112 49       		.uleb128 0x49
 2784 0113 13       		.uleb128 0x13
 2785 0114 02       		.uleb128 0x2
 2786 0115 06       		.uleb128 0x6
 2787 0116 00       		.byte	0
 2788 0117 00       		.byte	0
 2789 0118 15       		.uleb128 0x15
 2790 0119 2E       		.uleb128 0x2e
 2791 011a 00       		.byte	0
 2792 011b 3F       		.uleb128 0x3f
 2793 011c 0C       		.uleb128 0xc
 2794 011d 03       		.uleb128 0x3
 2795 011e 0E       		.uleb128 0xe
 2796 011f 3A       		.uleb128 0x3a
 2797 0120 0B       		.uleb128 0xb
 2798 0121 3B       		.uleb128 0x3b
ARM GAS  /var/folders/lp/0dm50ddn51vc39svyzv_6fp00000gn/T//ccS91u3A.s 			page 76


 2799 0122 05       		.uleb128 0x5
 2800 0123 27       		.uleb128 0x27
 2801 0124 0C       		.uleb128 0xc
 2802 0125 49       		.uleb128 0x49
 2803 0126 13       		.uleb128 0x13
 2804 0127 11       		.uleb128 0x11
 2805 0128 01       		.uleb128 0x1
 2806 0129 12       		.uleb128 0x12
 2807 012a 01       		.uleb128 0x1
 2808 012b 40       		.uleb128 0x40
 2809 012c 0A       		.uleb128 0xa
 2810 012d 9742     		.uleb128 0x2117
 2811 012f 0C       		.uleb128 0xc
 2812 0130 00       		.byte	0
 2813 0131 00       		.byte	0
 2814 0132 16       		.uleb128 0x16
 2815 0133 2E       		.uleb128 0x2e
 2816 0134 01       		.byte	0x1
 2817 0135 3F       		.uleb128 0x3f
 2818 0136 0C       		.uleb128 0xc
 2819 0137 03       		.uleb128 0x3
 2820 0138 0E       		.uleb128 0xe
 2821 0139 3A       		.uleb128 0x3a
 2822 013a 0B       		.uleb128 0xb
 2823 013b 3B       		.uleb128 0x3b
 2824 013c 05       		.uleb128 0x5
 2825 013d 27       		.uleb128 0x27
 2826 013e 0C       		.uleb128 0xc
 2827 013f 11       		.uleb128 0x11
 2828 0140 01       		.uleb128 0x1
 2829 0141 12       		.uleb128 0x12
 2830 0142 01       		.uleb128 0x1
 2831 0143 40       		.uleb128 0x40
 2832 0144 06       		.uleb128 0x6
 2833 0145 9742     		.uleb128 0x2117
 2834 0147 0C       		.uleb128 0xc
 2835 0148 01       		.uleb128 0x1
 2836 0149 13       		.uleb128 0x13
 2837 014a 00       		.byte	0
 2838 014b 00       		.byte	0
 2839 014c 17       		.uleb128 0x17
 2840 014d 34       		.uleb128 0x34
 2841 014e 00       		.byte	0
 2842 014f 03       		.uleb128 0x3
 2843 0150 08       		.uleb128 0x8
 2844 0151 3A       		.uleb128 0x3a
 2845 0152 0B       		.uleb128 0xb
 2846 0153 3B       		.uleb128 0x3b
 2847 0154 05       		.uleb128 0x5
 2848 0155 49       		.uleb128 0x49
 2849 0156 13       		.uleb128 0x13
 2850 0157 02       		.uleb128 0x2
 2851 0158 06       		.uleb128 0x6
 2852 0159 00       		.byte	0
 2853 015a 00       		.byte	0
 2854 015b 18       		.uleb128 0x18
 2855 015c 0F       		.uleb128 0xf
ARM GAS  /var/folders/lp/0dm50ddn51vc39svyzv_6fp00000gn/T//ccS91u3A.s 			page 77


 2856 015d 00       		.byte	0
 2857 015e 0B       		.uleb128 0xb
 2858 015f 0B       		.uleb128 0xb
 2859 0160 49       		.uleb128 0x49
 2860 0161 13       		.uleb128 0x13
 2861 0162 00       		.byte	0
 2862 0163 00       		.byte	0
 2863 0164 19       		.uleb128 0x19
 2864 0165 2E       		.uleb128 0x2e
 2865 0166 01       		.byte	0x1
 2866 0167 3F       		.uleb128 0x3f
 2867 0168 0C       		.uleb128 0xc
 2868 0169 03       		.uleb128 0x3
 2869 016a 0E       		.uleb128 0xe
 2870 016b 3A       		.uleb128 0x3a
 2871 016c 0B       		.uleb128 0xb
 2872 016d 3B       		.uleb128 0x3b
 2873 016e 05       		.uleb128 0x5
 2874 016f 27       		.uleb128 0x27
 2875 0170 0C       		.uleb128 0xc
 2876 0171 49       		.uleb128 0x49
 2877 0172 13       		.uleb128 0x13
 2878 0173 11       		.uleb128 0x11
 2879 0174 01       		.uleb128 0x1
 2880 0175 12       		.uleb128 0x12
 2881 0176 01       		.uleb128 0x1
 2882 0177 40       		.uleb128 0x40
 2883 0178 0A       		.uleb128 0xa
 2884 0179 9742     		.uleb128 0x2117
 2885 017b 0C       		.uleb128 0xc
 2886 017c 01       		.uleb128 0x1
 2887 017d 13       		.uleb128 0x13
 2888 017e 00       		.byte	0
 2889 017f 00       		.byte	0
 2890 0180 1A       		.uleb128 0x1a
 2891 0181 2E       		.uleb128 0x2e
 2892 0182 01       		.byte	0x1
 2893 0183 3F       		.uleb128 0x3f
 2894 0184 0C       		.uleb128 0xc
 2895 0185 03       		.uleb128 0x3
 2896 0186 0E       		.uleb128 0xe
 2897 0187 3A       		.uleb128 0x3a
 2898 0188 0B       		.uleb128 0xb
 2899 0189 3B       		.uleb128 0x3b
 2900 018a 05       		.uleb128 0x5
 2901 018b 27       		.uleb128 0x27
 2902 018c 0C       		.uleb128 0xc
 2903 018d 49       		.uleb128 0x49
 2904 018e 13       		.uleb128 0x13
 2905 018f 11       		.uleb128 0x11
 2906 0190 01       		.uleb128 0x1
 2907 0191 12       		.uleb128 0x12
 2908 0192 01       		.uleb128 0x1
 2909 0193 40       		.uleb128 0x40
 2910 0194 06       		.uleb128 0x6
 2911 0195 9742     		.uleb128 0x2117
 2912 0197 0C       		.uleb128 0xc
ARM GAS  /var/folders/lp/0dm50ddn51vc39svyzv_6fp00000gn/T//ccS91u3A.s 			page 78


 2913 0198 01       		.uleb128 0x1
 2914 0199 13       		.uleb128 0x13
 2915 019a 00       		.byte	0
 2916 019b 00       		.byte	0
 2917 019c 1B       		.uleb128 0x1b
 2918 019d 34       		.uleb128 0x34
 2919 019e 00       		.byte	0
 2920 019f 03       		.uleb128 0x3
 2921 01a0 0E       		.uleb128 0xe
 2922 01a1 3A       		.uleb128 0x3a
 2923 01a2 0B       		.uleb128 0xb
 2924 01a3 3B       		.uleb128 0x3b
 2925 01a4 05       		.uleb128 0x5
 2926 01a5 49       		.uleb128 0x49
 2927 01a6 13       		.uleb128 0x13
 2928 01a7 02       		.uleb128 0x2
 2929 01a8 0A       		.uleb128 0xa
 2930 01a9 00       		.byte	0
 2931 01aa 00       		.byte	0
 2932 01ab 1C       		.uleb128 0x1c
 2933 01ac 898201   		.uleb128 0x4109
 2934 01af 01       		.byte	0x1
 2935 01b0 11       		.uleb128 0x11
 2936 01b1 01       		.uleb128 0x1
 2937 01b2 31       		.uleb128 0x31
 2938 01b3 13       		.uleb128 0x13
 2939 01b4 01       		.uleb128 0x1
 2940 01b5 13       		.uleb128 0x13
 2941 01b6 00       		.byte	0
 2942 01b7 00       		.byte	0
 2943 01b8 1D       		.uleb128 0x1d
 2944 01b9 8A8201   		.uleb128 0x410a
 2945 01bc 00       		.byte	0
 2946 01bd 02       		.uleb128 0x2
 2947 01be 0A       		.uleb128 0xa
 2948 01bf 9142     		.uleb128 0x2111
 2949 01c1 0A       		.uleb128 0xa
 2950 01c2 00       		.byte	0
 2951 01c3 00       		.byte	0
 2952 01c4 1E       		.uleb128 0x1e
 2953 01c5 898201   		.uleb128 0x4109
 2954 01c8 01       		.byte	0x1
 2955 01c9 11       		.uleb128 0x11
 2956 01ca 01       		.uleb128 0x1
 2957 01cb 31       		.uleb128 0x31
 2958 01cc 13       		.uleb128 0x13
 2959 01cd 00       		.byte	0
 2960 01ce 00       		.byte	0
 2961 01cf 1F       		.uleb128 0x1f
 2962 01d0 2E       		.uleb128 0x2e
 2963 01d1 00       		.byte	0
 2964 01d2 3F       		.uleb128 0x3f
 2965 01d3 0C       		.uleb128 0xc
 2966 01d4 03       		.uleb128 0x3
 2967 01d5 0E       		.uleb128 0xe
 2968 01d6 3A       		.uleb128 0x3a
 2969 01d7 0B       		.uleb128 0xb
ARM GAS  /var/folders/lp/0dm50ddn51vc39svyzv_6fp00000gn/T//ccS91u3A.s 			page 79


 2970 01d8 3B       		.uleb128 0x3b
 2971 01d9 05       		.uleb128 0x5
 2972 01da 27       		.uleb128 0x27
 2973 01db 0C       		.uleb128 0xc
 2974 01dc 11       		.uleb128 0x11
 2975 01dd 01       		.uleb128 0x1
 2976 01de 12       		.uleb128 0x12
 2977 01df 01       		.uleb128 0x1
 2978 01e0 40       		.uleb128 0x40
 2979 01e1 0A       		.uleb128 0xa
 2980 01e2 9742     		.uleb128 0x2117
 2981 01e4 0C       		.uleb128 0xc
 2982 01e5 00       		.byte	0
 2983 01e6 00       		.byte	0
 2984 01e7 20       		.uleb128 0x20
 2985 01e8 01       		.uleb128 0x1
 2986 01e9 01       		.byte	0x1
 2987 01ea 49       		.uleb128 0x49
 2988 01eb 13       		.uleb128 0x13
 2989 01ec 01       		.uleb128 0x1
 2990 01ed 13       		.uleb128 0x13
 2991 01ee 00       		.byte	0
 2992 01ef 00       		.byte	0
 2993 01f0 21       		.uleb128 0x21
 2994 01f1 21       		.uleb128 0x21
 2995 01f2 00       		.byte	0
 2996 01f3 49       		.uleb128 0x49
 2997 01f4 13       		.uleb128 0x13
 2998 01f5 2F       		.uleb128 0x2f
 2999 01f6 0B       		.uleb128 0xb
 3000 01f7 00       		.byte	0
 3001 01f8 00       		.byte	0
 3002 01f9 22       		.uleb128 0x22
 3003 01fa 34       		.uleb128 0x34
 3004 01fb 00       		.byte	0
 3005 01fc 03       		.uleb128 0x3
 3006 01fd 0E       		.uleb128 0xe
 3007 01fe 3A       		.uleb128 0x3a
 3008 01ff 0B       		.uleb128 0xb
 3009 0200 3B       		.uleb128 0x3b
 3010 0201 0B       		.uleb128 0xb
 3011 0202 49       		.uleb128 0x49
 3012 0203 13       		.uleb128 0x13
 3013 0204 02       		.uleb128 0x2
 3014 0205 0A       		.uleb128 0xa
 3015 0206 00       		.byte	0
 3016 0207 00       		.byte	0
 3017 0208 23       		.uleb128 0x23
 3018 0209 34       		.uleb128 0x34
 3019 020a 00       		.byte	0
 3020 020b 03       		.uleb128 0x3
 3021 020c 0E       		.uleb128 0xe
 3022 020d 3A       		.uleb128 0x3a
 3023 020e 0B       		.uleb128 0xb
 3024 020f 3B       		.uleb128 0x3b
 3025 0210 05       		.uleb128 0x5
 3026 0211 49       		.uleb128 0x49
ARM GAS  /var/folders/lp/0dm50ddn51vc39svyzv_6fp00000gn/T//ccS91u3A.s 			page 80


 3027 0212 13       		.uleb128 0x13
 3028 0213 3F       		.uleb128 0x3f
 3029 0214 0C       		.uleb128 0xc
 3030 0215 3C       		.uleb128 0x3c
 3031 0216 0C       		.uleb128 0xc
 3032 0217 00       		.byte	0
 3033 0218 00       		.byte	0
 3034 0219 00       		.byte	0
 3035              		.section	.debug_loc,"",%progbits
 3036              	.Ldebug_loc0:
 3037              	.LLST0:
 3038 0000 7C000000 		.4byte	.LVL1-.Ltext0
 3039 0004 88000000 		.4byte	.LVL4-.Ltext0
 3040 0008 0100     		.2byte	0x1
 3041 000a 50       		.byte	0x50
 3042 000b 88000000 		.4byte	.LVL4-.Ltext0
 3043 000f 90000000 		.4byte	.LFE32-.Ltext0
 3044 0013 0400     		.2byte	0x4
 3045 0015 F3       		.byte	0xf3
 3046 0016 01       		.uleb128 0x1
 3047 0017 50       		.byte	0x50
 3048 0018 9F       		.byte	0x9f
 3049 0019 00000000 		.4byte	0
 3050 001d 00000000 		.4byte	0
 3051              	.LLST1:
 3052 0021 7C000000 		.4byte	.LVL1-.Ltext0
 3053 0025 80000000 		.4byte	.LVL2-.Ltext0
 3054 0029 0200     		.2byte	0x2
 3055 002b 30       		.byte	0x30
 3056 002c 9F       		.byte	0x9f
 3057 002d 80000000 		.4byte	.LVL2-.Ltext0
 3058 0031 88000000 		.4byte	.LVL4-.Ltext0
 3059 0035 0100     		.2byte	0x1
 3060 0037 53       		.byte	0x53
 3061 0038 88000000 		.4byte	.LVL4-.Ltext0
 3062 003c 90000000 		.4byte	.LFE32-.Ltext0
 3063 0040 0100     		.2byte	0x1
 3064 0042 50       		.byte	0x50
 3065 0043 00000000 		.4byte	0
 3066 0047 00000000 		.4byte	0
 3067              	.LLST2:
 3068 004b 9C000000 		.4byte	.LVL6-.Ltext0
 3069 004f A8000000 		.4byte	.LVL10-.Ltext0
 3070 0053 0100     		.2byte	0x1
 3071 0055 50       		.byte	0x50
 3072 0056 A8000000 		.4byte	.LVL10-.Ltext0
 3073 005a B0000000 		.4byte	.LFE34-.Ltext0
 3074 005e 0400     		.2byte	0x4
 3075 0060 F3       		.byte	0xf3
 3076 0061 01       		.uleb128 0x1
 3077 0062 50       		.byte	0x50
 3078 0063 9F       		.byte	0x9f
 3079 0064 00000000 		.4byte	0
 3080 0068 00000000 		.4byte	0
 3081              	.LLST3:
 3082 006c 9C000000 		.4byte	.LVL6-.Ltext0
 3083 0070 A6000000 		.4byte	.LVL9-.Ltext0
ARM GAS  /var/folders/lp/0dm50ddn51vc39svyzv_6fp00000gn/T//ccS91u3A.s 			page 81


 3084 0074 0100     		.2byte	0x1
 3085 0076 51       		.byte	0x51
 3086 0077 A6000000 		.4byte	.LVL9-.Ltext0
 3087 007b B0000000 		.4byte	.LFE34-.Ltext0
 3088 007f 0400     		.2byte	0x4
 3089 0081 F3       		.byte	0xf3
 3090 0082 01       		.uleb128 0x1
 3091 0083 51       		.byte	0x51
 3092 0084 9F       		.byte	0x9f
 3093 0085 00000000 		.4byte	0
 3094 0089 00000000 		.4byte	0
 3095              	.LLST4:
 3096 008d 9C000000 		.4byte	.LVL6-.Ltext0
 3097 0091 A0000000 		.4byte	.LVL7-.Ltext0
 3098 0095 0200     		.2byte	0x2
 3099 0097 30       		.byte	0x30
 3100 0098 9F       		.byte	0x9f
 3101 0099 A0000000 		.4byte	.LVL7-.Ltext0
 3102 009d A4000000 		.4byte	.LVL8-.Ltext0
 3103 00a1 0900     		.2byte	0x9
 3104 00a3 73       		.byte	0x73
 3105 00a4 00       		.sleb128 0
 3106 00a5 11       		.byte	0x11
 3107 00a6 FFFF8B7E 		.sleb128 -3997697
 3108 00aa 1A       		.byte	0x1a
 3109 00ab 9F       		.byte	0x9f
 3110 00ac A4000000 		.4byte	.LVL8-.Ltext0
 3111 00b0 A8000000 		.4byte	.LVL10-.Ltext0
 3112 00b4 0100     		.2byte	0x1
 3113 00b6 53       		.byte	0x53
 3114 00b7 A8000000 		.4byte	.LVL10-.Ltext0
 3115 00bb B0000000 		.4byte	.LFE34-.Ltext0
 3116 00bf 0100     		.2byte	0x1
 3117 00c1 50       		.byte	0x50
 3118 00c2 00000000 		.4byte	0
 3119 00c6 00000000 		.4byte	0
 3120              	.LLST5:
 3121 00ca BC000000 		.4byte	.LVL12-.Ltext0
 3122 00ce CC000000 		.4byte	.LVL16-.Ltext0
 3123 00d2 0100     		.2byte	0x1
 3124 00d4 50       		.byte	0x50
 3125 00d5 CC000000 		.4byte	.LVL16-.Ltext0
 3126 00d9 D4000000 		.4byte	.LFE36-.Ltext0
 3127 00dd 0400     		.2byte	0x4
 3128 00df F3       		.byte	0xf3
 3129 00e0 01       		.uleb128 0x1
 3130 00e1 50       		.byte	0x50
 3131 00e2 9F       		.byte	0x9f
 3132 00e3 00000000 		.4byte	0
 3133 00e7 00000000 		.4byte	0
 3134              	.LLST6:
 3135 00eb BC000000 		.4byte	.LVL12-.Ltext0
 3136 00ef CA000000 		.4byte	.LVL15-.Ltext0
 3137 00f3 0100     		.2byte	0x1
 3138 00f5 51       		.byte	0x51
 3139 00f6 CA000000 		.4byte	.LVL15-.Ltext0
 3140 00fa D4000000 		.4byte	.LFE36-.Ltext0
ARM GAS  /var/folders/lp/0dm50ddn51vc39svyzv_6fp00000gn/T//ccS91u3A.s 			page 82


 3141 00fe 0400     		.2byte	0x4
 3142 0100 F3       		.byte	0xf3
 3143 0101 01       		.uleb128 0x1
 3144 0102 51       		.byte	0x51
 3145 0103 9F       		.byte	0x9f
 3146 0104 00000000 		.4byte	0
 3147 0108 00000000 		.4byte	0
 3148              	.LLST7:
 3149 010c BC000000 		.4byte	.LVL12-.Ltext0
 3150 0110 C0000000 		.4byte	.LVL13-.Ltext0
 3151 0114 0200     		.2byte	0x2
 3152 0116 30       		.byte	0x30
 3153 0117 9F       		.byte	0x9f
 3154 0118 C0000000 		.4byte	.LVL13-.Ltext0
 3155 011c C4000000 		.4byte	.LVL14-.Ltext0
 3156 0120 0800     		.2byte	0x8
 3157 0122 73       		.byte	0x73
 3158 0123 00       		.sleb128 0
 3159 0124 11       		.byte	0x11
 3160 0125 F0FF7B   		.sleb128 -65552
 3161 0128 1A       		.byte	0x1a
 3162 0129 9F       		.byte	0x9f
 3163 012a CC000000 		.4byte	.LVL16-.Ltext0
 3164 012e D4000000 		.4byte	.LFE36-.Ltext0
 3165 0132 0100     		.2byte	0x1
 3166 0134 50       		.byte	0x50
 3167 0135 00000000 		.4byte	0
 3168 0139 00000000 		.4byte	0
 3169              	.LLST8:
 3170 013d D4000000 		.4byte	.LVL17-.Ltext0
 3171 0141 DE000000 		.4byte	.LVL20-.Ltext0
 3172 0145 0100     		.2byte	0x1
 3173 0147 50       		.byte	0x50
 3174 0148 DE000000 		.4byte	.LVL20-.Ltext0
 3175 014c E8000000 		.4byte	.LFE37-.Ltext0
 3176 0150 0400     		.2byte	0x4
 3177 0152 F3       		.byte	0xf3
 3178 0153 01       		.uleb128 0x1
 3179 0154 50       		.byte	0x50
 3180 0155 9F       		.byte	0x9f
 3181 0156 00000000 		.4byte	0
 3182 015a 00000000 		.4byte	0
 3183              	.LLST9:
 3184 015e D4000000 		.4byte	.LVL17-.Ltext0
 3185 0162 D8000000 		.4byte	.LVL18-.Ltext0
 3186 0166 0200     		.2byte	0x2
 3187 0168 30       		.byte	0x30
 3188 0169 9F       		.byte	0x9f
 3189 016a D8000000 		.4byte	.LVL18-.Ltext0
 3190 016e DE000000 		.4byte	.LVL20-.Ltext0
 3191 0172 0100     		.2byte	0x1
 3192 0174 53       		.byte	0x53
 3193 0175 DE000000 		.4byte	.LVL20-.Ltext0
 3194 0179 E8000000 		.4byte	.LFE37-.Ltext0
 3195 017d 0100     		.2byte	0x1
 3196 017f 50       		.byte	0x50
 3197 0180 00000000 		.4byte	0
ARM GAS  /var/folders/lp/0dm50ddn51vc39svyzv_6fp00000gn/T//ccS91u3A.s 			page 83


 3198 0184 00000000 		.4byte	0
 3199              	.LLST10:
 3200 0188 F8000000 		.4byte	.LVL21-.Ltext0
 3201 018c 02010000 		.4byte	.LVL24-.Ltext0
 3202 0190 0100     		.2byte	0x1
 3203 0192 50       		.byte	0x50
 3204 0193 02010000 		.4byte	.LVL24-.Ltext0
 3205 0197 0C010000 		.4byte	.LFE39-.Ltext0
 3206 019b 0400     		.2byte	0x4
 3207 019d F3       		.byte	0xf3
 3208 019e 01       		.uleb128 0x1
 3209 019f 50       		.byte	0x50
 3210 01a0 9F       		.byte	0x9f
 3211 01a1 00000000 		.4byte	0
 3212 01a5 00000000 		.4byte	0
 3213              	.LLST11:
 3214 01a9 F8000000 		.4byte	.LVL21-.Ltext0
 3215 01ad FC000000 		.4byte	.LVL22-.Ltext0
 3216 01b1 0200     		.2byte	0x2
 3217 01b3 30       		.byte	0x30
 3218 01b4 9F       		.byte	0x9f
 3219 01b5 FC000000 		.4byte	.LVL22-.Ltext0
 3220 01b9 02010000 		.4byte	.LVL24-.Ltext0
 3221 01bd 0100     		.2byte	0x1
 3222 01bf 53       		.byte	0x53
 3223 01c0 02010000 		.4byte	.LVL24-.Ltext0
 3224 01c4 0C010000 		.4byte	.LFE39-.Ltext0
 3225 01c8 0100     		.2byte	0x1
 3226 01ca 50       		.byte	0x50
 3227 01cb 00000000 		.4byte	0
 3228 01cf 00000000 		.4byte	0
 3229              	.LLST12:
 3230 01d3 0C010000 		.4byte	.LVL25-.Ltext0
 3231 01d7 16010000 		.4byte	.LVL28-.Ltext0
 3232 01db 0100     		.2byte	0x1
 3233 01dd 50       		.byte	0x50
 3234 01de 16010000 		.4byte	.LVL28-.Ltext0
 3235 01e2 20010000 		.4byte	.LFE40-.Ltext0
 3236 01e6 0400     		.2byte	0x4
 3237 01e8 F3       		.byte	0xf3
 3238 01e9 01       		.uleb128 0x1
 3239 01ea 50       		.byte	0x50
 3240 01eb 9F       		.byte	0x9f
 3241 01ec 00000000 		.4byte	0
 3242 01f0 00000000 		.4byte	0
 3243              	.LLST13:
 3244 01f4 0C010000 		.4byte	.LVL25-.Ltext0
 3245 01f8 10010000 		.4byte	.LVL26-.Ltext0
 3246 01fc 0200     		.2byte	0x2
 3247 01fe 30       		.byte	0x30
 3248 01ff 9F       		.byte	0x9f
 3249 0200 10010000 		.4byte	.LVL26-.Ltext0
 3250 0204 16010000 		.4byte	.LVL28-.Ltext0
 3251 0208 0100     		.2byte	0x1
 3252 020a 53       		.byte	0x53
 3253 020b 16010000 		.4byte	.LVL28-.Ltext0
 3254 020f 20010000 		.4byte	.LFE40-.Ltext0
ARM GAS  /var/folders/lp/0dm50ddn51vc39svyzv_6fp00000gn/T//ccS91u3A.s 			page 84


 3255 0213 0100     		.2byte	0x1
 3256 0215 50       		.byte	0x50
 3257 0216 00000000 		.4byte	0
 3258 021a 00000000 		.4byte	0
 3259              	.LLST14:
 3260 021e 20010000 		.4byte	.LVL29-.Ltext0
 3261 0222 2C010000 		.4byte	.LVL32-.Ltext0
 3262 0226 0100     		.2byte	0x1
 3263 0228 50       		.byte	0x50
 3264 0229 2C010000 		.4byte	.LVL32-.Ltext0
 3265 022d 34010000 		.4byte	.LFE41-.Ltext0
 3266 0231 0400     		.2byte	0x4
 3267 0233 F3       		.byte	0xf3
 3268 0234 01       		.uleb128 0x1
 3269 0235 50       		.byte	0x50
 3270 0236 9F       		.byte	0x9f
 3271 0237 00000000 		.4byte	0
 3272 023b 00000000 		.4byte	0
 3273              	.LLST15:
 3274 023f 20010000 		.4byte	.LVL29-.Ltext0
 3275 0243 24010000 		.4byte	.LVL30-.Ltext0
 3276 0247 0200     		.2byte	0x2
 3277 0249 30       		.byte	0x30
 3278 024a 9F       		.byte	0x9f
 3279 024b 24010000 		.4byte	.LVL30-.Ltext0
 3280 024f 2C010000 		.4byte	.LVL32-.Ltext0
 3281 0253 0100     		.2byte	0x1
 3282 0255 53       		.byte	0x53
 3283 0256 2C010000 		.4byte	.LVL32-.Ltext0
 3284 025a 34010000 		.4byte	.LFE41-.Ltext0
 3285 025e 0100     		.2byte	0x1
 3286 0260 50       		.byte	0x50
 3287 0261 00000000 		.4byte	0
 3288 0265 00000000 		.4byte	0
 3289              	.LLST16:
 3290 0269 34010000 		.4byte	.LVL33-.Ltext0
 3291 026d 3C010000 		.4byte	.LVL34-.Ltext0
 3292 0271 0100     		.2byte	0x1
 3293 0273 50       		.byte	0x50
 3294 0274 3C010000 		.4byte	.LVL34-.Ltext0
 3295 0278 3E010000 		.4byte	.LVL35-.Ltext0
 3296 027c 0400     		.2byte	0x4
 3297 027e F3       		.byte	0xf3
 3298 027f 01       		.uleb128 0x1
 3299 0280 50       		.byte	0x50
 3300 0281 9F       		.byte	0x9f
 3301 0282 3E010000 		.4byte	.LVL35-.Ltext0
 3302 0286 42010000 		.4byte	.LVL36-.Ltext0
 3303 028a 0100     		.2byte	0x1
 3304 028c 50       		.byte	0x50
 3305 028d 42010000 		.4byte	.LVL36-.Ltext0
 3306 0291 4C010000 		.4byte	.LFE42-.Ltext0
 3307 0295 0400     		.2byte	0x4
 3308 0297 F3       		.byte	0xf3
 3309 0298 01       		.uleb128 0x1
 3310 0299 50       		.byte	0x50
 3311 029a 9F       		.byte	0x9f
ARM GAS  /var/folders/lp/0dm50ddn51vc39svyzv_6fp00000gn/T//ccS91u3A.s 			page 85


 3312 029b 00000000 		.4byte	0
 3313 029f 00000000 		.4byte	0
 3314              	.LLST17:
 3315 02a3 58010000 		.4byte	.LVL38-.Ltext0
 3316 02a7 62010000 		.4byte	.LVL41-.Ltext0
 3317 02ab 0100     		.2byte	0x1
 3318 02ad 50       		.byte	0x50
 3319 02ae 62010000 		.4byte	.LVL41-.Ltext0
 3320 02b2 6C010000 		.4byte	.LFE44-.Ltext0
 3321 02b6 0400     		.2byte	0x4
 3322 02b8 F3       		.byte	0xf3
 3323 02b9 01       		.uleb128 0x1
 3324 02ba 50       		.byte	0x50
 3325 02bb 9F       		.byte	0x9f
 3326 02bc 00000000 		.4byte	0
 3327 02c0 00000000 		.4byte	0
 3328              	.LLST18:
 3329 02c4 58010000 		.4byte	.LVL38-.Ltext0
 3330 02c8 5C010000 		.4byte	.LVL39-.Ltext0
 3331 02cc 0200     		.2byte	0x2
 3332 02ce 30       		.byte	0x30
 3333 02cf 9F       		.byte	0x9f
 3334 02d0 5C010000 		.4byte	.LVL39-.Ltext0
 3335 02d4 62010000 		.4byte	.LVL41-.Ltext0
 3336 02d8 0100     		.2byte	0x1
 3337 02da 53       		.byte	0x53
 3338 02db 62010000 		.4byte	.LVL41-.Ltext0
 3339 02df 6C010000 		.4byte	.LFE44-.Ltext0
 3340 02e3 0100     		.2byte	0x1
 3341 02e5 50       		.byte	0x50
 3342 02e6 00000000 		.4byte	0
 3343 02ea 00000000 		.4byte	0
 3344              	.LLST19:
 3345 02ee 98010000 		.4byte	.LVL44-.Ltext0
 3346 02f2 9E010000 		.4byte	.LVL45-.Ltext0
 3347 02f6 0100     		.2byte	0x1
 3348 02f8 50       		.byte	0x50
 3349 02f9 9E010000 		.4byte	.LVL45-.Ltext0
 3350 02fd A8010000 		.4byte	.LFE47-.Ltext0
 3351 0301 0400     		.2byte	0x4
 3352 0303 F3       		.byte	0xf3
 3353 0304 01       		.uleb128 0x1
 3354 0305 50       		.byte	0x50
 3355 0306 9F       		.byte	0x9f
 3356 0307 00000000 		.4byte	0
 3357 030b 00000000 		.4byte	0
 3358              	.LLST20:
 3359 030f B4010000 		.4byte	.LFB49-.Ltext0
 3360 0313 B8010000 		.4byte	.LCFI0-.Ltext0
 3361 0317 0200     		.2byte	0x2
 3362 0319 7D       		.byte	0x7d
 3363 031a 00       		.sleb128 0
 3364 031b B8010000 		.4byte	.LCFI0-.Ltext0
 3365 031f 3C020000 		.4byte	.LFE49-.Ltext0
 3366 0323 0200     		.2byte	0x2
 3367 0325 7D       		.byte	0x7d
 3368 0326 08       		.sleb128 8
ARM GAS  /var/folders/lp/0dm50ddn51vc39svyzv_6fp00000gn/T//ccS91u3A.s 			page 86


 3369 0327 00000000 		.4byte	0
 3370 032b 00000000 		.4byte	0
 3371              	.LLST21:
 3372 032f B4010000 		.4byte	.LVL47-.Ltext0
 3373 0333 BA010000 		.4byte	.LVL48-.Ltext0
 3374 0337 0200     		.2byte	0x2
 3375 0339 30       		.byte	0x30
 3376 033a 9F       		.byte	0x9f
 3377 033b BA010000 		.4byte	.LVL48-.Ltext0
 3378 033f BE010000 		.4byte	.LVL49-.Ltext0
 3379 0343 0500     		.2byte	0x5
 3380 0345 73       		.byte	0x73
 3381 0346 00       		.sleb128 0
 3382 0347 3C       		.byte	0x3c
 3383 0348 1A       		.byte	0x1a
 3384 0349 9F       		.byte	0x9f
 3385 034a BE010000 		.4byte	.LVL49-.Ltext0
 3386 034e C8010000 		.4byte	.LVL50-.Ltext0
 3387 0352 0100     		.2byte	0x1
 3388 0354 53       		.byte	0x53
 3389 0355 CA010000 		.4byte	.LVL51-.Ltext0
 3390 0359 CC010000 		.4byte	.LVL52-.Ltext0
 3391 035d 0100     		.2byte	0x1
 3392 035f 53       		.byte	0x53
 3393 0360 F0010000 		.4byte	.LVL58-.Ltext0
 3394 0364 F6010000 		.4byte	.LVL59-.Ltext0
 3395 0368 0600     		.2byte	0x6
 3396 036a 73       		.byte	0x73
 3397 036b 00       		.sleb128 0
 3398 036c 08       		.byte	0x8
 3399 036d F0       		.byte	0xf0
 3400 036e 1A       		.byte	0x1a
 3401 036f 9F       		.byte	0x9f
 3402 0370 F6010000 		.4byte	.LVL59-.Ltext0
 3403 0374 FA010000 		.4byte	.LVL61-.Ltext0
 3404 0378 0100     		.2byte	0x1
 3405 037a 53       		.byte	0x53
 3406 037b 00020000 		.4byte	.LVL62-.Ltext0
 3407 037f 04020000 		.4byte	.LVL63-.Ltext0
 3408 0383 0700     		.2byte	0x7
 3409 0385 74       		.byte	0x74
 3410 0386 00       		.sleb128 0
 3411 0387 0A       		.byte	0xa
 3412 0388 0007     		.2byte	0x700
 3413 038a 1A       		.byte	0x1a
 3414 038b 9F       		.byte	0x9f
 3415 038c 04020000 		.4byte	.LVL63-.Ltext0
 3416 0390 06020000 		.4byte	.LVL64-.Ltext0
 3417 0394 0100     		.2byte	0x1
 3418 0396 54       		.byte	0x54
 3419 0397 0E020000 		.4byte	.LVL66-.Ltext0
 3420 039b 12020000 		.4byte	.LVL67-.Ltext0
 3421 039f 0700     		.2byte	0x7
 3422 03a1 74       		.byte	0x74
 3423 03a2 00       		.sleb128 0
 3424 03a3 0A       		.byte	0xa
 3425 03a4 0038     		.2byte	0x3800
ARM GAS  /var/folders/lp/0dm50ddn51vc39svyzv_6fp00000gn/T//ccS91u3A.s 			page 87


 3426 03a6 1A       		.byte	0x1a
 3427 03a7 9F       		.byte	0x9f
 3428 03a8 12020000 		.4byte	.LVL67-.Ltext0
 3429 03ac 14020000 		.4byte	.LVL68-.Ltext0
 3430 03b0 0100     		.2byte	0x1
 3431 03b2 54       		.byte	0x54
 3432 03b3 1A020000 		.4byte	.LVL69-.Ltext0
 3433 03b7 1E020000 		.4byte	.LVL70-.Ltext0
 3434 03bb 0700     		.2byte	0x7
 3435 03bd 72       		.byte	0x72
 3436 03be 00       		.sleb128 0
 3437 03bf 0A       		.byte	0xa
 3438 03c0 00C0     		.2byte	0xc000
 3439 03c2 1A       		.byte	0x1a
 3440 03c3 9F       		.byte	0x9f
 3441 03c4 1E020000 		.4byte	.LVL70-.Ltext0
 3442 03c8 20020000 		.4byte	.LVL71-.Ltext0
 3443 03cc 0100     		.2byte	0x1
 3444 03ce 52       		.byte	0x52
 3445 03cf 20020000 		.4byte	.LVL71-.Ltext0
 3446 03d3 22020000 		.4byte	.LVL72-.Ltext0
 3447 03d7 0900     		.2byte	0x9
 3448 03d9 72       		.byte	0x72
 3449 03da 00       		.sleb128 0
 3450 03db 03       		.byte	0x3
 3451 03dc 00000000 		.4byte	.LANCHOR0
 3452 03e0 1C       		.byte	0x1c
 3453 03e1 9F       		.byte	0x9f
 3454 03e2 00000000 		.4byte	0
 3455 03e6 00000000 		.4byte	0
 3456              	.LLST22:
 3457 03ea B4010000 		.4byte	.LVL47-.Ltext0
 3458 03ee CC010000 		.4byte	.LVL52-.Ltext0
 3459 03f2 0200     		.2byte	0x2
 3460 03f4 30       		.byte	0x30
 3461 03f5 9F       		.byte	0x9f
 3462 03f6 CC010000 		.4byte	.LVL52-.Ltext0
 3463 03fa D2010000 		.4byte	.LVL54-.Ltext0
 3464 03fe 0700     		.2byte	0x7
 3465 0400 73       		.byte	0x73
 3466 0401 00       		.sleb128 0
 3467 0402 4E       		.byte	0x4e
 3468 0403 41       		.byte	0x41
 3469 0404 24       		.byte	0x24
 3470 0405 1A       		.byte	0x1a
 3471 0406 9F       		.byte	0x9f
 3472 0407 EA010000 		.4byte	.LVL56-.Ltext0
 3473 040b EC010000 		.4byte	.LVL57-.Ltext0
 3474 040f 0100     		.2byte	0x1
 3475 0411 53       		.byte	0x53
 3476 0412 00000000 		.4byte	0
 3477 0416 00000000 		.4byte	0
 3478              	.LLST23:
 3479 041a B4010000 		.4byte	.LVL47-.Ltext0
 3480 041e CE010000 		.4byte	.LVL53-.Ltext0
 3481 0422 0200     		.2byte	0x2
 3482 0424 30       		.byte	0x30
ARM GAS  /var/folders/lp/0dm50ddn51vc39svyzv_6fp00000gn/T//ccS91u3A.s 			page 88


 3483 0425 9F       		.byte	0x9f
 3484 0426 CE010000 		.4byte	.LVL53-.Ltext0
 3485 042a D4010000 		.4byte	.LVL55-.Ltext0
 3486 042e 0700     		.2byte	0x7
 3487 0430 71       		.byte	0x71
 3488 0431 00       		.sleb128 0
 3489 0432 40       		.byte	0x40
 3490 0433 3C       		.byte	0x3c
 3491 0434 24       		.byte	0x24
 3492 0435 1A       		.byte	0x1a
 3493 0436 9F       		.byte	0x9f
 3494 0437 00000000 		.4byte	0
 3495 043b 00000000 		.4byte	0
 3496              	.LLST24:
 3497 043f B4010000 		.4byte	.LVL47-.Ltext0
 3498 0443 F8010000 		.4byte	.LVL60-.Ltext0
 3499 0447 0200     		.2byte	0x2
 3500 0449 30       		.byte	0x30
 3501 044a 9F       		.byte	0x9f
 3502 044b F8010000 		.4byte	.LVL60-.Ltext0
 3503 044f 00020000 		.4byte	.LVL62-.Ltext0
 3504 0453 0100     		.2byte	0x1
 3505 0455 54       		.byte	0x54
 3506 0456 06020000 		.4byte	.LVL64-.Ltext0
 3507 045a 0A020000 		.4byte	.LVL65-.Ltext0
 3508 045e 0100     		.2byte	0x1
 3509 0460 54       		.byte	0x54
 3510 0461 14020000 		.4byte	.LVL68-.Ltext0
 3511 0465 22020000 		.4byte	.LVL72-.Ltext0
 3512 0469 0100     		.2byte	0x1
 3513 046b 54       		.byte	0x54
 3514 046c 22020000 		.4byte	.LVL72-.Ltext0
 3515 0470 3C020000 		.4byte	.LFE49-.Ltext0
 3516 0474 0100     		.2byte	0x1
 3517 0476 52       		.byte	0x52
 3518 0477 00000000 		.4byte	0
 3519 047b 00000000 		.4byte	0
 3520              	.LLST25:
 3521 047f B4010000 		.4byte	.LVL47-.Ltext0
 3522 0483 EA010000 		.4byte	.LVL56-.Ltext0
 3523 0487 0200     		.2byte	0x2
 3524 0489 30       		.byte	0x30
 3525 048a 9F       		.byte	0x9f
 3526 048b 00000000 		.4byte	0
 3527 048f 00000000 		.4byte	0
 3528              	.LLST26:
 3529 0493 3C020000 		.4byte	.LVL73-.Ltext0
 3530 0497 44020000 		.4byte	.LVL74-.Ltext0
 3531 049b 0100     		.2byte	0x1
 3532 049d 50       		.byte	0x50
 3533 049e 44020000 		.4byte	.LVL74-.Ltext0
 3534 04a2 46020000 		.4byte	.LVL75-.Ltext0
 3535 04a6 0400     		.2byte	0x4
 3536 04a8 F3       		.byte	0xf3
 3537 04a9 01       		.uleb128 0x1
 3538 04aa 50       		.byte	0x50
 3539 04ab 9F       		.byte	0x9f
ARM GAS  /var/folders/lp/0dm50ddn51vc39svyzv_6fp00000gn/T//ccS91u3A.s 			page 89


 3540 04ac 46020000 		.4byte	.LVL75-.Ltext0
 3541 04b0 4A020000 		.4byte	.LVL76-.Ltext0
 3542 04b4 0100     		.2byte	0x1
 3543 04b6 50       		.byte	0x50
 3544 04b7 4A020000 		.4byte	.LVL76-.Ltext0
 3545 04bb 54020000 		.4byte	.LFE50-.Ltext0
 3546 04bf 0400     		.2byte	0x4
 3547 04c1 F3       		.byte	0xf3
 3548 04c2 01       		.uleb128 0x1
 3549 04c3 50       		.byte	0x50
 3550 04c4 9F       		.byte	0x9f
 3551 04c5 00000000 		.4byte	0
 3552 04c9 00000000 		.4byte	0
 3553              	.LLST27:
 3554 04cd 54020000 		.4byte	.LVL77-.Ltext0
 3555 04d1 5C020000 		.4byte	.LVL78-.Ltext0
 3556 04d5 0100     		.2byte	0x1
 3557 04d7 50       		.byte	0x50
 3558 04d8 5C020000 		.4byte	.LVL78-.Ltext0
 3559 04dc 5E020000 		.4byte	.LVL79-.Ltext0
 3560 04e0 0400     		.2byte	0x4
 3561 04e2 F3       		.byte	0xf3
 3562 04e3 01       		.uleb128 0x1
 3563 04e4 50       		.byte	0x50
 3564 04e5 9F       		.byte	0x9f
 3565 04e6 5E020000 		.4byte	.LVL79-.Ltext0
 3566 04ea 62020000 		.4byte	.LVL80-.Ltext0
 3567 04ee 0100     		.2byte	0x1
 3568 04f0 50       		.byte	0x50
 3569 04f1 62020000 		.4byte	.LVL80-.Ltext0
 3570 04f5 6C020000 		.4byte	.LFE51-.Ltext0
 3571 04f9 0400     		.2byte	0x4
 3572 04fb F3       		.byte	0xf3
 3573 04fc 01       		.uleb128 0x1
 3574 04fd 50       		.byte	0x50
 3575 04fe 9F       		.byte	0x9f
 3576 04ff 00000000 		.4byte	0
 3577 0503 00000000 		.4byte	0
 3578              	.LLST28:
 3579 0507 6C020000 		.4byte	.LVL81-.Ltext0
 3580 050b 74020000 		.4byte	.LVL82-.Ltext0
 3581 050f 0100     		.2byte	0x1
 3582 0511 50       		.byte	0x50
 3583 0512 74020000 		.4byte	.LVL82-.Ltext0
 3584 0516 76020000 		.4byte	.LVL83-.Ltext0
 3585 051a 0400     		.2byte	0x4
 3586 051c F3       		.byte	0xf3
 3587 051d 01       		.uleb128 0x1
 3588 051e 50       		.byte	0x50
 3589 051f 9F       		.byte	0x9f
 3590 0520 76020000 		.4byte	.LVL83-.Ltext0
 3591 0524 7A020000 		.4byte	.LVL84-.Ltext0
 3592 0528 0100     		.2byte	0x1
 3593 052a 50       		.byte	0x50
 3594 052b 7A020000 		.4byte	.LVL84-.Ltext0
 3595 052f 84020000 		.4byte	.LFE52-.Ltext0
 3596 0533 0400     		.2byte	0x4
ARM GAS  /var/folders/lp/0dm50ddn51vc39svyzv_6fp00000gn/T//ccS91u3A.s 			page 90


 3597 0535 F3       		.byte	0xf3
 3598 0536 01       		.uleb128 0x1
 3599 0537 50       		.byte	0x50
 3600 0538 9F       		.byte	0x9f
 3601 0539 00000000 		.4byte	0
 3602 053d 00000000 		.4byte	0
 3603              	.LLST29:
 3604 0541 84020000 		.4byte	.LVL85-.Ltext0
 3605 0545 8C020000 		.4byte	.LVL86-.Ltext0
 3606 0549 0100     		.2byte	0x1
 3607 054b 50       		.byte	0x50
 3608 054c 8C020000 		.4byte	.LVL86-.Ltext0
 3609 0550 8E020000 		.4byte	.LVL87-.Ltext0
 3610 0554 0400     		.2byte	0x4
 3611 0556 F3       		.byte	0xf3
 3612 0557 01       		.uleb128 0x1
 3613 0558 50       		.byte	0x50
 3614 0559 9F       		.byte	0x9f
 3615 055a 8E020000 		.4byte	.LVL87-.Ltext0
 3616 055e 92020000 		.4byte	.LVL88-.Ltext0
 3617 0562 0100     		.2byte	0x1
 3618 0564 50       		.byte	0x50
 3619 0565 92020000 		.4byte	.LVL88-.Ltext0
 3620 0569 9C020000 		.4byte	.LFE53-.Ltext0
 3621 056d 0400     		.2byte	0x4
 3622 056f F3       		.byte	0xf3
 3623 0570 01       		.uleb128 0x1
 3624 0571 50       		.byte	0x50
 3625 0572 9F       		.byte	0x9f
 3626 0573 00000000 		.4byte	0
 3627 0577 00000000 		.4byte	0
 3628              	.LLST30:
 3629 057b 9C020000 		.4byte	.LVL89-.Ltext0
 3630 057f A4020000 		.4byte	.LVL90-.Ltext0
 3631 0583 0100     		.2byte	0x1
 3632 0585 50       		.byte	0x50
 3633 0586 A4020000 		.4byte	.LVL90-.Ltext0
 3634 058a A6020000 		.4byte	.LVL91-.Ltext0
 3635 058e 0400     		.2byte	0x4
 3636 0590 F3       		.byte	0xf3
 3637 0591 01       		.uleb128 0x1
 3638 0592 50       		.byte	0x50
 3639 0593 9F       		.byte	0x9f
 3640 0594 A6020000 		.4byte	.LVL91-.Ltext0
 3641 0598 AA020000 		.4byte	.LVL92-.Ltext0
 3642 059c 0100     		.2byte	0x1
 3643 059e 50       		.byte	0x50
 3644 059f AA020000 		.4byte	.LVL92-.Ltext0
 3645 05a3 B4020000 		.4byte	.LFE54-.Ltext0
 3646 05a7 0400     		.2byte	0x4
 3647 05a9 F3       		.byte	0xf3
 3648 05aa 01       		.uleb128 0x1
 3649 05ab 50       		.byte	0x50
 3650 05ac 9F       		.byte	0x9f
 3651 05ad 00000000 		.4byte	0
 3652 05b1 00000000 		.4byte	0
 3653              	.LLST31:
ARM GAS  /var/folders/lp/0dm50ddn51vc39svyzv_6fp00000gn/T//ccS91u3A.s 			page 91


 3654 05b5 D8020000 		.4byte	.LVL96-.Ltext0
 3655 05b9 F0020000 		.4byte	.LVL102-.Ltext0
 3656 05bd 0100     		.2byte	0x1
 3657 05bf 50       		.byte	0x50
 3658 05c0 F0020000 		.4byte	.LVL102-.Ltext0
 3659 05c4 00030000 		.4byte	.LFE58-.Ltext0
 3660 05c8 0400     		.2byte	0x4
 3661 05ca F3       		.byte	0xf3
 3662 05cb 01       		.uleb128 0x1
 3663 05cc 50       		.byte	0x50
 3664 05cd 9F       		.byte	0x9f
 3665 05ce 00000000 		.4byte	0
 3666 05d2 00000000 		.4byte	0
 3667              	.LLST32:
 3668 05d6 D8020000 		.4byte	.LVL96-.Ltext0
 3669 05da DA020000 		.4byte	.LVL97-.Ltext0
 3670 05de 0200     		.2byte	0x2
 3671 05e0 30       		.byte	0x30
 3672 05e1 9F       		.byte	0x9f
 3673 05e2 DA020000 		.4byte	.LVL97-.Ltext0
 3674 05e6 EC020000 		.4byte	.LVL101-.Ltext0
 3675 05ea 0600     		.2byte	0x6
 3676 05ec 72       		.byte	0x72
 3677 05ed 00       		.sleb128 0
 3678 05ee 08       		.byte	0x8
 3679 05ef FF       		.byte	0xff
 3680 05f0 1A       		.byte	0x1a
 3681 05f1 9F       		.byte	0x9f
 3682 05f2 EC020000 		.4byte	.LVL101-.Ltext0
 3683 05f6 F0020000 		.4byte	.LVL102-.Ltext0
 3684 05fa 0800     		.2byte	0x8
 3685 05fc 70       		.byte	0x70
 3686 05fd 00       		.sleb128 0
 3687 05fe 4F       		.byte	0x4f
 3688 05ff 1A       		.byte	0x1a
 3689 0600 08       		.byte	0x8
 3690 0601 FF       		.byte	0xff
 3691 0602 1A       		.byte	0x1a
 3692 0603 9F       		.byte	0x9f
 3693 0604 F0020000 		.4byte	.LVL102-.Ltext0
 3694 0608 00030000 		.4byte	.LFE58-.Ltext0
 3695 060c 0900     		.2byte	0x9
 3696 060e F3       		.byte	0xf3
 3697 060f 01       		.uleb128 0x1
 3698 0610 50       		.byte	0x50
 3699 0611 4F       		.byte	0x4f
 3700 0612 1A       		.byte	0x1a
 3701 0613 08       		.byte	0x8
 3702 0614 FF       		.byte	0xff
 3703 0615 1A       		.byte	0x1a
 3704 0616 9F       		.byte	0x9f
 3705 0617 00000000 		.4byte	0
 3706 061b 00000000 		.4byte	0
 3707              	.LLST33:
 3708 061f D8020000 		.4byte	.LVL96-.Ltext0
 3709 0623 E2020000 		.4byte	.LVL98-.Ltext0
 3710 0627 0200     		.2byte	0x2
ARM GAS  /var/folders/lp/0dm50ddn51vc39svyzv_6fp00000gn/T//ccS91u3A.s 			page 92


 3711 0629 30       		.byte	0x30
 3712 062a 9F       		.byte	0x9f
 3713 062b E2020000 		.4byte	.LVL98-.Ltext0
 3714 062f E4020000 		.4byte	.LVL99-.Ltext0
 3715 0633 0100     		.2byte	0x1
 3716 0635 53       		.byte	0x53
 3717 0636 E4020000 		.4byte	.LVL99-.Ltext0
 3718 063a EA020000 		.4byte	.LVL100-.Ltext0
 3719 063e 0200     		.2byte	0x2
 3720 0640 30       		.byte	0x30
 3721 0641 9F       		.byte	0x9f
 3722 0642 EA020000 		.4byte	.LVL100-.Ltext0
 3723 0646 00030000 		.4byte	.LFE58-.Ltext0
 3724 064a 0100     		.2byte	0x1
 3725 064c 53       		.byte	0x53
 3726 064d 00000000 		.4byte	0
 3727 0651 00000000 		.4byte	0
 3728              	.LLST34:
 3729 0655 D8020000 		.4byte	.LVL96-.Ltext0
 3730 0659 EC020000 		.4byte	.LVL101-.Ltext0
 3731 065d 0200     		.2byte	0x2
 3732 065f 30       		.byte	0x30
 3733 0660 9F       		.byte	0x9f
 3734 0661 EC020000 		.4byte	.LVL101-.Ltext0
 3735 0665 F0020000 		.4byte	.LVL102-.Ltext0
 3736 0669 0B00     		.2byte	0xb
 3737 066b 73       		.byte	0x73
 3738 066c 00       		.sleb128 0
 3739 066d 70       		.byte	0x70
 3740 066e 00       		.sleb128 0
 3741 066f 4F       		.byte	0x4f
 3742 0670 1A       		.byte	0x1a
 3743 0671 08       		.byte	0x8
 3744 0672 FF       		.byte	0xff
 3745 0673 1A       		.byte	0x1a
 3746 0674 25       		.byte	0x25
 3747 0675 9F       		.byte	0x9f
 3748 0676 F0020000 		.4byte	.LVL102-.Ltext0
 3749 067a 00030000 		.4byte	.LFE58-.Ltext0
 3750 067e 0C00     		.2byte	0xc
 3751 0680 73       		.byte	0x73
 3752 0681 00       		.sleb128 0
 3753 0682 F3       		.byte	0xf3
 3754 0683 01       		.uleb128 0x1
 3755 0684 50       		.byte	0x50
 3756 0685 4F       		.byte	0x4f
 3757 0686 1A       		.byte	0x1a
 3758 0687 08       		.byte	0x8
 3759 0688 FF       		.byte	0xff
 3760 0689 1A       		.byte	0x1a
 3761 068a 25       		.byte	0x25
 3762 068b 9F       		.byte	0x9f
 3763 068c 00000000 		.4byte	0
 3764 0690 00000000 		.4byte	0
 3765              	.LLST35:
 3766 0694 00030000 		.4byte	.LFB31-.Ltext0
 3767 0698 02030000 		.4byte	.LCFI1-.Ltext0
ARM GAS  /var/folders/lp/0dm50ddn51vc39svyzv_6fp00000gn/T//ccS91u3A.s 			page 93


 3768 069c 0200     		.2byte	0x2
 3769 069e 7D       		.byte	0x7d
 3770 069f 00       		.sleb128 0
 3771 06a0 02030000 		.4byte	.LCFI1-.Ltext0
 3772 06a4 2C030000 		.4byte	.LCFI2-.Ltext0
 3773 06a8 0200     		.2byte	0x2
 3774 06aa 7D       		.byte	0x7d
 3775 06ab 10       		.sleb128 16
 3776 06ac 2C030000 		.4byte	.LCFI2-.Ltext0
 3777 06b0 30030000 		.4byte	.LFE31-.Ltext0
 3778 06b4 0200     		.2byte	0x2
 3779 06b6 7D       		.byte	0x7d
 3780 06b7 04       		.sleb128 4
 3781 06b8 00000000 		.4byte	0
 3782 06bc 00000000 		.4byte	0
 3783              	.LLST36:
 3784 06c0 06030000 		.4byte	.LVL103-.Ltext0
 3785 06c4 24030000 		.4byte	.LVL106-.Ltext0
 3786 06c8 0200     		.2byte	0x2
 3787 06ca 30       		.byte	0x30
 3788 06cb 9F       		.byte	0x9f
 3789 06cc 24030000 		.4byte	.LVL106-.Ltext0
 3790 06d0 26030000 		.4byte	.LVL107-.Ltext0
 3791 06d4 0700     		.2byte	0x7
 3792 06d6 70       		.byte	0x70
 3793 06d7 00       		.sleb128 0
 3794 06d8 48       		.byte	0x48
 3795 06d9 24       		.byte	0x24
 3796 06da 30       		.byte	0x30
 3797 06db 2E       		.byte	0x2e
 3798 06dc 9F       		.byte	0x9f
 3799 06dd 00000000 		.4byte	0
 3800 06e1 00000000 		.4byte	0
 3801              	.LLST37:
 3802 06e5 0C030000 		.4byte	.LVL104-.Ltext0
 3803 06e9 20030000 		.4byte	.LVL105-.Ltext0
 3804 06ed 0100     		.2byte	0x1
 3805 06ef 50       		.byte	0x50
 3806 06f0 00000000 		.4byte	0
 3807 06f4 00000000 		.4byte	0
 3808              	.LLST38:
 3809 06f8 40030000 		.4byte	.LVL108-.Ltext0
 3810 06fc 4A030000 		.4byte	.LVL110-.Ltext0
 3811 0700 0100     		.2byte	0x1
 3812 0702 50       		.byte	0x50
 3813 0703 4A030000 		.4byte	.LVL110-.Ltext0
 3814 0707 54030000 		.4byte	.LFE60-.Ltext0
 3815 070b 0400     		.2byte	0x4
 3816 070d F3       		.byte	0xf3
 3817 070e 01       		.uleb128 0x1
 3818 070f 50       		.byte	0x50
 3819 0710 9F       		.byte	0x9f
 3820 0711 00000000 		.4byte	0
 3821 0715 00000000 		.4byte	0
 3822              	.LLST39:
 3823 0719 40030000 		.4byte	.LVL108-.Ltext0
 3824 071d 44030000 		.4byte	.LVL109-.Ltext0
ARM GAS  /var/folders/lp/0dm50ddn51vc39svyzv_6fp00000gn/T//ccS91u3A.s 			page 94


 3825 0721 0200     		.2byte	0x2
 3826 0723 30       		.byte	0x30
 3827 0724 9F       		.byte	0x9f
 3828 0725 44030000 		.4byte	.LVL109-.Ltext0
 3829 0729 4A030000 		.4byte	.LVL110-.Ltext0
 3830 072d 0B00     		.2byte	0xb
 3831 072f 70       		.byte	0x70
 3832 0730 00       		.sleb128 0
 3833 0731 08       		.byte	0x8
 3834 0732 FF       		.byte	0xff
 3835 0733 1A       		.byte	0x1a
 3836 0734 73       		.byte	0x73
 3837 0735 00       		.sleb128 0
 3838 0736 1A       		.byte	0x1a
 3839 0737 30       		.byte	0x30
 3840 0738 2E       		.byte	0x2e
 3841 0739 9F       		.byte	0x9f
 3842 073a 4A030000 		.4byte	.LVL110-.Ltext0
 3843 073e 54030000 		.4byte	.LFE60-.Ltext0
 3844 0742 0C00     		.2byte	0xc
 3845 0744 F3       		.byte	0xf3
 3846 0745 01       		.uleb128 0x1
 3847 0746 50       		.byte	0x50
 3848 0747 08       		.byte	0x8
 3849 0748 FF       		.byte	0xff
 3850 0749 1A       		.byte	0x1a
 3851 074a 73       		.byte	0x73
 3852 074b 00       		.sleb128 0
 3853 074c 1A       		.byte	0x1a
 3854 074d 30       		.byte	0x30
 3855 074e 2E       		.byte	0x2e
 3856 074f 9F       		.byte	0x9f
 3857 0750 00000000 		.4byte	0
 3858 0754 00000000 		.4byte	0
 3859              		.section	.debug_aranges,"",%progbits
 3860 0000 1C000000 		.4byte	0x1c
 3861 0004 0200     		.2byte	0x2
 3862 0006 00000000 		.4byte	.Ldebug_info0
 3863 000a 04       		.byte	0x4
 3864 000b 00       		.byte	0
 3865 000c 0000     		.2byte	0
 3866 000e 0000     		.2byte	0
 3867 0010 00000000 		.4byte	.Ltext0
 3868 0014 60030000 		.4byte	.Letext0-.Ltext0
 3869 0018 00000000 		.4byte	0
 3870 001c 00000000 		.4byte	0
 3871              		.section	.debug_line,"",%progbits
 3872              	.Ldebug_line0:
 3873 0000 DB020000 		.section	.debug_str,"MS",%progbits,1
 3873      0200B201 
 3873      00000201 
 3873      FB0E0D00 
 3873      01010101 
 3874              	.LASF53:
 3875 0000 5243435F 		.ascii	"RCC_PREDIV1_Source\000"
 3875      50524544 
 3875      4956315F 
ARM GAS  /var/folders/lp/0dm50ddn51vc39svyzv_6fp00000gn/T//ccS91u3A.s 			page 95


 3875      536F7572 
 3875      636500
 3876              	.LASF27:
 3877 0013 41504231 		.ascii	"APB1RSTR\000"
 3877      52535452 
 3877      00
 3878              	.LASF60:
 3879 001c 5243435F 		.ascii	"RCC_HCLK\000"
 3879      48434C4B 
 3879      00
 3880              	.LASF66:
 3881 0025 5243435F 		.ascii	"RCC_ADCCLKConfig\000"
 3881      41444343 
 3881      4C4B436F 
 3881      6E666967 
 3881      00
 3882              	.LASF54:
 3883 0036 5243435F 		.ascii	"RCC_PREDIV1_Div\000"
 3883      50524544 
 3883      4956315F 
 3883      44697600 
 3884              	.LASF103:
 3885 0046 5243435F 		.ascii	"RCC_ClearITPendingBit\000"
 3885      436C6561 
 3885      72495450 
 3885      656E6469 
 3885      6E674269 
 3886              	.LASF102:
 3887 005c 5243435F 		.ascii	"RCC_GetITStatus\000"
 3887      47657449 
 3887      54537461 
 3887      74757300 
 3888              	.LASF15:
 3889 006c 73697A65 		.ascii	"sizetype\000"
 3889      74797065 
 3889      00
 3890              	.LASF36:
 3891 0075 48434C4B 		.ascii	"HCLK_Frequency\000"
 3891      5F467265 
 3891      7175656E 
 3891      637900
 3892              	.LASF83:
 3893 0084 5243435F 		.ascii	"RCC_APB2Periph\000"
 3893      41504232 
 3893      50657269 
 3893      706800
 3894              	.LASF67:
 3895 0093 5243435F 		.ascii	"RCC_PCLK2\000"
 3895      50434C4B 
 3895      3200
 3896              	.LASF7:
 3897 009d 5F5F7569 		.ascii	"__uint32_t\000"
 3897      6E743332 
 3897      5F7400
 3898              	.LASF106:
 3899 00a8 474E5520 		.ascii	"GNU C11 5.4.1 20160919 (release) [ARM/embedded-5-br"
 3899      43313120 
ARM GAS  /var/folders/lp/0dm50ddn51vc39svyzv_6fp00000gn/T//ccS91u3A.s 			page 96


 3899      352E342E 
 3899      31203230 
 3899      31363039 
 3900 00db 616E6368 		.ascii	"anch revision 240496] -mcpu=cortex-m3 -mthumb -g -g"
 3900      20726576 
 3900      6973696F 
 3900      6E203234 
 3900      30343936 
 3901 010e 64776172 		.ascii	"dwarf-2 -Os -fomit-frame-pointer\000"
 3901      662D3220 
 3901      2D4F7320 
 3901      2D666F6D 
 3901      69742D66 
 3902              	.LASF4:
 3903 012f 5F5F7569 		.ascii	"__uint16_t\000"
 3903      6E743136 
 3903      5F7400
 3904              	.LASF51:
 3905 013a 5243435F 		.ascii	"RCC_PLLCmd\000"
 3905      504C4C43 
 3905      6D6400
 3906              	.LASF99:
 3907 0145 48534553 		.ascii	"HSEStatus\000"
 3907      74617475 
 3907      7300
 3908              	.LASF33:
 3909 014f 43464752 		.ascii	"CFGR2\000"
 3909      3200
 3910              	.LASF80:
 3911 0155 5243435F 		.ascii	"RCC_AHBPeriphClockCmd\000"
 3911      41484250 
 3911      65726970 
 3911      68436C6F 
 3911      636B436D 
 3912              	.LASF25:
 3913 016b 43464752 		.ascii	"CFGR\000"
 3913      00
 3914              	.LASF20:
 3915 0170 454E4142 		.ascii	"ENABLE\000"
 3915      4C4500
 3916              	.LASF85:
 3917 0177 5243435F 		.ascii	"RCC_APB1Periph\000"
 3917      41504231 
 3917      50657269 
 3917      706800
 3918              	.LASF12:
 3919 0186 75696E74 		.ascii	"uint8_t\000"
 3919      385F7400 
 3920              	.LASF30:
 3921 018e 41504231 		.ascii	"APB1ENR\000"
 3921      454E5200 
 3922              	.LASF78:
 3923 0196 70726573 		.ascii	"presc\000"
 3923      6300
 3924              	.LASF46:
 3925 019c 4E657753 		.ascii	"NewState\000"
 3925      74617465 
ARM GAS  /var/folders/lp/0dm50ddn51vc39svyzv_6fp00000gn/T//ccS91u3A.s 			page 97


 3925      00
 3926              	.LASF90:
 3927 01a5 5243435F 		.ascii	"RCC_MCOConfig\000"
 3927      4D434F43 
 3927      6F6E6669 
 3927      6700
 3928              	.LASF100:
 3929 01b3 5243435F 		.ascii	"RCC_DeInit\000"
 3929      4465496E 
 3929      697400
 3930              	.LASF96:
 3931 01be 5243435F 		.ascii	"RCC_WaitForHSEStartUp\000"
 3931      57616974 
 3931      466F7248 
 3931      53455374 
 3931      61727455 
 3932              	.LASF19:
 3933 01d4 44495341 		.ascii	"DISABLE\000"
 3933      424C4500 
 3934              	.LASF69:
 3935 01dc 5243435F 		.ascii	"RCC_LSE\000"
 3935      4C534500 
 3936              	.LASF72:
 3937 01e4 5243435F 		.ascii	"RCC_RTCCLKSource\000"
 3937      52544343 
 3937      4C4B536F 
 3937      75726365 
 3937      00
 3938              	.LASF34:
 3939 01f5 5243435F 		.ascii	"RCC_TypeDef\000"
 3939      54797065 
 3939      44656600 
 3940              	.LASF9:
 3941 0201 6C6F6E67 		.ascii	"long long int\000"
 3941      206C6F6E 
 3941      6720696E 
 3941      7400
 3942              	.LASF10:
 3943 020f 6C6F6E67 		.ascii	"long long unsigned int\000"
 3943      206C6F6E 
 3943      6720756E 
 3943      7369676E 
 3943      65642069 
 3944              	.LASF87:
 3945 0226 5243435F 		.ascii	"RCC_APB1PeriphResetCmd\000"
 3945      41504231 
 3945      50657269 
 3945      70685265 
 3945      73657443 
 3946              	.LASF47:
 3947 023d 5243435F 		.ascii	"RCC_PLLConfig\000"
 3947      504C4C43 
 3947      6F6E6669 
 3947      6700
 3948              	.LASF18:
 3949 024b 49545374 		.ascii	"ITStatus\000"
 3949      61747573 
ARM GAS  /var/folders/lp/0dm50ddn51vc39svyzv_6fp00000gn/T//ccS91u3A.s 			page 98


 3949      00
 3950              	.LASF6:
 3951 0254 6C6F6E67 		.ascii	"long int\000"
 3951      20696E74 
 3951      00
 3952              	.LASF79:
 3953 025d 70726564 		.ascii	"prediv1factor\000"
 3953      69763166 
 3953      6163746F 
 3953      7200
 3954              	.LASF107:
 3955 026b 4C696272 		.ascii	"Libraries/STM32F10x_StdPeriph_Driver/src/stm32f10x_"
 3955      61726965 
 3955      732F5354 
 3955      4D333246 
 3955      3130785F 
 3956 029e 7263632E 		.ascii	"rcc.c\000"
 3956      6300
 3957              	.LASF76:
 3958 02a4 706C6C6D 		.ascii	"pllmull\000"
 3958      756C6C00 
 3959              	.LASF64:
 3960 02ac 5243435F 		.ascii	"RCC_USBCLKConfig\000"
 3960      55534243 
 3960      4C4B436F 
 3960      6E666967 
 3960      00
 3961              	.LASF70:
 3962 02bd 5243435F 		.ascii	"RCC_LSICmd\000"
 3962      4C534943 
 3962      6D6400
 3963              	.LASF109:
 3964 02c8 5243435F 		.ascii	"RCC_GetSYSCLKSource\000"
 3964      47657453 
 3964      5953434C 
 3964      4B536F75 
 3964      72636500 
 3965              	.LASF26:
 3966 02dc 41504232 		.ascii	"APB2RSTR\000"
 3966      52535452 
 3966      00
 3967              	.LASF3:
 3968 02e5 5F5F7569 		.ascii	"__uint8_t\000"
 3968      6E74385F 
 3968      7400
 3969              	.LASF24:
 3970 02ef 4572726F 		.ascii	"ErrorStatus\000"
 3970      72537461 
 3970      74757300 
 3971              	.LASF22:
 3972 02fb 4552524F 		.ascii	"ERROR\000"
 3972      5200
 3973              	.LASF77:
 3974 0301 706C6C73 		.ascii	"pllsource\000"
 3974      6F757263 
 3974      6500
 3975              	.LASF28:
ARM GAS  /var/folders/lp/0dm50ddn51vc39svyzv_6fp00000gn/T//ccS91u3A.s 			page 99


 3976 030b 41484245 		.ascii	"AHBENR\000"
 3976      4E5200
 3977              	.LASF59:
 3978 0312 5243435F 		.ascii	"RCC_PCLK1Config\000"
 3978      50434C4B 
 3978      31436F6E 
 3978      66696700 
 3979              	.LASF50:
 3980 0322 746D7072 		.ascii	"tmpreg\000"
 3980      656700
 3981              	.LASF94:
 3982 0329 62697473 		.ascii	"bitstatus\000"
 3982      74617475 
 3982      7300
 3983              	.LASF93:
 3984 0333 73746174 		.ascii	"statusreg\000"
 3984      75737265 
 3984      6700
 3985              	.LASF31:
 3986 033d 42444352 		.ascii	"BDCR\000"
 3986      00
 3987              	.LASF84:
 3988 0342 5243435F 		.ascii	"RCC_APB1PeriphClockCmd\000"
 3988      41504231 
 3988      50657269 
 3988      7068436C 
 3988      6F636B43 
 3989              	.LASF1:
 3990 0359 756E7369 		.ascii	"unsigned char\000"
 3990      676E6564 
 3990      20636861 
 3990      7200
 3991              	.LASF2:
 3992 0367 73686F72 		.ascii	"short int\000"
 3992      7420696E 
 3992      7400
 3993              	.LASF29:
 3994 0371 41504232 		.ascii	"APB2ENR\000"
 3994      454E5200 
 3995              	.LASF97:
 3996 0379 53746172 		.ascii	"StartUpCounter\000"
 3996      74557043 
 3996      6F756E74 
 3996      657200
 3997              	.LASF0:
 3998 0388 7369676E 		.ascii	"signed char\000"
 3998      65642063 
 3998      68617200 
 3999              	.LASF88:
 4000 0394 5243435F 		.ascii	"RCC_BackupResetCmd\000"
 4000      4261636B 
 4000      75705265 
 4000      73657443 
 4000      6D6400
 4001              	.LASF42:
 4002 03a7 5243435F 		.ascii	"RCC_AdjustHSICalibrationValue\000"
 4002      41646A75 
ARM GAS  /var/folders/lp/0dm50ddn51vc39svyzv_6fp00000gn/T//ccS91u3A.s 			page 100


 4002      73744853 
 4002      4943616C 
 4002      69627261 
 4003              	.LASF39:
 4004 03c5 41444343 		.ascii	"ADCCLK_Frequency\000"
 4004      4C4B5F46 
 4004      72657175 
 4004      656E6379 
 4004      00
 4005              	.LASF92:
 4006 03d6 5243435F 		.ascii	"RCC_FLAG\000"
 4006      464C4147 
 4006      00
 4007              	.LASF11:
 4008 03df 756E7369 		.ascii	"unsigned int\000"
 4008      676E6564 
 4008      20696E74 
 4008      00
 4009              	.LASF48:
 4010 03ec 5243435F 		.ascii	"RCC_PLLSource\000"
 4010      504C4C53 
 4010      6F757263 
 4010      6500
 4011              	.LASF13:
 4012 03fa 75696E74 		.ascii	"uint16_t\000"
 4012      31365F74 
 4012      00
 4013              	.LASF95:
 4014 0403 5243435F 		.ascii	"RCC_GetFlagStatus\000"
 4014      47657446 
 4014      6C616753 
 4014      74617475 
 4014      7300
 4015              	.LASF52:
 4016 0415 5243435F 		.ascii	"RCC_PREDIV1Config\000"
 4016      50524544 
 4016      49563143 
 4016      6F6E6669 
 4016      6700
 4017              	.LASF65:
 4018 0427 5243435F 		.ascii	"RCC_USBCLKSource\000"
 4018      55534243 
 4018      4C4B536F 
 4018      75726365 
 4018      00
 4019              	.LASF23:
 4020 0438 53554343 		.ascii	"SUCCESS\000"
 4020      45535300 
 4021              	.LASF40:
 4022 0440 5243435F 		.ascii	"RCC_ClocksTypeDef\000"
 4022      436C6F63 
 4022      6B735479 
 4022      70654465 
 4022      6600
 4023              	.LASF101:
 4024 0452 5243435F 		.ascii	"RCC_ClearFlag\000"
 4024      436C6561 
ARM GAS  /var/folders/lp/0dm50ddn51vc39svyzv_6fp00000gn/T//ccS91u3A.s 			page 101


 4024      72466C61 
 4024      6700
 4025              	.LASF5:
 4026 0460 73686F72 		.ascii	"short unsigned int\000"
 4026      7420756E 
 4026      7369676E 
 4026      65642069 
 4026      6E7400
 4027              	.LASF98:
 4028 0473 73746174 		.ascii	"status\000"
 4028      757300
 4029              	.LASF58:
 4030 047a 5243435F 		.ascii	"RCC_SYSCLK\000"
 4030      53595343 
 4030      4C4B00
 4031              	.LASF89:
 4032 0485 5243435F 		.ascii	"RCC_ClockSecuritySystemCmd\000"
 4032      436C6F63 
 4032      6B536563 
 4032      75726974 
 4032      79537973 
 4033              	.LASF49:
 4034 04a0 5243435F 		.ascii	"RCC_PLLMul\000"
 4034      504C4C4D 
 4034      756C00
 4035              	.LASF41:
 4036 04ab 5243435F 		.ascii	"RCC_HSEConfig\000"
 4036      48534543 
 4036      6F6E6669 
 4036      6700
 4037              	.LASF108:
 4038 04b9 2F557365 		.ascii	"/Users/yanbo/Projects/stm32f10x_makefile_template\000"
 4038      72732F79 
 4038      616E626F 
 4038      2F50726F 
 4038      6A656374 
 4039              	.LASF35:
 4040 04eb 53595343 		.ascii	"SYSCLK_Frequency\000"
 4040      4C4B5F46 
 4040      72657175 
 4040      656E6379 
 4040      00
 4041              	.LASF16:
 4042 04fc 52455345 		.ascii	"RESET\000"
 4042      5400
 4043              	.LASF38:
 4044 0502 50434C4B 		.ascii	"PCLK2_Frequency\000"
 4044      325F4672 
 4044      65717565 
 4044      6E637900 
 4045              	.LASF62:
 4046 0512 5243435F 		.ascii	"RCC_ITConfig\000"
 4046      4954436F 
 4046      6E666967 
 4046      00
 4047              	.LASF82:
 4048 051f 5243435F 		.ascii	"RCC_APB2PeriphClockCmd\000"
ARM GAS  /var/folders/lp/0dm50ddn51vc39svyzv_6fp00000gn/T//ccS91u3A.s 			page 102


 4048      41504232 
 4048      50657269 
 4048      7068436C 
 4048      6F636B43 
 4049              	.LASF32:
 4050 0536 52455345 		.ascii	"RESERVED0\000"
 4050      52564544 
 4050      3000
 4051              	.LASF14:
 4052 0540 75696E74 		.ascii	"uint32_t\000"
 4052      33325F74 
 4052      00
 4053              	.LASF71:
 4054 0549 5243435F 		.ascii	"RCC_RTCCLKConfig\000"
 4054      52544343 
 4054      4C4B436F 
 4054      6E666967 
 4054      00
 4055              	.LASF8:
 4056 055a 6C6F6E67 		.ascii	"long unsigned int\000"
 4056      20756E73 
 4056      69676E65 
 4056      6420696E 
 4056      7400
 4057              	.LASF43:
 4058 056c 5243435F 		.ascii	"RCC_HSE\000"
 4058      48534500 
 4059              	.LASF56:
 4060 0574 5243435F 		.ascii	"RCC_SYSCLKSource\000"
 4060      53595343 
 4060      4C4B536F 
 4060      75726365 
 4060      00
 4061              	.LASF21:
 4062 0585 46756E63 		.ascii	"FunctionalState\000"
 4062      74696F6E 
 4062      616C5374 
 4062      61746500 
 4063              	.LASF37:
 4064 0595 50434C4B 		.ascii	"PCLK1_Frequency\000"
 4064      315F4672 
 4064      65717565 
 4064      6E637900 
 4065              	.LASF68:
 4066 05a5 5243435F 		.ascii	"RCC_LSEConfig\000"
 4066      4C534543 
 4066      6F6E6669 
 4066      6700
 4067              	.LASF104:
 4068 05b3 41504241 		.ascii	"APBAHBPrescTable\000"
 4068      48425072 
 4068      65736354 
 4068      61626C65 
 4068      00
 4069              	.LASF44:
 4070 05c4 48534943 		.ascii	"HSICalibrationValue\000"
 4070      616C6962 
ARM GAS  /var/folders/lp/0dm50ddn51vc39svyzv_6fp00000gn/T//ccS91u3A.s 			page 103


 4070      72617469 
 4070      6F6E5661 
 4070      6C756500 
 4071              	.LASF74:
 4072 05d8 5243435F 		.ascii	"RCC_GetClocksFreq\000"
 4072      47657443 
 4072      6C6F636B 
 4072      73467265 
 4072      7100
 4073              	.LASF86:
 4074 05ea 5243435F 		.ascii	"RCC_APB2PeriphResetCmd\000"
 4074      41504232 
 4074      50657269 
 4074      70685265 
 4074      73657443 
 4075              	.LASF73:
 4076 0601 5243435F 		.ascii	"RCC_RTCCLKCmd\000"
 4076      52544343 
 4076      4C4B436D 
 4076      6400
 4077              	.LASF75:
 4078 060f 5243435F 		.ascii	"RCC_Clocks\000"
 4078      436C6F63 
 4078      6B7300
 4079              	.LASF55:
 4080 061a 5243435F 		.ascii	"RCC_SYSCLKConfig\000"
 4080      53595343 
 4080      4C4B436F 
 4080      6E666967 
 4080      00
 4081              	.LASF57:
 4082 062b 5243435F 		.ascii	"RCC_HCLKConfig\000"
 4082      48434C4B 
 4082      436F6E66 
 4082      696700
 4083              	.LASF45:
 4084 063a 5243435F 		.ascii	"RCC_HSICmd\000"
 4084      48534943 
 4084      6D6400
 4085              	.LASF110:
 4086 0645 49544D5F 		.ascii	"ITM_RxBuffer\000"
 4086      52784275 
 4086      66666572 
 4086      00
 4087              	.LASF91:
 4088 0652 5243435F 		.ascii	"RCC_MCO\000"
 4088      4D434F00 
 4089              	.LASF63:
 4090 065a 5243435F 		.ascii	"RCC_IT\000"
 4090      495400
 4091              	.LASF17:
 4092 0661 466C6167 		.ascii	"FlagStatus\000"
 4092      53746174 
 4092      757300
 4093              	.LASF81:
 4094 066c 5243435F 		.ascii	"RCC_AHBPeriph\000"
 4094      41484250 
ARM GAS  /var/folders/lp/0dm50ddn51vc39svyzv_6fp00000gn/T//ccS91u3A.s 			page 104


 4094      65726970 
 4094      6800
 4095              	.LASF61:
 4096 067a 5243435F 		.ascii	"RCC_PCLK2Config\000"
 4096      50434C4B 
 4096      32436F6E 
 4096      66696700 
 4097              	.LASF105:
 4098 068a 41444350 		.ascii	"ADCPrescTable\000"
 4098      72657363 
 4098      5461626C 
 4098      6500
 4099              		.ident	"GCC: (GNU Tools for ARM Embedded Processors) 5.4.1 20160919 (release) [ARM/embedded-5-bran
ARM GAS  /var/folders/lp/0dm50ddn51vc39svyzv_6fp00000gn/T//ccS91u3A.s 			page 105


DEFINED SYMBOLS
                            *ABS*:0000000000000000 stm32f10x_rcc.c
/var/folders/lp/0dm50ddn51vc39svyzv_6fp00000gn/T//ccS91u3A.s:77     .text:0000000000000000 $t
/var/folders/lp/0dm50ddn51vc39svyzv_6fp00000gn/T//ccS91u3A.s:82     .text:0000000000000000 RCC_DeInit
/var/folders/lp/0dm50ddn51vc39svyzv_6fp00000gn/T//ccS91u3A.s:123    .text:000000000000003c $d
/var/folders/lp/0dm50ddn51vc39svyzv_6fp00000gn/T//ccS91u3A.s:128    .text:0000000000000044 $t
/var/folders/lp/0dm50ddn51vc39svyzv_6fp00000gn/T//ccS91u3A.s:133    .text:0000000000000044 RCC_HSEConfig
/var/folders/lp/0dm50ddn51vc39svyzv_6fp00000gn/T//ccS91u3A.s:173    .text:0000000000000078 $d
/var/folders/lp/0dm50ddn51vc39svyzv_6fp00000gn/T//ccS91u3A.s:177    .text:000000000000007c $t
/var/folders/lp/0dm50ddn51vc39svyzv_6fp00000gn/T//ccS91u3A.s:182    .text:000000000000007c RCC_AdjustHSICalibrationValue
/var/folders/lp/0dm50ddn51vc39svyzv_6fp00000gn/T//ccS91u3A.s:206    .text:000000000000008c $d
/var/folders/lp/0dm50ddn51vc39svyzv_6fp00000gn/T//ccS91u3A.s:210    .text:0000000000000090 $t
/var/folders/lp/0dm50ddn51vc39svyzv_6fp00000gn/T//ccS91u3A.s:215    .text:0000000000000090 RCC_HSICmd
/var/folders/lp/0dm50ddn51vc39svyzv_6fp00000gn/T//ccS91u3A.s:230    .text:0000000000000098 $d
/var/folders/lp/0dm50ddn51vc39svyzv_6fp00000gn/T//ccS91u3A.s:234    .text:000000000000009c $t
/var/folders/lp/0dm50ddn51vc39svyzv_6fp00000gn/T//ccS91u3A.s:239    .text:000000000000009c RCC_PLLConfig
/var/folders/lp/0dm50ddn51vc39svyzv_6fp00000gn/T//ccS91u3A.s:264    .text:00000000000000ac $d
/var/folders/lp/0dm50ddn51vc39svyzv_6fp00000gn/T//ccS91u3A.s:268    .text:00000000000000b0 $t
/var/folders/lp/0dm50ddn51vc39svyzv_6fp00000gn/T//ccS91u3A.s:273    .text:00000000000000b0 RCC_PLLCmd
/var/folders/lp/0dm50ddn51vc39svyzv_6fp00000gn/T//ccS91u3A.s:288    .text:00000000000000b8 $d
/var/folders/lp/0dm50ddn51vc39svyzv_6fp00000gn/T//ccS91u3A.s:292    .text:00000000000000bc $t
/var/folders/lp/0dm50ddn51vc39svyzv_6fp00000gn/T//ccS91u3A.s:297    .text:00000000000000bc RCC_PREDIV1Config
/var/folders/lp/0dm50ddn51vc39svyzv_6fp00000gn/T//ccS91u3A.s:323    .text:00000000000000d0 $d
/var/folders/lp/0dm50ddn51vc39svyzv_6fp00000gn/T//ccS91u3A.s:327    .text:00000000000000d4 $t
/var/folders/lp/0dm50ddn51vc39svyzv_6fp00000gn/T//ccS91u3A.s:332    .text:00000000000000d4 RCC_SYSCLKConfig
/var/folders/lp/0dm50ddn51vc39svyzv_6fp00000gn/T//ccS91u3A.s:356    .text:00000000000000e4 $d
/var/folders/lp/0dm50ddn51vc39svyzv_6fp00000gn/T//ccS91u3A.s:360    .text:00000000000000e8 $t
/var/folders/lp/0dm50ddn51vc39svyzv_6fp00000gn/T//ccS91u3A.s:365    .text:00000000000000e8 RCC_GetSYSCLKSource
/var/folders/lp/0dm50ddn51vc39svyzv_6fp00000gn/T//ccS91u3A.s:381    .text:00000000000000f4 $d
/var/folders/lp/0dm50ddn51vc39svyzv_6fp00000gn/T//ccS91u3A.s:385    .text:00000000000000f8 $t
/var/folders/lp/0dm50ddn51vc39svyzv_6fp00000gn/T//ccS91u3A.s:390    .text:00000000000000f8 RCC_HCLKConfig
/var/folders/lp/0dm50ddn51vc39svyzv_6fp00000gn/T//ccS91u3A.s:414    .text:0000000000000108 $d
/var/folders/lp/0dm50ddn51vc39svyzv_6fp00000gn/T//ccS91u3A.s:418    .text:000000000000010c $t
/var/folders/lp/0dm50ddn51vc39svyzv_6fp00000gn/T//ccS91u3A.s:423    .text:000000000000010c RCC_PCLK1Config
/var/folders/lp/0dm50ddn51vc39svyzv_6fp00000gn/T//ccS91u3A.s:447    .text:000000000000011c $d
/var/folders/lp/0dm50ddn51vc39svyzv_6fp00000gn/T//ccS91u3A.s:451    .text:0000000000000120 $t
/var/folders/lp/0dm50ddn51vc39svyzv_6fp00000gn/T//ccS91u3A.s:456    .text:0000000000000120 RCC_PCLK2Config
/var/folders/lp/0dm50ddn51vc39svyzv_6fp00000gn/T//ccS91u3A.s:480    .text:0000000000000130 $d
/var/folders/lp/0dm50ddn51vc39svyzv_6fp00000gn/T//ccS91u3A.s:484    .text:0000000000000134 $t
/var/folders/lp/0dm50ddn51vc39svyzv_6fp00000gn/T//ccS91u3A.s:489    .text:0000000000000134 RCC_ITConfig
/var/folders/lp/0dm50ddn51vc39svyzv_6fp00000gn/T//ccS91u3A.s:517    .text:0000000000000148 $d
/var/folders/lp/0dm50ddn51vc39svyzv_6fp00000gn/T//ccS91u3A.s:521    .text:000000000000014c $t
/var/folders/lp/0dm50ddn51vc39svyzv_6fp00000gn/T//ccS91u3A.s:526    .text:000000000000014c RCC_USBCLKConfig
/var/folders/lp/0dm50ddn51vc39svyzv_6fp00000gn/T//ccS91u3A.s:541    .text:0000000000000154 $d
/var/folders/lp/0dm50ddn51vc39svyzv_6fp00000gn/T//ccS91u3A.s:545    .text:0000000000000158 $t
/var/folders/lp/0dm50ddn51vc39svyzv_6fp00000gn/T//ccS91u3A.s:550    .text:0000000000000158 RCC_ADCCLKConfig
/var/folders/lp/0dm50ddn51vc39svyzv_6fp00000gn/T//ccS91u3A.s:574    .text:0000000000000168 $d
/var/folders/lp/0dm50ddn51vc39svyzv_6fp00000gn/T//ccS91u3A.s:578    .text:000000000000016c $t
/var/folders/lp/0dm50ddn51vc39svyzv_6fp00000gn/T//ccS91u3A.s:583    .text:000000000000016c RCC_LSEConfig
/var/folders/lp/0dm50ddn51vc39svyzv_6fp00000gn/T//ccS91u3A.s:618    .text:0000000000000188 $d
/var/folders/lp/0dm50ddn51vc39svyzv_6fp00000gn/T//ccS91u3A.s:622    .text:000000000000018c $t
/var/folders/lp/0dm50ddn51vc39svyzv_6fp00000gn/T//ccS91u3A.s:627    .text:000000000000018c RCC_LSICmd
/var/folders/lp/0dm50ddn51vc39svyzv_6fp00000gn/T//ccS91u3A.s:642    .text:0000000000000194 $d
/var/folders/lp/0dm50ddn51vc39svyzv_6fp00000gn/T//ccS91u3A.s:646    .text:0000000000000198 $t
/var/folders/lp/0dm50ddn51vc39svyzv_6fp00000gn/T//ccS91u3A.s:651    .text:0000000000000198 RCC_RTCCLKConfig
/var/folders/lp/0dm50ddn51vc39svyzv_6fp00000gn/T//ccS91u3A.s:669    .text:00000000000001a4 $d
/var/folders/lp/0dm50ddn51vc39svyzv_6fp00000gn/T//ccS91u3A.s:673    .text:00000000000001a8 $t
ARM GAS  /var/folders/lp/0dm50ddn51vc39svyzv_6fp00000gn/T//ccS91u3A.s 			page 106


/var/folders/lp/0dm50ddn51vc39svyzv_6fp00000gn/T//ccS91u3A.s:678    .text:00000000000001a8 RCC_RTCCLKCmd
/var/folders/lp/0dm50ddn51vc39svyzv_6fp00000gn/T//ccS91u3A.s:693    .text:00000000000001b0 $d
/var/folders/lp/0dm50ddn51vc39svyzv_6fp00000gn/T//ccS91u3A.s:697    .text:00000000000001b4 $t
/var/folders/lp/0dm50ddn51vc39svyzv_6fp00000gn/T//ccS91u3A.s:702    .text:00000000000001b4 RCC_GetClocksFreq
/var/folders/lp/0dm50ddn51vc39svyzv_6fp00000gn/T//ccS91u3A.s:824    .text:000000000000022c $d
/var/folders/lp/0dm50ddn51vc39svyzv_6fp00000gn/T//ccS91u3A.s:831    .text:000000000000023c $t
/var/folders/lp/0dm50ddn51vc39svyzv_6fp00000gn/T//ccS91u3A.s:836    .text:000000000000023c RCC_AHBPeriphClockCmd
/var/folders/lp/0dm50ddn51vc39svyzv_6fp00000gn/T//ccS91u3A.s:864    .text:0000000000000250 $d
/var/folders/lp/0dm50ddn51vc39svyzv_6fp00000gn/T//ccS91u3A.s:868    .text:0000000000000254 $t
/var/folders/lp/0dm50ddn51vc39svyzv_6fp00000gn/T//ccS91u3A.s:873    .text:0000000000000254 RCC_APB2PeriphClockCmd
/var/folders/lp/0dm50ddn51vc39svyzv_6fp00000gn/T//ccS91u3A.s:901    .text:0000000000000268 $d
/var/folders/lp/0dm50ddn51vc39svyzv_6fp00000gn/T//ccS91u3A.s:905    .text:000000000000026c $t
/var/folders/lp/0dm50ddn51vc39svyzv_6fp00000gn/T//ccS91u3A.s:910    .text:000000000000026c RCC_APB1PeriphClockCmd
/var/folders/lp/0dm50ddn51vc39svyzv_6fp00000gn/T//ccS91u3A.s:938    .text:0000000000000280 $d
/var/folders/lp/0dm50ddn51vc39svyzv_6fp00000gn/T//ccS91u3A.s:942    .text:0000000000000284 $t
/var/folders/lp/0dm50ddn51vc39svyzv_6fp00000gn/T//ccS91u3A.s:947    .text:0000000000000284 RCC_APB2PeriphResetCmd
/var/folders/lp/0dm50ddn51vc39svyzv_6fp00000gn/T//ccS91u3A.s:975    .text:0000000000000298 $d
/var/folders/lp/0dm50ddn51vc39svyzv_6fp00000gn/T//ccS91u3A.s:979    .text:000000000000029c $t
/var/folders/lp/0dm50ddn51vc39svyzv_6fp00000gn/T//ccS91u3A.s:984    .text:000000000000029c RCC_APB1PeriphResetCmd
/var/folders/lp/0dm50ddn51vc39svyzv_6fp00000gn/T//ccS91u3A.s:1012   .text:00000000000002b0 $d
/var/folders/lp/0dm50ddn51vc39svyzv_6fp00000gn/T//ccS91u3A.s:1016   .text:00000000000002b4 $t
/var/folders/lp/0dm50ddn51vc39svyzv_6fp00000gn/T//ccS91u3A.s:1021   .text:00000000000002b4 RCC_BackupResetCmd
/var/folders/lp/0dm50ddn51vc39svyzv_6fp00000gn/T//ccS91u3A.s:1036   .text:00000000000002bc $d
/var/folders/lp/0dm50ddn51vc39svyzv_6fp00000gn/T//ccS91u3A.s:1040   .text:00000000000002c0 $t
/var/folders/lp/0dm50ddn51vc39svyzv_6fp00000gn/T//ccS91u3A.s:1045   .text:00000000000002c0 RCC_ClockSecuritySystemCmd
/var/folders/lp/0dm50ddn51vc39svyzv_6fp00000gn/T//ccS91u3A.s:1060   .text:00000000000002c8 $d
/var/folders/lp/0dm50ddn51vc39svyzv_6fp00000gn/T//ccS91u3A.s:1064   .text:00000000000002cc $t
/var/folders/lp/0dm50ddn51vc39svyzv_6fp00000gn/T//ccS91u3A.s:1069   .text:00000000000002cc RCC_MCOConfig
/var/folders/lp/0dm50ddn51vc39svyzv_6fp00000gn/T//ccS91u3A.s:1084   .text:00000000000002d4 $d
/var/folders/lp/0dm50ddn51vc39svyzv_6fp00000gn/T//ccS91u3A.s:1088   .text:00000000000002d8 $t
/var/folders/lp/0dm50ddn51vc39svyzv_6fp00000gn/T//ccS91u3A.s:1093   .text:00000000000002d8 RCC_GetFlagStatus
/var/folders/lp/0dm50ddn51vc39svyzv_6fp00000gn/T//ccS91u3A.s:1134   .text:00000000000002fc $d
/var/folders/lp/0dm50ddn51vc39svyzv_6fp00000gn/T//ccS91u3A.s:1138   .text:0000000000000300 $t
/var/folders/lp/0dm50ddn51vc39svyzv_6fp00000gn/T//ccS91u3A.s:1143   .text:0000000000000300 RCC_WaitForHSEStartUp
/var/folders/lp/0dm50ddn51vc39svyzv_6fp00000gn/T//ccS91u3A.s:1197   .text:0000000000000330 RCC_ClearFlag
/var/folders/lp/0dm50ddn51vc39svyzv_6fp00000gn/T//ccS91u3A.s:1213   .text:000000000000033c $d
/var/folders/lp/0dm50ddn51vc39svyzv_6fp00000gn/T//ccS91u3A.s:1217   .text:0000000000000340 $t
/var/folders/lp/0dm50ddn51vc39svyzv_6fp00000gn/T//ccS91u3A.s:1222   .text:0000000000000340 RCC_GetITStatus
/var/folders/lp/0dm50ddn51vc39svyzv_6fp00000gn/T//ccS91u3A.s:1245   .text:0000000000000350 $d
/var/folders/lp/0dm50ddn51vc39svyzv_6fp00000gn/T//ccS91u3A.s:1249   .text:0000000000000354 $t
/var/folders/lp/0dm50ddn51vc39svyzv_6fp00000gn/T//ccS91u3A.s:1254   .text:0000000000000354 RCC_ClearITPendingBit
/var/folders/lp/0dm50ddn51vc39svyzv_6fp00000gn/T//ccS91u3A.s:1269   .text:000000000000035c $d
/var/folders/lp/0dm50ddn51vc39svyzv_6fp00000gn/T//ccS91u3A.s:1277   .data:0000000000000000 APBAHBPrescTable
/var/folders/lp/0dm50ddn51vc39svyzv_6fp00000gn/T//ccS91u3A.s:1296   .data:0000000000000010 ADCPrescTable
                     .debug_frame:0000000000000010 $d

NO UNDEFINED SYMBOLS
