ARM GAS  /var/folders/lp/0dm50ddn51vc39svyzv_6fp00000gn/T//ccLUgEfv.s 			page 1


   1              		.syntax unified
   2              		.cpu cortex-m3
   3              		.fpu softvfp
   4              		.eabi_attribute 20, 1	@ Tag_ABI_FP_denormal
   5              		.eabi_attribute 21, 1	@ Tag_ABI_FP_exceptions
   6              		.eabi_attribute 23, 3	@ Tag_ABI_FP_number_model
   7              		.eabi_attribute 24, 1	@ Tag_ABI_align8_needed
   8              		.eabi_attribute 25, 1	@ Tag_ABI_align8_preserved
   9              		.eabi_attribute 26, 1	@ Tag_ABI_enum_size
  10              		.eabi_attribute 30, 4	@ Tag_ABI_optimization_goals
  11              		.eabi_attribute 34, 1	@ Tag_CPU_unaligned_access
  12              		.eabi_attribute 18, 4	@ Tag_ABI_PCS_wchar_t
  13              		.file	"stm32f10x_usart.c"
  14              	@ GNU C11 (GNU Tools for ARM Embedded Processors) version 5.4.1 20160919 (release) [ARM/embedded-5-
  15              	@	compiled by GNU C version 4.2.1 (Based on Apple Inc. build 5658) (LLVM build 2336.9.00), GMP vers
  16              	@ GGC heuristics: --param ggc-min-expand=100 --param ggc-min-heapsize=131072
  17              	@ options passed:  -I . -I ./user -I ./Libraries/CMSIS/CM3/CoreSupport
  18              	@ -I ./Libraries/CMSIS/CM3/DeviceSupport/ST/STM32F10x
  19              	@ -I ./Libraries/STM32F10x_StdPeriph_Driver/inc
  20              	@ -I ./Libraries/STM32F10x_StdPeriph_Driver -imultilib armv7-m
  21              	@ -iprefix /usr/local/share/gcc-arm-none-eabi-5_4-2016q3/bin/../lib/gcc/arm-none-eabi/5.4.1/
  22              	@ -isysroot /usr/local/share/gcc-arm-none-eabi-5_4-2016q3/bin/../arm-none-eabi
  23              	@ -D__USES_INITFINI__ -D STM32F10X_MD_VL -D USE_STDPERIPH_DRIVER
  24              	@ -D HSE_VALUE=8000000 -D RUN_FROM_FLASH=1
  25              	@ Libraries/STM32F10x_StdPeriph_Driver/src/stm32f10x_usart.c
  26              	@ -mcpu=cortex-m3 -mthumb
  27              	@ -auxbase-strip Libraries/STM32F10x_StdPeriph_Driver/src/stm32f10x_usart.o
  28              	@ -g -gdwarf-2 -Os -Wall -fomit-frame-pointer -fverbose-asm
  29              	@ options enabled:  -faggressive-loop-optimizations -falign-functions
  30              	@ -falign-jumps -falign-labels -falign-loops -fauto-inc-dec
  31              	@ -fbranch-count-reg -fcaller-saves -fchkp-check-incomplete-type
  32              	@ -fchkp-check-read -fchkp-check-write -fchkp-instrument-calls
  33              	@ -fchkp-narrow-bounds -fchkp-optimize -fchkp-store-bounds
  34              	@ -fchkp-use-static-bounds -fchkp-use-static-const-bounds
  35              	@ -fchkp-use-wrappers -fcombine-stack-adjustments -fcommon -fcompare-elim
  36              	@ -fcprop-registers -fcrossjumping -fcse-follow-jumps -fdefer-pop
  37              	@ -fdelete-null-pointer-checks -fdevirtualize -fdevirtualize-speculatively
  38              	@ -fdwarf2-cfi-asm -fearly-inlining -feliminate-unused-debug-types
  39              	@ -fexpensive-optimizations -fforward-propagate -ffunction-cse -fgcse
  40              	@ -fgcse-lm -fgnu-runtime -fgnu-unique -fguess-branch-probability
  41              	@ -fhoist-adjacent-loads -fident -fif-conversion -fif-conversion2
  42              	@ -findirect-inlining -finline -finline-atomics -finline-functions
  43              	@ -finline-functions-called-once -finline-small-functions -fipa-cp
  44              	@ -fipa-cp-alignment -fipa-icf -fipa-icf-functions -fipa-icf-variables
  45              	@ -fipa-profile -fipa-pure-const -fipa-ra -fipa-reference -fipa-sra
  46              	@ -fira-hoist-pressure -fira-share-save-slots -fira-share-spill-slots
  47              	@ -fisolate-erroneous-paths-dereference -fivopts -fkeep-static-consts
  48              	@ -fleading-underscore -flifetime-dse -flra-remat -flto-odr-type-merging
  49              	@ -fmath-errno -fmerge-constants -fmerge-debug-strings
  50              	@ -fmove-loop-invariants -fomit-frame-pointer -foptimize-sibling-calls
  51              	@ -fpartial-inlining -fpeephole -fpeephole2 -fprefetch-loop-arrays
  52              	@ -freg-struct-return -freorder-blocks -freorder-functions
  53              	@ -frerun-cse-after-loop -fsched-critical-path-heuristic
  54              	@ -fsched-dep-count-heuristic -fsched-group-heuristic -fsched-interblock
  55              	@ -fsched-last-insn-heuristic -fsched-pressure -fsched-rank-heuristic
  56              	@ -fsched-spec -fsched-spec-insn-heuristic -fsched-stalled-insns-dep
  57              	@ -fschedule-insns2 -fsection-anchors -fsemantic-interposition
ARM GAS  /var/folders/lp/0dm50ddn51vc39svyzv_6fp00000gn/T//ccLUgEfv.s 			page 2


  58              	@ -fshow-column -fsigned-zeros -fsplit-ivs-in-unroller -fsplit-wide-types
  59              	@ -fssa-phiopt -fstdarg-opt -fstrict-aliasing -fstrict-overflow
  60              	@ -fstrict-volatile-bitfields -fsync-libcalls -fthread-jumps
  61              	@ -ftoplevel-reorder -ftrapping-math -ftree-bit-ccp -ftree-builtin-call-dce
  62              	@ -ftree-ccp -ftree-ch -ftree-coalesce-vars -ftree-copy-prop
  63              	@ -ftree-copyrename -ftree-cselim -ftree-dce -ftree-dominator-opts
  64              	@ -ftree-dse -ftree-forwprop -ftree-fre -ftree-loop-if-convert
  65              	@ -ftree-loop-im -ftree-loop-ivcanon -ftree-loop-optimize
  66              	@ -ftree-parallelize-loops= -ftree-phiprop -ftree-pre -ftree-pta
  67              	@ -ftree-reassoc -ftree-scev-cprop -ftree-sink -ftree-slsr -ftree-sra
  68              	@ -ftree-switch-conversion -ftree-tail-merge -ftree-ter -ftree-vrp
  69              	@ -funit-at-a-time -fvar-tracking -fvar-tracking-assignments -fverbose-asm
  70              	@ -fzero-initialized-in-bss -masm-syntax-unified -mfix-cortex-m3-ldrd
  71              	@ -mlittle-endian -mpic-data-is-text-relative -msched-prolog -mthumb
  72              	@ -munaligned-access -mvectorize-with-neon-quad
  73              	
  74              		.text
  75              	.Ltext0:
  76              		.cfi_sections	.debug_frame
  77              		.align	1
  78              		.global	USART_DeInit
  79              		.thumb
  80              		.thumb_func
  81              		.type	USART_DeInit, %function
  82              	USART_DeInit:
  83              	.LFB29:
  84              		.file 1 "Libraries/STM32F10x_StdPeriph_Driver/src/stm32f10x_usart.c"
   1:Libraries/STM32F10x_StdPeriph_Driver/src/stm32f10x_usart.c **** /**
   2:Libraries/STM32F10x_StdPeriph_Driver/src/stm32f10x_usart.c ****   ******************************************************************************
   3:Libraries/STM32F10x_StdPeriph_Driver/src/stm32f10x_usart.c ****   * @file    stm32f10x_usart.c
   4:Libraries/STM32F10x_StdPeriph_Driver/src/stm32f10x_usart.c ****   * @author  MCD Application Team
   5:Libraries/STM32F10x_StdPeriph_Driver/src/stm32f10x_usart.c ****   * @version V3.5.0
   6:Libraries/STM32F10x_StdPeriph_Driver/src/stm32f10x_usart.c ****   * @date    11-March-2011
   7:Libraries/STM32F10x_StdPeriph_Driver/src/stm32f10x_usart.c ****   * @brief   This file provides all the USART firmware functions.
   8:Libraries/STM32F10x_StdPeriph_Driver/src/stm32f10x_usart.c ****   ******************************************************************************
   9:Libraries/STM32F10x_StdPeriph_Driver/src/stm32f10x_usart.c ****   * @attention
  10:Libraries/STM32F10x_StdPeriph_Driver/src/stm32f10x_usart.c ****   *
  11:Libraries/STM32F10x_StdPeriph_Driver/src/stm32f10x_usart.c ****   * THE PRESENT FIRMWARE WHICH IS FOR GUIDANCE ONLY AIMS AT PROVIDING CUSTOMERS
  12:Libraries/STM32F10x_StdPeriph_Driver/src/stm32f10x_usart.c ****   * WITH CODING INFORMATION REGARDING THEIR PRODUCTS IN ORDER FOR THEM TO SAVE
  13:Libraries/STM32F10x_StdPeriph_Driver/src/stm32f10x_usart.c ****   * TIME. AS A RESULT, STMICROELECTRONICS SHALL NOT BE HELD LIABLE FOR ANY
  14:Libraries/STM32F10x_StdPeriph_Driver/src/stm32f10x_usart.c ****   * DIRECT, INDIRECT OR CONSEQUENTIAL DAMAGES WITH RESPECT TO ANY CLAIMS ARISING
  15:Libraries/STM32F10x_StdPeriph_Driver/src/stm32f10x_usart.c ****   * FROM THE CONTENT OF SUCH FIRMWARE AND/OR THE USE MADE BY CUSTOMERS OF THE
  16:Libraries/STM32F10x_StdPeriph_Driver/src/stm32f10x_usart.c ****   * CODING INFORMATION CONTAINED HEREIN IN CONNECTION WITH THEIR PRODUCTS.
  17:Libraries/STM32F10x_StdPeriph_Driver/src/stm32f10x_usart.c ****   *
  18:Libraries/STM32F10x_StdPeriph_Driver/src/stm32f10x_usart.c ****   * <h2><center>&copy; COPYRIGHT 2011 STMicroelectronics</center></h2>
  19:Libraries/STM32F10x_StdPeriph_Driver/src/stm32f10x_usart.c ****   ******************************************************************************
  20:Libraries/STM32F10x_StdPeriph_Driver/src/stm32f10x_usart.c ****   */
  21:Libraries/STM32F10x_StdPeriph_Driver/src/stm32f10x_usart.c **** 
  22:Libraries/STM32F10x_StdPeriph_Driver/src/stm32f10x_usart.c **** /* Includes ------------------------------------------------------------------*/
  23:Libraries/STM32F10x_StdPeriph_Driver/src/stm32f10x_usart.c **** #include "stm32f10x_usart.h"
  24:Libraries/STM32F10x_StdPeriph_Driver/src/stm32f10x_usart.c **** #include "stm32f10x_rcc.h"
  25:Libraries/STM32F10x_StdPeriph_Driver/src/stm32f10x_usart.c **** 
  26:Libraries/STM32F10x_StdPeriph_Driver/src/stm32f10x_usart.c **** /** @addtogroup STM32F10x_StdPeriph_Driver
  27:Libraries/STM32F10x_StdPeriph_Driver/src/stm32f10x_usart.c ****   * @{
  28:Libraries/STM32F10x_StdPeriph_Driver/src/stm32f10x_usart.c ****   */
  29:Libraries/STM32F10x_StdPeriph_Driver/src/stm32f10x_usart.c **** 
  30:Libraries/STM32F10x_StdPeriph_Driver/src/stm32f10x_usart.c **** /** @defgroup USART 
ARM GAS  /var/folders/lp/0dm50ddn51vc39svyzv_6fp00000gn/T//ccLUgEfv.s 			page 3


  31:Libraries/STM32F10x_StdPeriph_Driver/src/stm32f10x_usart.c ****   * @brief USART driver modules
  32:Libraries/STM32F10x_StdPeriph_Driver/src/stm32f10x_usart.c ****   * @{
  33:Libraries/STM32F10x_StdPeriph_Driver/src/stm32f10x_usart.c ****   */
  34:Libraries/STM32F10x_StdPeriph_Driver/src/stm32f10x_usart.c **** 
  35:Libraries/STM32F10x_StdPeriph_Driver/src/stm32f10x_usart.c **** /** @defgroup USART_Private_TypesDefinitions
  36:Libraries/STM32F10x_StdPeriph_Driver/src/stm32f10x_usart.c ****   * @{
  37:Libraries/STM32F10x_StdPeriph_Driver/src/stm32f10x_usart.c ****   */
  38:Libraries/STM32F10x_StdPeriph_Driver/src/stm32f10x_usart.c **** 
  39:Libraries/STM32F10x_StdPeriph_Driver/src/stm32f10x_usart.c **** /**
  40:Libraries/STM32F10x_StdPeriph_Driver/src/stm32f10x_usart.c ****   * @}
  41:Libraries/STM32F10x_StdPeriph_Driver/src/stm32f10x_usart.c ****   */
  42:Libraries/STM32F10x_StdPeriph_Driver/src/stm32f10x_usart.c **** 
  43:Libraries/STM32F10x_StdPeriph_Driver/src/stm32f10x_usart.c **** /** @defgroup USART_Private_Defines
  44:Libraries/STM32F10x_StdPeriph_Driver/src/stm32f10x_usart.c ****   * @{
  45:Libraries/STM32F10x_StdPeriph_Driver/src/stm32f10x_usart.c ****   */
  46:Libraries/STM32F10x_StdPeriph_Driver/src/stm32f10x_usart.c **** 
  47:Libraries/STM32F10x_StdPeriph_Driver/src/stm32f10x_usart.c **** #define CR1_UE_Set                ((uint16_t)0x2000)  /*!< USART Enable Mask */
  48:Libraries/STM32F10x_StdPeriph_Driver/src/stm32f10x_usart.c **** #define CR1_UE_Reset              ((uint16_t)0xDFFF)  /*!< USART Disable Mask */
  49:Libraries/STM32F10x_StdPeriph_Driver/src/stm32f10x_usart.c **** 
  50:Libraries/STM32F10x_StdPeriph_Driver/src/stm32f10x_usart.c **** #define CR1_WAKE_Mask             ((uint16_t)0xF7FF)  /*!< USART WakeUp Method Mask */
  51:Libraries/STM32F10x_StdPeriph_Driver/src/stm32f10x_usart.c **** 
  52:Libraries/STM32F10x_StdPeriph_Driver/src/stm32f10x_usart.c **** #define CR1_RWU_Set               ((uint16_t)0x0002)  /*!< USART mute mode Enable Mask */
  53:Libraries/STM32F10x_StdPeriph_Driver/src/stm32f10x_usart.c **** #define CR1_RWU_Reset             ((uint16_t)0xFFFD)  /*!< USART mute mode Enable Mask */
  54:Libraries/STM32F10x_StdPeriph_Driver/src/stm32f10x_usart.c **** #define CR1_SBK_Set               ((uint16_t)0x0001)  /*!< USART Break Character send Mask */
  55:Libraries/STM32F10x_StdPeriph_Driver/src/stm32f10x_usart.c **** #define CR1_CLEAR_Mask            ((uint16_t)0xE9F3)  /*!< USART CR1 Mask */
  56:Libraries/STM32F10x_StdPeriph_Driver/src/stm32f10x_usart.c **** #define CR2_Address_Mask          ((uint16_t)0xFFF0)  /*!< USART address Mask */
  57:Libraries/STM32F10x_StdPeriph_Driver/src/stm32f10x_usart.c **** 
  58:Libraries/STM32F10x_StdPeriph_Driver/src/stm32f10x_usart.c **** #define CR2_LINEN_Set              ((uint16_t)0x4000)  /*!< USART LIN Enable Mask */
  59:Libraries/STM32F10x_StdPeriph_Driver/src/stm32f10x_usart.c **** #define CR2_LINEN_Reset            ((uint16_t)0xBFFF)  /*!< USART LIN Disable Mask */
  60:Libraries/STM32F10x_StdPeriph_Driver/src/stm32f10x_usart.c **** 
  61:Libraries/STM32F10x_StdPeriph_Driver/src/stm32f10x_usart.c **** #define CR2_LBDL_Mask             ((uint16_t)0xFFDF)  /*!< USART LIN Break detection Mask */
  62:Libraries/STM32F10x_StdPeriph_Driver/src/stm32f10x_usart.c **** #define CR2_STOP_CLEAR_Mask       ((uint16_t)0xCFFF)  /*!< USART CR2 STOP Bits Mask */
  63:Libraries/STM32F10x_StdPeriph_Driver/src/stm32f10x_usart.c **** #define CR2_CLOCK_CLEAR_Mask      ((uint16_t)0xF0FF)  /*!< USART CR2 Clock Mask */
  64:Libraries/STM32F10x_StdPeriph_Driver/src/stm32f10x_usart.c **** 
  65:Libraries/STM32F10x_StdPeriph_Driver/src/stm32f10x_usart.c **** #define CR3_SCEN_Set              ((uint16_t)0x0020)  /*!< USART SC Enable Mask */
  66:Libraries/STM32F10x_StdPeriph_Driver/src/stm32f10x_usart.c **** #define CR3_SCEN_Reset            ((uint16_t)0xFFDF)  /*!< USART SC Disable Mask */
  67:Libraries/STM32F10x_StdPeriph_Driver/src/stm32f10x_usart.c **** 
  68:Libraries/STM32F10x_StdPeriph_Driver/src/stm32f10x_usart.c **** #define CR3_NACK_Set              ((uint16_t)0x0010)  /*!< USART SC NACK Enable Mask */
  69:Libraries/STM32F10x_StdPeriph_Driver/src/stm32f10x_usart.c **** #define CR3_NACK_Reset            ((uint16_t)0xFFEF)  /*!< USART SC NACK Disable Mask */
  70:Libraries/STM32F10x_StdPeriph_Driver/src/stm32f10x_usart.c **** 
  71:Libraries/STM32F10x_StdPeriph_Driver/src/stm32f10x_usart.c **** #define CR3_HDSEL_Set             ((uint16_t)0x0008)  /*!< USART Half-Duplex Enable Mask */
  72:Libraries/STM32F10x_StdPeriph_Driver/src/stm32f10x_usart.c **** #define CR3_HDSEL_Reset           ((uint16_t)0xFFF7)  /*!< USART Half-Duplex Disable Mask */
  73:Libraries/STM32F10x_StdPeriph_Driver/src/stm32f10x_usart.c **** 
  74:Libraries/STM32F10x_StdPeriph_Driver/src/stm32f10x_usart.c **** #define CR3_IRLP_Mask             ((uint16_t)0xFFFB)  /*!< USART IrDA LowPower mode Mask */
  75:Libraries/STM32F10x_StdPeriph_Driver/src/stm32f10x_usart.c **** #define CR3_CLEAR_Mask            ((uint16_t)0xFCFF)  /*!< USART CR3 Mask */
  76:Libraries/STM32F10x_StdPeriph_Driver/src/stm32f10x_usart.c **** 
  77:Libraries/STM32F10x_StdPeriph_Driver/src/stm32f10x_usart.c **** #define CR3_IREN_Set              ((uint16_t)0x0002)  /*!< USART IrDA Enable Mask */
  78:Libraries/STM32F10x_StdPeriph_Driver/src/stm32f10x_usart.c **** #define CR3_IREN_Reset            ((uint16_t)0xFFFD)  /*!< USART IrDA Disable Mask */
  79:Libraries/STM32F10x_StdPeriph_Driver/src/stm32f10x_usart.c **** #define GTPR_LSB_Mask             ((uint16_t)0x00FF)  /*!< Guard Time Register LSB Mask */
  80:Libraries/STM32F10x_StdPeriph_Driver/src/stm32f10x_usart.c **** #define GTPR_MSB_Mask             ((uint16_t)0xFF00)  /*!< Guard Time Register MSB Mask */
  81:Libraries/STM32F10x_StdPeriph_Driver/src/stm32f10x_usart.c **** #define IT_Mask                   ((uint16_t)0x001F)  /*!< USART Interrupt Mask */
  82:Libraries/STM32F10x_StdPeriph_Driver/src/stm32f10x_usart.c **** 
  83:Libraries/STM32F10x_StdPeriph_Driver/src/stm32f10x_usart.c **** /* USART OverSampling-8 Mask */
  84:Libraries/STM32F10x_StdPeriph_Driver/src/stm32f10x_usart.c **** #define CR1_OVER8_Set             ((u16)0x8000)  /* USART OVER8 mode Enable Mask */
  85:Libraries/STM32F10x_StdPeriph_Driver/src/stm32f10x_usart.c **** #define CR1_OVER8_Reset           ((u16)0x7FFF)  /* USART OVER8 mode Disable Mask */
  86:Libraries/STM32F10x_StdPeriph_Driver/src/stm32f10x_usart.c **** 
  87:Libraries/STM32F10x_StdPeriph_Driver/src/stm32f10x_usart.c **** /* USART One Bit Sampling Mask */
ARM GAS  /var/folders/lp/0dm50ddn51vc39svyzv_6fp00000gn/T//ccLUgEfv.s 			page 4


  88:Libraries/STM32F10x_StdPeriph_Driver/src/stm32f10x_usart.c **** #define CR3_ONEBITE_Set           ((u16)0x0800)  /* USART ONEBITE mode Enable Mask */
  89:Libraries/STM32F10x_StdPeriph_Driver/src/stm32f10x_usart.c **** #define CR3_ONEBITE_Reset         ((u16)0xF7FF)  /* USART ONEBITE mode Disable Mask */
  90:Libraries/STM32F10x_StdPeriph_Driver/src/stm32f10x_usart.c **** 
  91:Libraries/STM32F10x_StdPeriph_Driver/src/stm32f10x_usart.c **** /**
  92:Libraries/STM32F10x_StdPeriph_Driver/src/stm32f10x_usart.c ****   * @}
  93:Libraries/STM32F10x_StdPeriph_Driver/src/stm32f10x_usart.c ****   */
  94:Libraries/STM32F10x_StdPeriph_Driver/src/stm32f10x_usart.c **** 
  95:Libraries/STM32F10x_StdPeriph_Driver/src/stm32f10x_usart.c **** /** @defgroup USART_Private_Macros
  96:Libraries/STM32F10x_StdPeriph_Driver/src/stm32f10x_usart.c ****   * @{
  97:Libraries/STM32F10x_StdPeriph_Driver/src/stm32f10x_usart.c ****   */
  98:Libraries/STM32F10x_StdPeriph_Driver/src/stm32f10x_usart.c **** 
  99:Libraries/STM32F10x_StdPeriph_Driver/src/stm32f10x_usart.c **** /**
 100:Libraries/STM32F10x_StdPeriph_Driver/src/stm32f10x_usart.c ****   * @}
 101:Libraries/STM32F10x_StdPeriph_Driver/src/stm32f10x_usart.c ****   */
 102:Libraries/STM32F10x_StdPeriph_Driver/src/stm32f10x_usart.c **** 
 103:Libraries/STM32F10x_StdPeriph_Driver/src/stm32f10x_usart.c **** /** @defgroup USART_Private_Variables
 104:Libraries/STM32F10x_StdPeriph_Driver/src/stm32f10x_usart.c ****   * @{
 105:Libraries/STM32F10x_StdPeriph_Driver/src/stm32f10x_usart.c ****   */
 106:Libraries/STM32F10x_StdPeriph_Driver/src/stm32f10x_usart.c **** 
 107:Libraries/STM32F10x_StdPeriph_Driver/src/stm32f10x_usart.c **** /**
 108:Libraries/STM32F10x_StdPeriph_Driver/src/stm32f10x_usart.c ****   * @}
 109:Libraries/STM32F10x_StdPeriph_Driver/src/stm32f10x_usart.c ****   */
 110:Libraries/STM32F10x_StdPeriph_Driver/src/stm32f10x_usart.c **** 
 111:Libraries/STM32F10x_StdPeriph_Driver/src/stm32f10x_usart.c **** /** @defgroup USART_Private_FunctionPrototypes
 112:Libraries/STM32F10x_StdPeriph_Driver/src/stm32f10x_usart.c ****   * @{
 113:Libraries/STM32F10x_StdPeriph_Driver/src/stm32f10x_usart.c ****   */
 114:Libraries/STM32F10x_StdPeriph_Driver/src/stm32f10x_usart.c **** 
 115:Libraries/STM32F10x_StdPeriph_Driver/src/stm32f10x_usart.c **** /**
 116:Libraries/STM32F10x_StdPeriph_Driver/src/stm32f10x_usart.c ****   * @}
 117:Libraries/STM32F10x_StdPeriph_Driver/src/stm32f10x_usart.c ****   */
 118:Libraries/STM32F10x_StdPeriph_Driver/src/stm32f10x_usart.c **** 
 119:Libraries/STM32F10x_StdPeriph_Driver/src/stm32f10x_usart.c **** /** @defgroup USART_Private_Functions
 120:Libraries/STM32F10x_StdPeriph_Driver/src/stm32f10x_usart.c ****   * @{
 121:Libraries/STM32F10x_StdPeriph_Driver/src/stm32f10x_usart.c ****   */
 122:Libraries/STM32F10x_StdPeriph_Driver/src/stm32f10x_usart.c **** 
 123:Libraries/STM32F10x_StdPeriph_Driver/src/stm32f10x_usart.c **** /**
 124:Libraries/STM32F10x_StdPeriph_Driver/src/stm32f10x_usart.c ****   * @brief  Deinitializes the USARTx peripheral registers to their default reset values.
 125:Libraries/STM32F10x_StdPeriph_Driver/src/stm32f10x_usart.c ****   * @param  USARTx: Select the USART or the UART peripheral. 
 126:Libraries/STM32F10x_StdPeriph_Driver/src/stm32f10x_usart.c ****   *   This parameter can be one of the following values: 
 127:Libraries/STM32F10x_StdPeriph_Driver/src/stm32f10x_usart.c ****   *      USART1, USART2, USART3, UART4 or UART5.
 128:Libraries/STM32F10x_StdPeriph_Driver/src/stm32f10x_usart.c ****   * @retval None
 129:Libraries/STM32F10x_StdPeriph_Driver/src/stm32f10x_usart.c ****   */
 130:Libraries/STM32F10x_StdPeriph_Driver/src/stm32f10x_usart.c **** void USART_DeInit(USART_TypeDef* USARTx)
 131:Libraries/STM32F10x_StdPeriph_Driver/src/stm32f10x_usart.c **** {
  85              		.loc 1 131 0
  86              		.cfi_startproc
  87              		@ args = 0, pretend = 0, frame = 0
  88              		@ frame_needed = 0, uses_anonymous_args = 0
  89              	.LVL0:
  90 0000 08B5     		push	{r3, lr}	@
  91              	.LCFI0:
  92              		.cfi_def_cfa_offset 8
  93              		.cfi_offset 3, -8
  94              		.cfi_offset 14, -4
 132:Libraries/STM32F10x_StdPeriph_Driver/src/stm32f10x_usart.c ****   /* Check the parameters */
 133:Libraries/STM32F10x_StdPeriph_Driver/src/stm32f10x_usart.c ****   assert_param(IS_USART_ALL_PERIPH(USARTx));
 134:Libraries/STM32F10x_StdPeriph_Driver/src/stm32f10x_usart.c **** 
ARM GAS  /var/folders/lp/0dm50ddn51vc39svyzv_6fp00000gn/T//ccLUgEfv.s 			page 5


 135:Libraries/STM32F10x_StdPeriph_Driver/src/stm32f10x_usart.c ****   if (USARTx == USART1)
  95              		.loc 1 135 0
  96 0002 214B     		ldr	r3, .L9	@ tmp111,
  97 0004 9842     		cmp	r0, r3	@ USARTx, tmp111
  98 0006 0BD1     		bne	.L2	@,
 136:Libraries/STM32F10x_StdPeriph_Driver/src/stm32f10x_usart.c ****   {
 137:Libraries/STM32F10x_StdPeriph_Driver/src/stm32f10x_usart.c ****     RCC_APB2PeriphResetCmd(RCC_APB2Periph_USART1, ENABLE);
  99              		.loc 1 137 0
 100 0008 0121     		movs	r1, #1	@,
 101 000a 4FF48040 		mov	r0, #16384	@,
 102              	.LVL1:
 103 000e FFF7FEFF 		bl	RCC_APB2PeriphResetCmd	@
 104              	.LVL2:
 138:Libraries/STM32F10x_StdPeriph_Driver/src/stm32f10x_usart.c ****     RCC_APB2PeriphResetCmd(RCC_APB2Periph_USART1, DISABLE);
 139:Libraries/STM32F10x_StdPeriph_Driver/src/stm32f10x_usart.c ****   }
 140:Libraries/STM32F10x_StdPeriph_Driver/src/stm32f10x_usart.c ****   else if (USARTx == USART2)
 141:Libraries/STM32F10x_StdPeriph_Driver/src/stm32f10x_usart.c ****   {
 142:Libraries/STM32F10x_StdPeriph_Driver/src/stm32f10x_usart.c ****     RCC_APB1PeriphResetCmd(RCC_APB1Periph_USART2, ENABLE);
 143:Libraries/STM32F10x_StdPeriph_Driver/src/stm32f10x_usart.c ****     RCC_APB1PeriphResetCmd(RCC_APB1Periph_USART2, DISABLE);
 144:Libraries/STM32F10x_StdPeriph_Driver/src/stm32f10x_usart.c ****   }
 145:Libraries/STM32F10x_StdPeriph_Driver/src/stm32f10x_usart.c ****   else if (USARTx == USART3)
 146:Libraries/STM32F10x_StdPeriph_Driver/src/stm32f10x_usart.c ****   {
 147:Libraries/STM32F10x_StdPeriph_Driver/src/stm32f10x_usart.c ****     RCC_APB1PeriphResetCmd(RCC_APB1Periph_USART3, ENABLE);
 148:Libraries/STM32F10x_StdPeriph_Driver/src/stm32f10x_usart.c ****     RCC_APB1PeriphResetCmd(RCC_APB1Periph_USART3, DISABLE);
 149:Libraries/STM32F10x_StdPeriph_Driver/src/stm32f10x_usart.c ****   }    
 150:Libraries/STM32F10x_StdPeriph_Driver/src/stm32f10x_usart.c ****   else if (USARTx == UART4)
 151:Libraries/STM32F10x_StdPeriph_Driver/src/stm32f10x_usart.c ****   {
 152:Libraries/STM32F10x_StdPeriph_Driver/src/stm32f10x_usart.c ****     RCC_APB1PeriphResetCmd(RCC_APB1Periph_UART4, ENABLE);
 153:Libraries/STM32F10x_StdPeriph_Driver/src/stm32f10x_usart.c ****     RCC_APB1PeriphResetCmd(RCC_APB1Periph_UART4, DISABLE);
 154:Libraries/STM32F10x_StdPeriph_Driver/src/stm32f10x_usart.c ****   }    
 155:Libraries/STM32F10x_StdPeriph_Driver/src/stm32f10x_usart.c ****   else
 156:Libraries/STM32F10x_StdPeriph_Driver/src/stm32f10x_usart.c ****   {
 157:Libraries/STM32F10x_StdPeriph_Driver/src/stm32f10x_usart.c ****     if (USARTx == UART5)
 158:Libraries/STM32F10x_StdPeriph_Driver/src/stm32f10x_usart.c ****     { 
 159:Libraries/STM32F10x_StdPeriph_Driver/src/stm32f10x_usart.c ****       RCC_APB1PeriphResetCmd(RCC_APB1Periph_UART5, ENABLE);
 160:Libraries/STM32F10x_StdPeriph_Driver/src/stm32f10x_usart.c ****       RCC_APB1PeriphResetCmd(RCC_APB1Periph_UART5, DISABLE);
 161:Libraries/STM32F10x_StdPeriph_Driver/src/stm32f10x_usart.c ****     }
 162:Libraries/STM32F10x_StdPeriph_Driver/src/stm32f10x_usart.c ****   }
 163:Libraries/STM32F10x_StdPeriph_Driver/src/stm32f10x_usart.c **** }
 105              		.loc 1 163 0
 106 0012 BDE80840 		pop	{r3, lr}	@
 107              	.LCFI1:
 108              		.cfi_remember_state
 109              		.cfi_restore 14
 110              		.cfi_restore 3
 111              		.cfi_def_cfa_offset 0
 138:Libraries/STM32F10x_StdPeriph_Driver/src/stm32f10x_usart.c ****     RCC_APB2PeriphResetCmd(RCC_APB2Periph_USART1, DISABLE);
 112              		.loc 1 138 0
 113 0016 0021     		movs	r1, #0	@,
 114 0018 4FF48040 		mov	r0, #16384	@,
 115 001c FFF7FEBF 		b	RCC_APB2PeriphResetCmd	@
 116              	.LVL3:
 117              	.L2:
 118              	.LCFI2:
 119              		.cfi_restore_state
 140:Libraries/STM32F10x_StdPeriph_Driver/src/stm32f10x_usart.c ****   {
 120              		.loc 1 140 0
ARM GAS  /var/folders/lp/0dm50ddn51vc39svyzv_6fp00000gn/T//ccLUgEfv.s 			page 6


 121 0020 1A4B     		ldr	r3, .L9+4	@ tmp112,
 122 0022 9842     		cmp	r0, r3	@ USARTx, tmp112
 123 0024 08D1     		bne	.L3	@,
 142:Libraries/STM32F10x_StdPeriph_Driver/src/stm32f10x_usart.c ****     RCC_APB1PeriphResetCmd(RCC_APB1Periph_USART2, DISABLE);
 124              		.loc 1 142 0
 125 0026 0121     		movs	r1, #1	@,
 126 0028 4FF40030 		mov	r0, #131072	@,
 127              	.LVL4:
 128 002c FFF7FEFF 		bl	RCC_APB1PeriphResetCmd	@
 129              	.LVL5:
 143:Libraries/STM32F10x_StdPeriph_Driver/src/stm32f10x_usart.c ****   }
 130              		.loc 1 143 0
 131 0030 0021     		movs	r1, #0	@,
 132 0032 4FF40030 		mov	r0, #131072	@,
 133 0036 22E0     		b	.L7	@
 134              	.LVL6:
 135              	.L3:
 145:Libraries/STM32F10x_StdPeriph_Driver/src/stm32f10x_usart.c ****   {
 136              		.loc 1 145 0
 137 0038 154B     		ldr	r3, .L9+8	@ tmp113,
 138 003a 9842     		cmp	r0, r3	@ USARTx, tmp113
 139 003c 08D1     		bne	.L4	@,
 147:Libraries/STM32F10x_StdPeriph_Driver/src/stm32f10x_usart.c ****     RCC_APB1PeriphResetCmd(RCC_APB1Periph_USART3, DISABLE);
 140              		.loc 1 147 0
 141 003e 0121     		movs	r1, #1	@,
 142 0040 4FF48020 		mov	r0, #262144	@,
 143              	.LVL7:
 144 0044 FFF7FEFF 		bl	RCC_APB1PeriphResetCmd	@
 145              	.LVL8:
 148:Libraries/STM32F10x_StdPeriph_Driver/src/stm32f10x_usart.c ****   }    
 146              		.loc 1 148 0
 147 0048 0021     		movs	r1, #0	@,
 148 004a 4FF48020 		mov	r0, #262144	@,
 149 004e 16E0     		b	.L7	@
 150              	.LVL9:
 151              	.L4:
 150:Libraries/STM32F10x_StdPeriph_Driver/src/stm32f10x_usart.c ****   {
 152              		.loc 1 150 0
 153 0050 104B     		ldr	r3, .L9+12	@ tmp114,
 154 0052 9842     		cmp	r0, r3	@ USARTx, tmp114
 155 0054 08D1     		bne	.L5	@,
 152:Libraries/STM32F10x_StdPeriph_Driver/src/stm32f10x_usart.c ****     RCC_APB1PeriphResetCmd(RCC_APB1Periph_UART4, DISABLE);
 156              		.loc 1 152 0
 157 0056 0121     		movs	r1, #1	@,
 158 0058 4FF40020 		mov	r0, #524288	@,
 159              	.LVL10:
 160 005c FFF7FEFF 		bl	RCC_APB1PeriphResetCmd	@
 161              	.LVL11:
 153:Libraries/STM32F10x_StdPeriph_Driver/src/stm32f10x_usart.c ****   }    
 162              		.loc 1 153 0
 163 0060 0021     		movs	r1, #0	@,
 164 0062 4FF40020 		mov	r0, #524288	@,
 165 0066 0AE0     		b	.L7	@
 166              	.LVL12:
 167              	.L5:
 157:Libraries/STM32F10x_StdPeriph_Driver/src/stm32f10x_usart.c ****     { 
 168              		.loc 1 157 0
ARM GAS  /var/folders/lp/0dm50ddn51vc39svyzv_6fp00000gn/T//ccLUgEfv.s 			page 7


 169 0068 0B4B     		ldr	r3, .L9+16	@ tmp115,
 170 006a 9842     		cmp	r0, r3	@ USARTx, tmp115
 171 006c 0BD1     		bne	.L1	@,
 159:Libraries/STM32F10x_StdPeriph_Driver/src/stm32f10x_usart.c ****       RCC_APB1PeriphResetCmd(RCC_APB1Periph_UART5, DISABLE);
 172              		.loc 1 159 0
 173 006e 0121     		movs	r1, #1	@,
 174 0070 4FF48010 		mov	r0, #1048576	@,
 175              	.LVL13:
 176 0074 FFF7FEFF 		bl	RCC_APB1PeriphResetCmd	@
 177              	.LVL14:
 160:Libraries/STM32F10x_StdPeriph_Driver/src/stm32f10x_usart.c ****     }
 178              		.loc 1 160 0
 179 0078 0021     		movs	r1, #0	@,
 180 007a 4FF48010 		mov	r0, #1048576	@,
 181              	.L7:
 182              		.loc 1 163 0
 183 007e BDE80840 		pop	{r3, lr}	@
 184              	.LCFI3:
 185              		.cfi_remember_state
 186              		.cfi_restore 14
 187              		.cfi_restore 3
 188              		.cfi_def_cfa_offset 0
 160:Libraries/STM32F10x_StdPeriph_Driver/src/stm32f10x_usart.c ****     }
 189              		.loc 1 160 0
 190 0082 FFF7FEBF 		b	RCC_APB1PeriphResetCmd	@
 191              	.LVL15:
 192              	.L1:
 193              	.LCFI4:
 194              		.cfi_restore_state
 195 0086 08BD     		pop	{r3, pc}	@
 196              	.L10:
 197              		.align	2
 198              	.L9:
 199 0088 00380140 		.word	1073821696
 200 008c 00440040 		.word	1073759232
 201 0090 00480040 		.word	1073760256
 202 0094 004C0040 		.word	1073761280
 203 0098 00500040 		.word	1073762304
 204              		.cfi_endproc
 205              	.LFE29:
 206              		.size	USART_DeInit, .-USART_DeInit
 207              		.align	1
 208              		.global	USART_Init
 209              		.thumb
 210              		.thumb_func
 211              		.type	USART_Init, %function
 212              	USART_Init:
 213              	.LFB30:
 164:Libraries/STM32F10x_StdPeriph_Driver/src/stm32f10x_usart.c **** 
 165:Libraries/STM32F10x_StdPeriph_Driver/src/stm32f10x_usart.c **** /**
 166:Libraries/STM32F10x_StdPeriph_Driver/src/stm32f10x_usart.c ****   * @brief  Initializes the USARTx peripheral according to the specified
 167:Libraries/STM32F10x_StdPeriph_Driver/src/stm32f10x_usart.c ****   *         parameters in the USART_InitStruct .
 168:Libraries/STM32F10x_StdPeriph_Driver/src/stm32f10x_usart.c ****   * @param  USARTx: Select the USART or the UART peripheral. 
 169:Libraries/STM32F10x_StdPeriph_Driver/src/stm32f10x_usart.c ****   *   This parameter can be one of the following values:
 170:Libraries/STM32F10x_StdPeriph_Driver/src/stm32f10x_usart.c ****   *   USART1, USART2, USART3, UART4 or UART5.
 171:Libraries/STM32F10x_StdPeriph_Driver/src/stm32f10x_usart.c ****   * @param  USART_InitStruct: pointer to a USART_InitTypeDef structure
 172:Libraries/STM32F10x_StdPeriph_Driver/src/stm32f10x_usart.c ****   *         that contains the configuration information for the specified USART 
ARM GAS  /var/folders/lp/0dm50ddn51vc39svyzv_6fp00000gn/T//ccLUgEfv.s 			page 8


 173:Libraries/STM32F10x_StdPeriph_Driver/src/stm32f10x_usart.c ****   *         peripheral.
 174:Libraries/STM32F10x_StdPeriph_Driver/src/stm32f10x_usart.c ****   * @retval None
 175:Libraries/STM32F10x_StdPeriph_Driver/src/stm32f10x_usart.c ****   */
 176:Libraries/STM32F10x_StdPeriph_Driver/src/stm32f10x_usart.c **** void USART_Init(USART_TypeDef* USARTx, USART_InitTypeDef* USART_InitStruct)
 177:Libraries/STM32F10x_StdPeriph_Driver/src/stm32f10x_usart.c **** {
 214              		.loc 1 177 0
 215              		.cfi_startproc
 216              		@ args = 0, pretend = 0, frame = 24
 217              		@ frame_needed = 0, uses_anonymous_args = 0
 218              	.LVL16:
 219 009c 70B5     		push	{r4, r5, r6, lr}	@
 220              	.LCFI5:
 221              		.cfi_def_cfa_offset 16
 222              		.cfi_offset 4, -16
 223              		.cfi_offset 5, -12
 224              		.cfi_offset 6, -8
 225              		.cfi_offset 14, -4
 226 009e 0E46     		mov	r6, r1	@ USART_InitStruct, USART_InitStruct
 227 00a0 0446     		mov	r4, r0	@ USARTx, USARTx
 178:Libraries/STM32F10x_StdPeriph_Driver/src/stm32f10x_usart.c ****   uint32_t tmpreg = 0x00, apbclock = 0x00;
 179:Libraries/STM32F10x_StdPeriph_Driver/src/stm32f10x_usart.c ****   uint32_t integerdivider = 0x00;
 180:Libraries/STM32F10x_StdPeriph_Driver/src/stm32f10x_usart.c ****   uint32_t fractionaldivider = 0x00;
 181:Libraries/STM32F10x_StdPeriph_Driver/src/stm32f10x_usart.c ****   uint32_t usartxbase = 0;
 182:Libraries/STM32F10x_StdPeriph_Driver/src/stm32f10x_usart.c ****   RCC_ClocksTypeDef RCC_ClocksStatus;
 183:Libraries/STM32F10x_StdPeriph_Driver/src/stm32f10x_usart.c ****   /* Check the parameters */
 184:Libraries/STM32F10x_StdPeriph_Driver/src/stm32f10x_usart.c ****   assert_param(IS_USART_ALL_PERIPH(USARTx));
 185:Libraries/STM32F10x_StdPeriph_Driver/src/stm32f10x_usart.c ****   assert_param(IS_USART_BAUDRATE(USART_InitStruct->USART_BaudRate));  
 186:Libraries/STM32F10x_StdPeriph_Driver/src/stm32f10x_usart.c ****   assert_param(IS_USART_WORD_LENGTH(USART_InitStruct->USART_WordLength));
 187:Libraries/STM32F10x_StdPeriph_Driver/src/stm32f10x_usart.c ****   assert_param(IS_USART_STOPBITS(USART_InitStruct->USART_StopBits));
 188:Libraries/STM32F10x_StdPeriph_Driver/src/stm32f10x_usart.c ****   assert_param(IS_USART_PARITY(USART_InitStruct->USART_Parity));
 189:Libraries/STM32F10x_StdPeriph_Driver/src/stm32f10x_usart.c ****   assert_param(IS_USART_MODE(USART_InitStruct->USART_Mode));
 190:Libraries/STM32F10x_StdPeriph_Driver/src/stm32f10x_usart.c ****   assert_param(IS_USART_HARDWARE_FLOW_CONTROL(USART_InitStruct->USART_HardwareFlowControl));
 191:Libraries/STM32F10x_StdPeriph_Driver/src/stm32f10x_usart.c ****   /* The hardware flow control is available only for USART1, USART2 and USART3 */
 192:Libraries/STM32F10x_StdPeriph_Driver/src/stm32f10x_usart.c ****   if (USART_InitStruct->USART_HardwareFlowControl != USART_HardwareFlowControl_None)
 193:Libraries/STM32F10x_StdPeriph_Driver/src/stm32f10x_usart.c ****   {
 194:Libraries/STM32F10x_StdPeriph_Driver/src/stm32f10x_usart.c ****     assert_param(IS_USART_123_PERIPH(USARTx));
 195:Libraries/STM32F10x_StdPeriph_Driver/src/stm32f10x_usart.c ****   }
 196:Libraries/STM32F10x_StdPeriph_Driver/src/stm32f10x_usart.c **** 
 197:Libraries/STM32F10x_StdPeriph_Driver/src/stm32f10x_usart.c ****   usartxbase = (uint32_t)USARTx;
 198:Libraries/STM32F10x_StdPeriph_Driver/src/stm32f10x_usart.c **** 
 199:Libraries/STM32F10x_StdPeriph_Driver/src/stm32f10x_usart.c **** /*---------------------------- USART CR2 Configuration -----------------------*/
 200:Libraries/STM32F10x_StdPeriph_Driver/src/stm32f10x_usart.c ****   tmpreg = USARTx->CR2;
 228              		.loc 1 200 0
 229 00a2 038A     		ldrh	r3, [r0, #16]	@, USARTx_11(D)->CR2
 230 00a4 CA88     		ldrh	r2, [r1, #6]	@ tmp162, USART_InitStruct_10(D)->USART_StopBits
 231 00a6 9BB2     		uxth	r3, r3	@ D.6980, USARTx_11(D)->CR2
 232              	.LVL17:
 233 00a8 23F44053 		bic	r3, r3, #12288	@ tmp159, D.6980,
 234              	.LVL18:
 235 00ac 1343     		orrs	r3, r3, r2	@, D.6980, tmp159, tmp162
 236              	.LVL19:
 201:Libraries/STM32F10x_StdPeriph_Driver/src/stm32f10x_usart.c ****   /* Clear STOP[13:12] bits */
 202:Libraries/STM32F10x_StdPeriph_Driver/src/stm32f10x_usart.c ****   tmpreg &= CR2_STOP_CLEAR_Mask;
 203:Libraries/STM32F10x_StdPeriph_Driver/src/stm32f10x_usart.c ****   /* Configure the USART Stop Bits, Clock, CPOL, CPHA and LastBit ------------*/
 204:Libraries/STM32F10x_StdPeriph_Driver/src/stm32f10x_usart.c ****   /* Set STOP[13:12] bits according to USART_StopBits value */
 205:Libraries/STM32F10x_StdPeriph_Driver/src/stm32f10x_usart.c ****   tmpreg |= (uint32_t)USART_InitStruct->USART_StopBits;
 206:Libraries/STM32F10x_StdPeriph_Driver/src/stm32f10x_usart.c ****   
ARM GAS  /var/folders/lp/0dm50ddn51vc39svyzv_6fp00000gn/T//ccLUgEfv.s 			page 9


 207:Libraries/STM32F10x_StdPeriph_Driver/src/stm32f10x_usart.c ****   /* Write to USART CR2 */
 208:Libraries/STM32F10x_StdPeriph_Driver/src/stm32f10x_usart.c ****   USARTx->CR2 = (uint16_t)tmpreg;
 237              		.loc 1 208 0
 238 00ae 0382     		strh	r3, [r0, #16]	@ movhi	@ D.6980, USARTx_11(D)->CR2
 209:Libraries/STM32F10x_StdPeriph_Driver/src/stm32f10x_usart.c **** 
 210:Libraries/STM32F10x_StdPeriph_Driver/src/stm32f10x_usart.c **** /*---------------------------- USART CR1 Configuration -----------------------*/
 211:Libraries/STM32F10x_StdPeriph_Driver/src/stm32f10x_usart.c ****   tmpreg = USARTx->CR1;
 239              		.loc 1 211 0
 240 00b0 8289     		ldrh	r2, [r0, #12]	@, USARTx_11(D)->CR1
 241 00b2 8988     		ldrh	r1, [r1, #4]	@, USART_InitStruct_10(D)->USART_WordLength
 242              	.LVL20:
 243 00b4 3389     		ldrh	r3, [r6, #8]	@, USART_InitStruct_10(D)->USART_Parity
 244              	.LVL21:
 245 00b6 92B2     		uxth	r2, r2	@ D.6980, USARTx_11(D)->CR1
 246              	.LVL22:
 247 00b8 0B43     		orrs	r3, r3, r1	@, tmp168, USART_InitStruct_10(D)->USART_Parity, USART_InitStruct_10(D)->USART_Wor
 248 00ba 7189     		ldrh	r1, [r6, #10]	@, USART_InitStruct_10(D)->USART_Mode
 249 00bc 22F4B052 		bic	r2, r2, #5632	@ tmp173, D.6980,
 250              	.LVL23:
 251 00c0 0B43     		orrs	r3, r3, r1	@, tmp171, tmp168, USART_InitStruct_10(D)->USART_Mode
 252 00c2 22F00C02 		bic	r2, r2, #12	@ tmp172, tmp173,
 253 00c6 1343     		orrs	r3, r3, r2	@, tmp176, tmp171, tmp172
 254 00c8 9BB2     		uxth	r3, r3	@ D.6980, tmp176
 255              	.LVL24:
 212:Libraries/STM32F10x_StdPeriph_Driver/src/stm32f10x_usart.c ****   /* Clear M, PCE, PS, TE and RE bits */
 213:Libraries/STM32F10x_StdPeriph_Driver/src/stm32f10x_usart.c ****   tmpreg &= CR1_CLEAR_Mask;
 214:Libraries/STM32F10x_StdPeriph_Driver/src/stm32f10x_usart.c ****   /* Configure the USART Word Length, Parity and mode ----------------------- */
 215:Libraries/STM32F10x_StdPeriph_Driver/src/stm32f10x_usart.c ****   /* Set the M bits according to USART_WordLength value */
 216:Libraries/STM32F10x_StdPeriph_Driver/src/stm32f10x_usart.c ****   /* Set PCE and PS bits according to USART_Parity value */
 217:Libraries/STM32F10x_StdPeriph_Driver/src/stm32f10x_usart.c ****   /* Set TE and RE bits according to USART_Mode value */
 218:Libraries/STM32F10x_StdPeriph_Driver/src/stm32f10x_usart.c ****   tmpreg |= (uint32_t)USART_InitStruct->USART_WordLength | USART_InitStruct->USART_Parity |
 219:Libraries/STM32F10x_StdPeriph_Driver/src/stm32f10x_usart.c ****             USART_InitStruct->USART_Mode;
 220:Libraries/STM32F10x_StdPeriph_Driver/src/stm32f10x_usart.c ****   /* Write to USART CR1 */
 221:Libraries/STM32F10x_StdPeriph_Driver/src/stm32f10x_usart.c ****   USARTx->CR1 = (uint16_t)tmpreg;
 256              		.loc 1 221 0
 257 00ca 8381     		strh	r3, [r0, #12]	@ movhi	@ D.6980, USARTx_11(D)->CR1
 222:Libraries/STM32F10x_StdPeriph_Driver/src/stm32f10x_usart.c **** 
 223:Libraries/STM32F10x_StdPeriph_Driver/src/stm32f10x_usart.c **** /*---------------------------- USART CR3 Configuration -----------------------*/  
 224:Libraries/STM32F10x_StdPeriph_Driver/src/stm32f10x_usart.c ****   tmpreg = USARTx->CR3;
 258              		.loc 1 224 0
 259 00cc 838A     		ldrh	r3, [r0, #20]	@, USARTx_11(D)->CR3
 260              	.LVL25:
 261 00ce B289     		ldrh	r2, [r6, #12]	@ tmp183, USART_InitStruct_10(D)->USART_HardwareFlowControl
 262 00d0 9BB2     		uxth	r3, r3	@ D.6980, USARTx_11(D)->CR3
 263              	.LVL26:
 264 00d2 23F44073 		bic	r3, r3, #768	@ tmp180, D.6980,
 265              	.LVL27:
 177:Libraries/STM32F10x_StdPeriph_Driver/src/stm32f10x_usart.c ****   uint32_t tmpreg = 0x00, apbclock = 0x00;
 266              		.loc 1 177 0
 267 00d6 86B0     		sub	sp, sp, #24	@,,
 268              	.LCFI6:
 269              		.cfi_def_cfa_offset 40
 270 00d8 1343     		orrs	r3, r3, r2	@, D.6980, tmp180, tmp183
 271              	.LVL28:
 225:Libraries/STM32F10x_StdPeriph_Driver/src/stm32f10x_usart.c ****   /* Clear CTSE and RTSE bits */
 226:Libraries/STM32F10x_StdPeriph_Driver/src/stm32f10x_usart.c ****   tmpreg &= CR3_CLEAR_Mask;
 227:Libraries/STM32F10x_StdPeriph_Driver/src/stm32f10x_usart.c ****   /* Configure the USART HFC -------------------------------------------------*/
ARM GAS  /var/folders/lp/0dm50ddn51vc39svyzv_6fp00000gn/T//ccLUgEfv.s 			page 10


 228:Libraries/STM32F10x_StdPeriph_Driver/src/stm32f10x_usart.c ****   /* Set CTSE and RTSE bits according to USART_HardwareFlowControl value */
 229:Libraries/STM32F10x_StdPeriph_Driver/src/stm32f10x_usart.c ****   tmpreg |= USART_InitStruct->USART_HardwareFlowControl;
 230:Libraries/STM32F10x_StdPeriph_Driver/src/stm32f10x_usart.c ****   /* Write to USART CR3 */
 231:Libraries/STM32F10x_StdPeriph_Driver/src/stm32f10x_usart.c ****   USARTx->CR3 = (uint16_t)tmpreg;
 272              		.loc 1 231 0
 273 00da 8382     		strh	r3, [r0, #20]	@ movhi	@ D.6980, USARTx_11(D)->CR3
 232:Libraries/STM32F10x_StdPeriph_Driver/src/stm32f10x_usart.c **** 
 233:Libraries/STM32F10x_StdPeriph_Driver/src/stm32f10x_usart.c **** /*---------------------------- USART BRR Configuration -----------------------*/
 234:Libraries/STM32F10x_StdPeriph_Driver/src/stm32f10x_usart.c ****   /* Configure the USART Baud Rate -------------------------------------------*/
 235:Libraries/STM32F10x_StdPeriph_Driver/src/stm32f10x_usart.c ****   RCC_GetClocksFreq(&RCC_ClocksStatus);
 274              		.loc 1 235 0
 275 00dc 01A8     		add	r0, sp, #4	@,,
 276              	.LVL29:
 277 00de FFF7FEFF 		bl	RCC_GetClocksFreq	@
 278              	.LVL30:
 236:Libraries/STM32F10x_StdPeriph_Driver/src/stm32f10x_usart.c ****   if (usartxbase == USART1_BASE)
 237:Libraries/STM32F10x_StdPeriph_Driver/src/stm32f10x_usart.c ****   {
 238:Libraries/STM32F10x_StdPeriph_Driver/src/stm32f10x_usart.c ****     apbclock = RCC_ClocksStatus.PCLK2_Frequency;
 239:Libraries/STM32F10x_StdPeriph_Driver/src/stm32f10x_usart.c ****   }
 240:Libraries/STM32F10x_StdPeriph_Driver/src/stm32f10x_usart.c ****   else
 241:Libraries/STM32F10x_StdPeriph_Driver/src/stm32f10x_usart.c ****   {
 242:Libraries/STM32F10x_StdPeriph_Driver/src/stm32f10x_usart.c ****     apbclock = RCC_ClocksStatus.PCLK1_Frequency;
 279              		.loc 1 242 0
 280 00e2 174A     		ldr	r2, .L18	@ tmp186,
 281 00e4 039B     		ldr	r3, [sp, #12]	@ apbclock, RCC_ClocksStatus.PCLK1_Frequency
 238:Libraries/STM32F10x_StdPeriph_Driver/src/stm32f10x_usart.c ****   }
 282              		.loc 1 238 0
 283 00e6 049D     		ldr	r5, [sp, #16]	@ apbclock, RCC_ClocksStatus.PCLK2_Frequency
 284 00e8 3168     		ldr	r1, [r6]	@ USART_InitStruct_10(D)->USART_BaudRate, USART_InitStruct_10(D)->USART_BaudRate
 285              		.loc 1 242 0
 286 00ea 9442     		cmp	r4, r2	@ USARTx, tmp186
 287 00ec 18BF     		it	ne	@
 288 00ee 1D46     		movne	r5, r3	@, apbclock, apbclock
 289              	.LVL31:
 290 00f0 1922     		movs	r2, #25	@ tmp220,
 243:Libraries/STM32F10x_StdPeriph_Driver/src/stm32f10x_usart.c ****   }
 244:Libraries/STM32F10x_StdPeriph_Driver/src/stm32f10x_usart.c ****   
 245:Libraries/STM32F10x_StdPeriph_Driver/src/stm32f10x_usart.c ****   /* Determine the integer part */
 246:Libraries/STM32F10x_StdPeriph_Driver/src/stm32f10x_usart.c ****   if ((USARTx->CR1 & CR1_OVER8_Set) != 0)
 247:Libraries/STM32F10x_StdPeriph_Driver/src/stm32f10x_usart.c ****   {
 248:Libraries/STM32F10x_StdPeriph_Driver/src/stm32f10x_usart.c ****     /* Integer part computing in case Oversampling mode is 8 Samples */
 249:Libraries/STM32F10x_StdPeriph_Driver/src/stm32f10x_usart.c ****     integerdivider = ((25 * apbclock) / (2 * (USART_InitStruct->USART_BaudRate)));    
 291              		.loc 1 249 0
 292 00f2 6A43     		muls	r2, r5, r2	@ D.6982, apbclock
 246:Libraries/STM32F10x_StdPeriph_Driver/src/stm32f10x_usart.c ****   {
 293              		.loc 1 246 0
 294 00f4 A389     		ldrh	r3, [r4, #12]	@, USARTx_11(D)->CR1
 250:Libraries/STM32F10x_StdPeriph_Driver/src/stm32f10x_usart.c ****   }
 251:Libraries/STM32F10x_StdPeriph_Driver/src/stm32f10x_usart.c ****   else /* if ((USARTx->CR1 & CR1_OVER8_Set) == 0) */
 252:Libraries/STM32F10x_StdPeriph_Driver/src/stm32f10x_usart.c ****   {
 253:Libraries/STM32F10x_StdPeriph_Driver/src/stm32f10x_usart.c ****     /* Integer part computing in case Oversampling mode is 16 Samples */
 254:Libraries/STM32F10x_StdPeriph_Driver/src/stm32f10x_usart.c ****     integerdivider = ((25 * apbclock) / (4 * (USART_InitStruct->USART_BaudRate)));    
 255:Libraries/STM32F10x_StdPeriph_Driver/src/stm32f10x_usart.c ****   }
 256:Libraries/STM32F10x_StdPeriph_Driver/src/stm32f10x_usart.c ****   tmpreg = (integerdivider / 100) << 4;
 295              		.loc 1 256 0
 296 00f6 6426     		movs	r6, #100	@ tmp200,
 297              	.LVL32:
ARM GAS  /var/folders/lp/0dm50ddn51vc39svyzv_6fp00000gn/T//ccLUgEfv.s 			page 11


 246:Libraries/STM32F10x_StdPeriph_Driver/src/stm32f10x_usart.c ****   {
 298              		.loc 1 246 0
 299 00f8 13F4004F 		tst	r3, #32768	@ USARTx_11(D)->CR1,
 249:Libraries/STM32F10x_StdPeriph_Driver/src/stm32f10x_usart.c ****   }
 300              		.loc 1 249 0
 301 00fc 14BF     		ite	ne
 302 00fe 4D00     		lslne	r5, r1, #1	@ D.6982, USART_InitStruct_10(D)->USART_BaudRate,
 303              	.LVL33:
 254:Libraries/STM32F10x_StdPeriph_Driver/src/stm32f10x_usart.c ****   }
 304              		.loc 1 254 0
 305 0100 8D00     		lsleq	r5, r1, #2	@ D.6982, USART_InitStruct_10(D)->USART_BaudRate,
 306 0102 B2FBF5F5 		udiv	r5, r2, r5	@ integerdivider, D.6982, D.6982
 307              	.LVL34:
 308              		.loc 1 256 0
 309 0106 B5FBF6F0 		udiv	r0, r5, r6	@ D.6982, integerdivider, tmp200
 257:Libraries/STM32F10x_StdPeriph_Driver/src/stm32f10x_usart.c **** 
 258:Libraries/STM32F10x_StdPeriph_Driver/src/stm32f10x_usart.c ****   /* Determine the fractional part */
 259:Libraries/STM32F10x_StdPeriph_Driver/src/stm32f10x_usart.c ****   fractionaldivider = integerdivider - (100 * (tmpreg >> 4));
 260:Libraries/STM32F10x_StdPeriph_Driver/src/stm32f10x_usart.c **** 
 261:Libraries/STM32F10x_StdPeriph_Driver/src/stm32f10x_usart.c ****   /* Implement the fractional part in the register */
 262:Libraries/STM32F10x_StdPeriph_Driver/src/stm32f10x_usart.c ****   if ((USARTx->CR1 & CR1_OVER8_Set) != 0)
 310              		.loc 1 262 0
 311 010a A289     		ldrh	r2, [r4, #12]	@, USARTx_11(D)->CR1
 256:Libraries/STM32F10x_StdPeriph_Driver/src/stm32f10x_usart.c **** 
 312              		.loc 1 256 0
 313 010c 0001     		lsls	r0, r0, #4	@ tmpreg, D.6982,
 314              	.LVL35:
 259:Libraries/STM32F10x_StdPeriph_Driver/src/stm32f10x_usart.c **** 
 315              		.loc 1 259 0
 316 010e 0109     		lsrs	r1, r0, #4	@ D.6982, tmpreg,
 317              		.loc 1 262 0
 318 0110 1204     		lsls	r2, r2, #16	@, USARTx_11(D)->CR1,
 259:Libraries/STM32F10x_StdPeriph_Driver/src/stm32f10x_usart.c **** 
 319              		.loc 1 259 0
 320 0112 06FB1153 		mls	r3, r6, r1, r5	@ fractionaldivider, tmp200, D.6982, integerdivider
 321              	.LVL36:
 322              		.loc 1 262 0
 323 0116 07D5     		bpl	.L15	@,
 263:Libraries/STM32F10x_StdPeriph_Driver/src/stm32f10x_usart.c ****   {
 264:Libraries/STM32F10x_StdPeriph_Driver/src/stm32f10x_usart.c ****     tmpreg |= ((((fractionaldivider * 8) + 50) / 100)) & ((uint8_t)0x07);
 324              		.loc 1 264 0
 325 0118 D900     		lsls	r1, r3, #3	@ D.6982, fractionaldivider,
 326 011a 3231     		adds	r1, r1, #50	@ D.6982, D.6982,
 327 011c B1FBF6F2 		udiv	r2, r1, r6	@ D.6982, D.6982, tmp200
 328 0120 02F00702 		and	r2, r2, #7	@ D.6982, D.6982,
 329 0124 1043     		orrs	r0, r0, r2	@, tmpreg, tmpreg, D.6982
 330              	.LVL37:
 331 0126 06E0     		b	.L16	@
 332              	.L15:
 265:Libraries/STM32F10x_StdPeriph_Driver/src/stm32f10x_usart.c ****   }
 266:Libraries/STM32F10x_StdPeriph_Driver/src/stm32f10x_usart.c ****   else /* if ((USARTx->CR1 & CR1_OVER8_Set) == 0) */
 267:Libraries/STM32F10x_StdPeriph_Driver/src/stm32f10x_usart.c ****   {
 268:Libraries/STM32F10x_StdPeriph_Driver/src/stm32f10x_usart.c ****     tmpreg |= ((((fractionaldivider * 16) + 50) / 100)) & ((uint8_t)0x0F);
 333              		.loc 1 268 0
 334 0128 1A01     		lsls	r2, r3, #4	@ D.6982, fractionaldivider,
 335 012a 3232     		adds	r2, r2, #50	@ D.6982, D.6982,
 336 012c B2FBF6F3 		udiv	r3, r2, r6	@ D.6982, D.6982, tmp200
ARM GAS  /var/folders/lp/0dm50ddn51vc39svyzv_6fp00000gn/T//ccLUgEfv.s 			page 12


 337              	.LVL38:
 338 0130 03F00F03 		and	r3, r3, #15	@ D.6982, D.6982,
 339 0134 1843     		orrs	r0, r0, r3	@, tmpreg, tmpreg, D.6982
 340              	.LVL39:
 341              	.L16:
 269:Libraries/STM32F10x_StdPeriph_Driver/src/stm32f10x_usart.c ****   }
 270:Libraries/STM32F10x_StdPeriph_Driver/src/stm32f10x_usart.c ****   
 271:Libraries/STM32F10x_StdPeriph_Driver/src/stm32f10x_usart.c ****   /* Write to USART BRR */
 272:Libraries/STM32F10x_StdPeriph_Driver/src/stm32f10x_usart.c ****   USARTx->BRR = (uint16_t)tmpreg;
 342              		.loc 1 272 0
 343 0136 80B2     		uxth	r0, r0	@ D.6980, tmpreg
 344              	.LVL40:
 345 0138 2081     		strh	r0, [r4, #8]	@ movhi	@ D.6980, USARTx_11(D)->BRR
 273:Libraries/STM32F10x_StdPeriph_Driver/src/stm32f10x_usart.c **** }
 346              		.loc 1 273 0
 347 013a 06B0     		add	sp, sp, #24	@,,
 348              	.LCFI7:
 349              		.cfi_def_cfa_offset 16
 350              		@ sp needed	@
 351 013c 70BD     		pop	{r4, r5, r6, pc}	@
 352              	.LVL41:
 353              	.L19:
 354 013e 00BF     		.align	2
 355              	.L18:
 356 0140 00380140 		.word	1073821696
 357              		.cfi_endproc
 358              	.LFE30:
 359              		.size	USART_Init, .-USART_Init
 360              		.align	1
 361              		.global	USART_StructInit
 362              		.thumb
 363              		.thumb_func
 364              		.type	USART_StructInit, %function
 365              	USART_StructInit:
 366              	.LFB31:
 274:Libraries/STM32F10x_StdPeriph_Driver/src/stm32f10x_usart.c **** 
 275:Libraries/STM32F10x_StdPeriph_Driver/src/stm32f10x_usart.c **** /**
 276:Libraries/STM32F10x_StdPeriph_Driver/src/stm32f10x_usart.c ****   * @brief  Fills each USART_InitStruct member with its default value.
 277:Libraries/STM32F10x_StdPeriph_Driver/src/stm32f10x_usart.c ****   * @param  USART_InitStruct: pointer to a USART_InitTypeDef structure
 278:Libraries/STM32F10x_StdPeriph_Driver/src/stm32f10x_usart.c ****   *         which will be initialized.
 279:Libraries/STM32F10x_StdPeriph_Driver/src/stm32f10x_usart.c ****   * @retval None
 280:Libraries/STM32F10x_StdPeriph_Driver/src/stm32f10x_usart.c ****   */
 281:Libraries/STM32F10x_StdPeriph_Driver/src/stm32f10x_usart.c **** void USART_StructInit(USART_InitTypeDef* USART_InitStruct)
 282:Libraries/STM32F10x_StdPeriph_Driver/src/stm32f10x_usart.c **** {
 367              		.loc 1 282 0
 368              		.cfi_startproc
 369              		@ args = 0, pretend = 0, frame = 0
 370              		@ frame_needed = 0, uses_anonymous_args = 0
 371              		@ link register save eliminated.
 372              	.LVL42:
 283:Libraries/STM32F10x_StdPeriph_Driver/src/stm32f10x_usart.c ****   /* USART_InitStruct members default value */
 284:Libraries/STM32F10x_StdPeriph_Driver/src/stm32f10x_usart.c ****   USART_InitStruct->USART_BaudRate = 9600;
 373              		.loc 1 284 0
 374 0144 4FF41653 		mov	r3, #9600	@ tmp111,
 375 0148 0360     		str	r3, [r0]	@ tmp111, USART_InitStruct_2(D)->USART_BaudRate
 285:Libraries/STM32F10x_StdPeriph_Driver/src/stm32f10x_usart.c ****   USART_InitStruct->USART_WordLength = USART_WordLength_8b;
 286:Libraries/STM32F10x_StdPeriph_Driver/src/stm32f10x_usart.c ****   USART_InitStruct->USART_StopBits = USART_StopBits_1;
ARM GAS  /var/folders/lp/0dm50ddn51vc39svyzv_6fp00000gn/T//ccLUgEfv.s 			page 13


 287:Libraries/STM32F10x_StdPeriph_Driver/src/stm32f10x_usart.c ****   USART_InitStruct->USART_Parity = USART_Parity_No ;
 288:Libraries/STM32F10x_StdPeriph_Driver/src/stm32f10x_usart.c ****   USART_InitStruct->USART_Mode = USART_Mode_Rx | USART_Mode_Tx;
 376              		.loc 1 288 0
 377 014a 0C22     		movs	r2, #12	@ tmp119,
 285:Libraries/STM32F10x_StdPeriph_Driver/src/stm32f10x_usart.c ****   USART_InitStruct->USART_WordLength = USART_WordLength_8b;
 378              		.loc 1 285 0
 379 014c 0023     		movs	r3, #0	@ tmp113,
 380 014e 8380     		strh	r3, [r0, #4]	@ movhi	@ tmp113, USART_InitStruct_2(D)->USART_WordLength
 286:Libraries/STM32F10x_StdPeriph_Driver/src/stm32f10x_usart.c ****   USART_InitStruct->USART_Parity = USART_Parity_No ;
 381              		.loc 1 286 0
 382 0150 C380     		strh	r3, [r0, #6]	@ movhi	@ tmp113, USART_InitStruct_2(D)->USART_StopBits
 287:Libraries/STM32F10x_StdPeriph_Driver/src/stm32f10x_usart.c ****   USART_InitStruct->USART_Mode = USART_Mode_Rx | USART_Mode_Tx;
 383              		.loc 1 287 0
 384 0152 0381     		strh	r3, [r0, #8]	@ movhi	@ tmp113, USART_InitStruct_2(D)->USART_Parity
 385              		.loc 1 288 0
 386 0154 4281     		strh	r2, [r0, #10]	@ movhi	@ tmp119, USART_InitStruct_2(D)->USART_Mode
 289:Libraries/STM32F10x_StdPeriph_Driver/src/stm32f10x_usart.c ****   USART_InitStruct->USART_HardwareFlowControl = USART_HardwareFlowControl_None;  
 387              		.loc 1 289 0
 388 0156 8381     		strh	r3, [r0, #12]	@ movhi	@ tmp113, USART_InitStruct_2(D)->USART_HardwareFlowControl
 389 0158 7047     		bx	lr	@
 390              		.cfi_endproc
 391              	.LFE31:
 392              		.size	USART_StructInit, .-USART_StructInit
 393              		.align	1
 394              		.global	USART_ClockInit
 395              		.thumb
 396              		.thumb_func
 397              		.type	USART_ClockInit, %function
 398              	USART_ClockInit:
 399              	.LFB32:
 290:Libraries/STM32F10x_StdPeriph_Driver/src/stm32f10x_usart.c **** }
 291:Libraries/STM32F10x_StdPeriph_Driver/src/stm32f10x_usart.c **** 
 292:Libraries/STM32F10x_StdPeriph_Driver/src/stm32f10x_usart.c **** /**
 293:Libraries/STM32F10x_StdPeriph_Driver/src/stm32f10x_usart.c ****   * @brief  Initializes the USARTx peripheral Clock according to the 
 294:Libraries/STM32F10x_StdPeriph_Driver/src/stm32f10x_usart.c ****   *          specified parameters in the USART_ClockInitStruct .
 295:Libraries/STM32F10x_StdPeriph_Driver/src/stm32f10x_usart.c ****   * @param  USARTx: where x can be 1, 2, 3 to select the USART peripheral.
 296:Libraries/STM32F10x_StdPeriph_Driver/src/stm32f10x_usart.c ****   * @param  USART_ClockInitStruct: pointer to a USART_ClockInitTypeDef
 297:Libraries/STM32F10x_StdPeriph_Driver/src/stm32f10x_usart.c ****   *         structure that contains the configuration information for the specified 
 298:Libraries/STM32F10x_StdPeriph_Driver/src/stm32f10x_usart.c ****   *         USART peripheral.  
 299:Libraries/STM32F10x_StdPeriph_Driver/src/stm32f10x_usart.c ****   * @note The Smart Card and Synchronous modes are not available for UART4 and UART5.
 300:Libraries/STM32F10x_StdPeriph_Driver/src/stm32f10x_usart.c ****   * @retval None
 301:Libraries/STM32F10x_StdPeriph_Driver/src/stm32f10x_usart.c ****   */
 302:Libraries/STM32F10x_StdPeriph_Driver/src/stm32f10x_usart.c **** void USART_ClockInit(USART_TypeDef* USARTx, USART_ClockInitTypeDef* USART_ClockInitStruct)
 303:Libraries/STM32F10x_StdPeriph_Driver/src/stm32f10x_usart.c **** {
 400              		.loc 1 303 0
 401              		.cfi_startproc
 402              		@ args = 0, pretend = 0, frame = 0
 403              		@ frame_needed = 0, uses_anonymous_args = 0
 404              	.LVL43:
 405 015a 4B88     		ldrh	r3, [r1, #2]	@, USART_ClockInitStruct_5(D)->USART_CPOL
 406 015c 10B5     		push	{r4, lr}	@
 407              	.LCFI8:
 408              		.cfi_def_cfa_offset 8
 409              		.cfi_offset 4, -8
 410              		.cfi_offset 14, -4
 411 015e 0C88     		ldrh	r4, [r1]	@, USART_ClockInitStruct_5(D)->USART_Clock
 304:Libraries/STM32F10x_StdPeriph_Driver/src/stm32f10x_usart.c ****   uint32_t tmpreg = 0x00;
ARM GAS  /var/folders/lp/0dm50ddn51vc39svyzv_6fp00000gn/T//ccLUgEfv.s 			page 14


 305:Libraries/STM32F10x_StdPeriph_Driver/src/stm32f10x_usart.c ****   /* Check the parameters */
 306:Libraries/STM32F10x_StdPeriph_Driver/src/stm32f10x_usart.c ****   assert_param(IS_USART_123_PERIPH(USARTx));
 307:Libraries/STM32F10x_StdPeriph_Driver/src/stm32f10x_usart.c ****   assert_param(IS_USART_CLOCK(USART_ClockInitStruct->USART_Clock));
 308:Libraries/STM32F10x_StdPeriph_Driver/src/stm32f10x_usart.c ****   assert_param(IS_USART_CPOL(USART_ClockInitStruct->USART_CPOL));
 309:Libraries/STM32F10x_StdPeriph_Driver/src/stm32f10x_usart.c ****   assert_param(IS_USART_CPHA(USART_ClockInitStruct->USART_CPHA));
 310:Libraries/STM32F10x_StdPeriph_Driver/src/stm32f10x_usart.c ****   assert_param(IS_USART_LASTBIT(USART_ClockInitStruct->USART_LastBit));
 311:Libraries/STM32F10x_StdPeriph_Driver/src/stm32f10x_usart.c ****   
 312:Libraries/STM32F10x_StdPeriph_Driver/src/stm32f10x_usart.c **** /*---------------------------- USART CR2 Configuration -----------------------*/
 313:Libraries/STM32F10x_StdPeriph_Driver/src/stm32f10x_usart.c ****   tmpreg = USARTx->CR2;
 412              		.loc 1 313 0
 413 0160 028A     		ldrh	r2, [r0, #16]	@, USARTx_3(D)->CR2
 414 0162 2343     		orrs	r3, r3, r4	@, tmp126, USART_ClockInitStruct_5(D)->USART_CPOL, USART_ClockInitStruct_5(D)->USA
 415 0164 8C88     		ldrh	r4, [r1, #4]	@, USART_ClockInitStruct_5(D)->USART_CPHA
 416 0166 C988     		ldrh	r1, [r1, #6]	@, USART_ClockInitStruct_5(D)->USART_LastBit
 417              	.LVL44:
 418 0168 92B2     		uxth	r2, r2	@ D.6987, USARTx_3(D)->CR2
 419              	.LVL45:
 420 016a 2343     		orrs	r3, r3, r4	@, tmp129, tmp126, USART_ClockInitStruct_5(D)->USART_CPHA
 421 016c 0B43     		orrs	r3, r3, r1	@, tmp132, tmp129, USART_ClockInitStruct_5(D)->USART_LastBit
 422 016e 22F47062 		bic	r2, r2, #3840	@ tmp133, D.6987,
 423              	.LVL46:
 424 0172 1343     		orrs	r3, r3, r2	@, tmp136, tmp132, tmp133
 425 0174 9BB2     		uxth	r3, r3	@ D.6987, tmp136
 426              	.LVL47:
 314:Libraries/STM32F10x_StdPeriph_Driver/src/stm32f10x_usart.c ****   /* Clear CLKEN, CPOL, CPHA and LBCL bits */
 315:Libraries/STM32F10x_StdPeriph_Driver/src/stm32f10x_usart.c ****   tmpreg &= CR2_CLOCK_CLEAR_Mask;
 316:Libraries/STM32F10x_StdPeriph_Driver/src/stm32f10x_usart.c ****   /* Configure the USART Clock, CPOL, CPHA and LastBit ------------*/
 317:Libraries/STM32F10x_StdPeriph_Driver/src/stm32f10x_usart.c ****   /* Set CLKEN bit according to USART_Clock value */
 318:Libraries/STM32F10x_StdPeriph_Driver/src/stm32f10x_usart.c ****   /* Set CPOL bit according to USART_CPOL value */
 319:Libraries/STM32F10x_StdPeriph_Driver/src/stm32f10x_usart.c ****   /* Set CPHA bit according to USART_CPHA value */
 320:Libraries/STM32F10x_StdPeriph_Driver/src/stm32f10x_usart.c ****   /* Set LBCL bit according to USART_LastBit value */
 321:Libraries/STM32F10x_StdPeriph_Driver/src/stm32f10x_usart.c ****   tmpreg |= (uint32_t)USART_ClockInitStruct->USART_Clock | USART_ClockInitStruct->USART_CPOL | 
 322:Libraries/STM32F10x_StdPeriph_Driver/src/stm32f10x_usart.c ****                  USART_ClockInitStruct->USART_CPHA | USART_ClockInitStruct->USART_LastBit;
 323:Libraries/STM32F10x_StdPeriph_Driver/src/stm32f10x_usart.c ****   /* Write to USART CR2 */
 324:Libraries/STM32F10x_StdPeriph_Driver/src/stm32f10x_usart.c ****   USARTx->CR2 = (uint16_t)tmpreg;
 427              		.loc 1 324 0
 428 0176 0382     		strh	r3, [r0, #16]	@ movhi	@ D.6987, USARTx_3(D)->CR2
 429 0178 10BD     		pop	{r4, pc}	@
 430              		.cfi_endproc
 431              	.LFE32:
 432              		.size	USART_ClockInit, .-USART_ClockInit
 433              		.align	1
 434              		.global	USART_ClockStructInit
 435              		.thumb
 436              		.thumb_func
 437              		.type	USART_ClockStructInit, %function
 438              	USART_ClockStructInit:
 439              	.LFB33:
 325:Libraries/STM32F10x_StdPeriph_Driver/src/stm32f10x_usart.c **** }
 326:Libraries/STM32F10x_StdPeriph_Driver/src/stm32f10x_usart.c **** 
 327:Libraries/STM32F10x_StdPeriph_Driver/src/stm32f10x_usart.c **** /**
 328:Libraries/STM32F10x_StdPeriph_Driver/src/stm32f10x_usart.c ****   * @brief  Fills each USART_ClockInitStruct member with its default value.
 329:Libraries/STM32F10x_StdPeriph_Driver/src/stm32f10x_usart.c ****   * @param  USART_ClockInitStruct: pointer to a USART_ClockInitTypeDef
 330:Libraries/STM32F10x_StdPeriph_Driver/src/stm32f10x_usart.c ****   *         structure which will be initialized.
 331:Libraries/STM32F10x_StdPeriph_Driver/src/stm32f10x_usart.c ****   * @retval None
 332:Libraries/STM32F10x_StdPeriph_Driver/src/stm32f10x_usart.c ****   */
 333:Libraries/STM32F10x_StdPeriph_Driver/src/stm32f10x_usart.c **** void USART_ClockStructInit(USART_ClockInitTypeDef* USART_ClockInitStruct)
ARM GAS  /var/folders/lp/0dm50ddn51vc39svyzv_6fp00000gn/T//ccLUgEfv.s 			page 15


 334:Libraries/STM32F10x_StdPeriph_Driver/src/stm32f10x_usart.c **** {
 440              		.loc 1 334 0
 441              		.cfi_startproc
 442              		@ args = 0, pretend = 0, frame = 0
 443              		@ frame_needed = 0, uses_anonymous_args = 0
 444              		@ link register save eliminated.
 445              	.LVL48:
 335:Libraries/STM32F10x_StdPeriph_Driver/src/stm32f10x_usart.c ****   /* USART_ClockInitStruct members default value */
 336:Libraries/STM32F10x_StdPeriph_Driver/src/stm32f10x_usart.c ****   USART_ClockInitStruct->USART_Clock = USART_Clock_Disable;
 446              		.loc 1 336 0
 447 017a 0023     		movs	r3, #0	@ tmp112,
 448 017c 0380     		strh	r3, [r0]	@ movhi	@ tmp112, USART_ClockInitStruct_2(D)->USART_Clock
 337:Libraries/STM32F10x_StdPeriph_Driver/src/stm32f10x_usart.c ****   USART_ClockInitStruct->USART_CPOL = USART_CPOL_Low;
 449              		.loc 1 337 0
 450 017e 4380     		strh	r3, [r0, #2]	@ movhi	@ tmp112, USART_ClockInitStruct_2(D)->USART_CPOL
 338:Libraries/STM32F10x_StdPeriph_Driver/src/stm32f10x_usart.c ****   USART_ClockInitStruct->USART_CPHA = USART_CPHA_1Edge;
 451              		.loc 1 338 0
 452 0180 8380     		strh	r3, [r0, #4]	@ movhi	@ tmp112, USART_ClockInitStruct_2(D)->USART_CPHA
 339:Libraries/STM32F10x_StdPeriph_Driver/src/stm32f10x_usart.c ****   USART_ClockInitStruct->USART_LastBit = USART_LastBit_Disable;
 453              		.loc 1 339 0
 454 0182 C380     		strh	r3, [r0, #6]	@ movhi	@ tmp112, USART_ClockInitStruct_2(D)->USART_LastBit
 455 0184 7047     		bx	lr	@
 456              		.cfi_endproc
 457              	.LFE33:
 458              		.size	USART_ClockStructInit, .-USART_ClockStructInit
 459              		.align	1
 460              		.global	USART_Cmd
 461              		.thumb
 462              		.thumb_func
 463              		.type	USART_Cmd, %function
 464              	USART_Cmd:
 465              	.LFB34:
 340:Libraries/STM32F10x_StdPeriph_Driver/src/stm32f10x_usart.c **** }
 341:Libraries/STM32F10x_StdPeriph_Driver/src/stm32f10x_usart.c **** 
 342:Libraries/STM32F10x_StdPeriph_Driver/src/stm32f10x_usart.c **** /**
 343:Libraries/STM32F10x_StdPeriph_Driver/src/stm32f10x_usart.c ****   * @brief  Enables or disables the specified USART peripheral.
 344:Libraries/STM32F10x_StdPeriph_Driver/src/stm32f10x_usart.c ****   * @param  USARTx: Select the USART or the UART peripheral. 
 345:Libraries/STM32F10x_StdPeriph_Driver/src/stm32f10x_usart.c ****   *         This parameter can be one of the following values:
 346:Libraries/STM32F10x_StdPeriph_Driver/src/stm32f10x_usart.c ****   *           USART1, USART2, USART3, UART4 or UART5.
 347:Libraries/STM32F10x_StdPeriph_Driver/src/stm32f10x_usart.c ****   * @param  NewState: new state of the USARTx peripheral.
 348:Libraries/STM32F10x_StdPeriph_Driver/src/stm32f10x_usart.c ****   *         This parameter can be: ENABLE or DISABLE.
 349:Libraries/STM32F10x_StdPeriph_Driver/src/stm32f10x_usart.c ****   * @retval None
 350:Libraries/STM32F10x_StdPeriph_Driver/src/stm32f10x_usart.c ****   */
 351:Libraries/STM32F10x_StdPeriph_Driver/src/stm32f10x_usart.c **** void USART_Cmd(USART_TypeDef* USARTx, FunctionalState NewState)
 352:Libraries/STM32F10x_StdPeriph_Driver/src/stm32f10x_usart.c **** {
 466              		.loc 1 352 0
 467              		.cfi_startproc
 468              		@ args = 0, pretend = 0, frame = 0
 469              		@ frame_needed = 0, uses_anonymous_args = 0
 470              		@ link register save eliminated.
 471              	.LVL49:
 353:Libraries/STM32F10x_StdPeriph_Driver/src/stm32f10x_usart.c ****   /* Check the parameters */
 354:Libraries/STM32F10x_StdPeriph_Driver/src/stm32f10x_usart.c ****   assert_param(IS_USART_ALL_PERIPH(USARTx));
 355:Libraries/STM32F10x_StdPeriph_Driver/src/stm32f10x_usart.c ****   assert_param(IS_FUNCTIONAL_STATE(NewState));
 356:Libraries/STM32F10x_StdPeriph_Driver/src/stm32f10x_usart.c ****   
 357:Libraries/STM32F10x_StdPeriph_Driver/src/stm32f10x_usart.c ****   if (NewState != DISABLE)
 358:Libraries/STM32F10x_StdPeriph_Driver/src/stm32f10x_usart.c ****   {
ARM GAS  /var/folders/lp/0dm50ddn51vc39svyzv_6fp00000gn/T//ccLUgEfv.s 			page 16


 359:Libraries/STM32F10x_StdPeriph_Driver/src/stm32f10x_usart.c ****     /* Enable the selected USART by setting the UE bit in the CR1 register */
 360:Libraries/STM32F10x_StdPeriph_Driver/src/stm32f10x_usart.c ****     USARTx->CR1 |= CR1_UE_Set;
 472              		.loc 1 360 0
 473 0186 8389     		ldrh	r3, [r0, #12]	@,
 357:Libraries/STM32F10x_StdPeriph_Driver/src/stm32f10x_usart.c ****   {
 474              		.loc 1 357 0
 475 0188 19B1     		cbz	r1, .L24	@ NewState,
 476              		.loc 1 360 0
 477 018a 9BB2     		uxth	r3, r3	@ D.6992, USARTx_4(D)->CR1
 478 018c 43F40053 		orr	r3, r3, #8192	@ D.6992, D.6992,
 479 0190 03E0     		b	.L26	@
 480              	.L24:
 361:Libraries/STM32F10x_StdPeriph_Driver/src/stm32f10x_usart.c ****   }
 362:Libraries/STM32F10x_StdPeriph_Driver/src/stm32f10x_usart.c ****   else
 363:Libraries/STM32F10x_StdPeriph_Driver/src/stm32f10x_usart.c ****   {
 364:Libraries/STM32F10x_StdPeriph_Driver/src/stm32f10x_usart.c ****     /* Disable the selected USART by clearing the UE bit in the CR1 register */
 365:Libraries/STM32F10x_StdPeriph_Driver/src/stm32f10x_usart.c ****     USARTx->CR1 &= CR1_UE_Reset;
 481              		.loc 1 365 0
 482 0192 23F40053 		bic	r3, r3, #8192	@ D.6992, USARTx_4(D)->CR1,
 483 0196 1B04     		lsls	r3, r3, #16	@ D.6992, D.6992,
 484 0198 1B0C     		lsrs	r3, r3, #16	@ D.6992, D.6992,
 485              	.L26:
 486 019a 8381     		strh	r3, [r0, #12]	@ movhi	@ D.6992,
 487 019c 7047     		bx	lr	@
 488              		.cfi_endproc
 489              	.LFE34:
 490              		.size	USART_Cmd, .-USART_Cmd
 491              		.align	1
 492              		.global	USART_ITConfig
 493              		.thumb
 494              		.thumb_func
 495              		.type	USART_ITConfig, %function
 496              	USART_ITConfig:
 497              	.LFB35:
 366:Libraries/STM32F10x_StdPeriph_Driver/src/stm32f10x_usart.c ****   }
 367:Libraries/STM32F10x_StdPeriph_Driver/src/stm32f10x_usart.c **** }
 368:Libraries/STM32F10x_StdPeriph_Driver/src/stm32f10x_usart.c **** 
 369:Libraries/STM32F10x_StdPeriph_Driver/src/stm32f10x_usart.c **** /**
 370:Libraries/STM32F10x_StdPeriph_Driver/src/stm32f10x_usart.c ****   * @brief  Enables or disables the specified USART interrupts.
 371:Libraries/STM32F10x_StdPeriph_Driver/src/stm32f10x_usart.c ****   * @param  USARTx: Select the USART or the UART peripheral. 
 372:Libraries/STM32F10x_StdPeriph_Driver/src/stm32f10x_usart.c ****   *   This parameter can be one of the following values:
 373:Libraries/STM32F10x_StdPeriph_Driver/src/stm32f10x_usart.c ****   *   USART1, USART2, USART3, UART4 or UART5.
 374:Libraries/STM32F10x_StdPeriph_Driver/src/stm32f10x_usart.c ****   * @param  USART_IT: specifies the USART interrupt sources to be enabled or disabled.
 375:Libraries/STM32F10x_StdPeriph_Driver/src/stm32f10x_usart.c ****   *   This parameter can be one of the following values:
 376:Libraries/STM32F10x_StdPeriph_Driver/src/stm32f10x_usart.c ****   *     @arg USART_IT_CTS:  CTS change interrupt (not available for UART4 and UART5)
 377:Libraries/STM32F10x_StdPeriph_Driver/src/stm32f10x_usart.c ****   *     @arg USART_IT_LBD:  LIN Break detection interrupt
 378:Libraries/STM32F10x_StdPeriph_Driver/src/stm32f10x_usart.c ****   *     @arg USART_IT_TXE:  Transmit Data Register empty interrupt
 379:Libraries/STM32F10x_StdPeriph_Driver/src/stm32f10x_usart.c ****   *     @arg USART_IT_TC:   Transmission complete interrupt
 380:Libraries/STM32F10x_StdPeriph_Driver/src/stm32f10x_usart.c ****   *     @arg USART_IT_RXNE: Receive Data register not empty interrupt
 381:Libraries/STM32F10x_StdPeriph_Driver/src/stm32f10x_usart.c ****   *     @arg USART_IT_IDLE: Idle line detection interrupt
 382:Libraries/STM32F10x_StdPeriph_Driver/src/stm32f10x_usart.c ****   *     @arg USART_IT_PE:   Parity Error interrupt
 383:Libraries/STM32F10x_StdPeriph_Driver/src/stm32f10x_usart.c ****   *     @arg USART_IT_ERR:  Error interrupt(Frame error, noise error, overrun error)
 384:Libraries/STM32F10x_StdPeriph_Driver/src/stm32f10x_usart.c ****   * @param  NewState: new state of the specified USARTx interrupts.
 385:Libraries/STM32F10x_StdPeriph_Driver/src/stm32f10x_usart.c ****   *   This parameter can be: ENABLE or DISABLE.
 386:Libraries/STM32F10x_StdPeriph_Driver/src/stm32f10x_usart.c ****   * @retval None
 387:Libraries/STM32F10x_StdPeriph_Driver/src/stm32f10x_usart.c ****   */
 388:Libraries/STM32F10x_StdPeriph_Driver/src/stm32f10x_usart.c **** void USART_ITConfig(USART_TypeDef* USARTx, uint16_t USART_IT, FunctionalState NewState)
ARM GAS  /var/folders/lp/0dm50ddn51vc39svyzv_6fp00000gn/T//ccLUgEfv.s 			page 17


 389:Libraries/STM32F10x_StdPeriph_Driver/src/stm32f10x_usart.c **** {
 498              		.loc 1 389 0
 499              		.cfi_startproc
 500              		@ args = 0, pretend = 0, frame = 0
 501              		@ frame_needed = 0, uses_anonymous_args = 0
 502              	.LVL50:
 390:Libraries/STM32F10x_StdPeriph_Driver/src/stm32f10x_usart.c ****   uint32_t usartreg = 0x00, itpos = 0x00, itmask = 0x00;
 391:Libraries/STM32F10x_StdPeriph_Driver/src/stm32f10x_usart.c ****   uint32_t usartxbase = 0x00;
 392:Libraries/STM32F10x_StdPeriph_Driver/src/stm32f10x_usart.c ****   /* Check the parameters */
 393:Libraries/STM32F10x_StdPeriph_Driver/src/stm32f10x_usart.c ****   assert_param(IS_USART_ALL_PERIPH(USARTx));
 394:Libraries/STM32F10x_StdPeriph_Driver/src/stm32f10x_usart.c ****   assert_param(IS_USART_CONFIG_IT(USART_IT));
 395:Libraries/STM32F10x_StdPeriph_Driver/src/stm32f10x_usart.c ****   assert_param(IS_FUNCTIONAL_STATE(NewState));
 396:Libraries/STM32F10x_StdPeriph_Driver/src/stm32f10x_usart.c ****   /* The CTS interrupt is not available for UART4 and UART5 */
 397:Libraries/STM32F10x_StdPeriph_Driver/src/stm32f10x_usart.c ****   if (USART_IT == USART_IT_CTS)
 398:Libraries/STM32F10x_StdPeriph_Driver/src/stm32f10x_usart.c ****   {
 399:Libraries/STM32F10x_StdPeriph_Driver/src/stm32f10x_usart.c ****     assert_param(IS_USART_123_PERIPH(USARTx));
 400:Libraries/STM32F10x_StdPeriph_Driver/src/stm32f10x_usart.c ****   }   
 401:Libraries/STM32F10x_StdPeriph_Driver/src/stm32f10x_usart.c ****   
 402:Libraries/STM32F10x_StdPeriph_Driver/src/stm32f10x_usart.c ****   usartxbase = (uint32_t)USARTx;
 403:Libraries/STM32F10x_StdPeriph_Driver/src/stm32f10x_usart.c **** 
 404:Libraries/STM32F10x_StdPeriph_Driver/src/stm32f10x_usart.c ****   /* Get the USART register index */
 405:Libraries/STM32F10x_StdPeriph_Driver/src/stm32f10x_usart.c ****   usartreg = (((uint8_t)USART_IT) >> 0x05);
 406:Libraries/STM32F10x_StdPeriph_Driver/src/stm32f10x_usart.c **** 
 407:Libraries/STM32F10x_StdPeriph_Driver/src/stm32f10x_usart.c ****   /* Get the interrupt position */
 408:Libraries/STM32F10x_StdPeriph_Driver/src/stm32f10x_usart.c ****   itpos = USART_IT & IT_Mask;
 409:Libraries/STM32F10x_StdPeriph_Driver/src/stm32f10x_usart.c ****   itmask = (((uint32_t)0x01) << itpos);
 503              		.loc 1 409 0
 504 019e 0123     		movs	r3, #1	@ tmp131,
 389:Libraries/STM32F10x_StdPeriph_Driver/src/stm32f10x_usart.c ****   uint32_t usartreg = 0x00, itpos = 0x00, itmask = 0x00;
 505              		.loc 1 389 0
 506 01a0 10B5     		push	{r4, lr}	@
 507              	.LCFI9:
 508              		.cfi_def_cfa_offset 8
 509              		.cfi_offset 4, -8
 510              		.cfi_offset 14, -4
 405:Libraries/STM32F10x_StdPeriph_Driver/src/stm32f10x_usart.c **** 
 511              		.loc 1 405 0
 512 01a2 C1F34214 		ubfx	r4, r1, #5, #3	@ D.6996, USART_IT,,
 513              	.LVL51:
 410:Libraries/STM32F10x_StdPeriph_Driver/src/stm32f10x_usart.c ****     
 411:Libraries/STM32F10x_StdPeriph_Driver/src/stm32f10x_usart.c ****   if (usartreg == 0x01) /* The IT is in CR1 register */
 514              		.loc 1 411 0
 515 01a6 9C42     		cmp	r4, r3	@ D.6996,
 409:Libraries/STM32F10x_StdPeriph_Driver/src/stm32f10x_usart.c ****     
 516              		.loc 1 409 0
 517 01a8 01F01F01 		and	r1, r1, #31	@ itpos, USART_IT,
 518              	.LVL52:
 519 01ac 03FA01F1 		lsl	r1, r3, r1	@ itmask, tmp131, itpos
 520              	.LVL53:
 521              		.loc 1 411 0
 522 01b0 01D1     		bne	.L28	@,
 412:Libraries/STM32F10x_StdPeriph_Driver/src/stm32f10x_usart.c ****   {
 413:Libraries/STM32F10x_StdPeriph_Driver/src/stm32f10x_usart.c ****     usartxbase += 0x0C;
 523              		.loc 1 413 0
 524 01b2 0C30     		adds	r0, r0, #12	@ usartxbase, USARTx,
 525              	.LVL54:
 526 01b4 03E0     		b	.L29	@
ARM GAS  /var/folders/lp/0dm50ddn51vc39svyzv_6fp00000gn/T//ccLUgEfv.s 			page 18


 527              	.LVL55:
 528              	.L28:
 414:Libraries/STM32F10x_StdPeriph_Driver/src/stm32f10x_usart.c ****   }
 415:Libraries/STM32F10x_StdPeriph_Driver/src/stm32f10x_usart.c ****   else if (usartreg == 0x02) /* The IT is in CR2 register */
 529              		.loc 1 415 0
 530 01b6 022C     		cmp	r4, #2	@ D.6996,
 416:Libraries/STM32F10x_StdPeriph_Driver/src/stm32f10x_usart.c ****   {
 417:Libraries/STM32F10x_StdPeriph_Driver/src/stm32f10x_usart.c ****     usartxbase += 0x10;
 531              		.loc 1 417 0
 532 01b8 0CBF     		ite	eq
 533 01ba 1030     		addeq	r0, r0, #16	@ usartxbase, USARTx,
 534              	.LVL56:
 418:Libraries/STM32F10x_StdPeriph_Driver/src/stm32f10x_usart.c ****   }
 419:Libraries/STM32F10x_StdPeriph_Driver/src/stm32f10x_usart.c ****   else /* The IT is in CR3 register */
 420:Libraries/STM32F10x_StdPeriph_Driver/src/stm32f10x_usart.c ****   {
 421:Libraries/STM32F10x_StdPeriph_Driver/src/stm32f10x_usart.c ****     usartxbase += 0x14; 
 535              		.loc 1 421 0
 536 01bc 1430     		addne	r0, r0, #20	@ usartxbase, USARTx,
 537              	.LVL57:
 538              	.L29:
 422:Libraries/STM32F10x_StdPeriph_Driver/src/stm32f10x_usart.c ****   }
 423:Libraries/STM32F10x_StdPeriph_Driver/src/stm32f10x_usart.c ****   if (NewState != DISABLE)
 424:Libraries/STM32F10x_StdPeriph_Driver/src/stm32f10x_usart.c ****   {
 425:Libraries/STM32F10x_StdPeriph_Driver/src/stm32f10x_usart.c ****     *(__IO uint32_t*)usartxbase  |= itmask;
 539              		.loc 1 425 0
 540 01be 0368     		ldr	r3, [r0]	@ D.6998,* usartxbase
 423:Libraries/STM32F10x_StdPeriph_Driver/src/stm32f10x_usart.c ****   {
 541              		.loc 1 423 0
 542 01c0 0AB1     		cbz	r2, .L31	@ NewState,
 543              		.loc 1 425 0
 544 01c2 1943     		orrs	r1, r1, r3	@, D.6998, itmask, D.6998
 545              	.LVL58:
 546 01c4 01E0     		b	.L33	@
 547              	.LVL59:
 548              	.L31:
 426:Libraries/STM32F10x_StdPeriph_Driver/src/stm32f10x_usart.c ****   }
 427:Libraries/STM32F10x_StdPeriph_Driver/src/stm32f10x_usart.c ****   else
 428:Libraries/STM32F10x_StdPeriph_Driver/src/stm32f10x_usart.c ****   {
 429:Libraries/STM32F10x_StdPeriph_Driver/src/stm32f10x_usart.c ****     *(__IO uint32_t*)usartxbase &= ~itmask;
 549              		.loc 1 429 0
 550 01c6 23EA0101 		bic	r1, r3, r1	@ D.6998, D.6998, itmask
 551              	.LVL60:
 552              	.L33:
 553 01ca 0160     		str	r1, [r0]	@ D.6998,* usartxbase
 554 01cc 10BD     		pop	{r4, pc}	@
 555              		.cfi_endproc
 556              	.LFE35:
 557              		.size	USART_ITConfig, .-USART_ITConfig
 558              		.align	1
 559              		.global	USART_DMACmd
 560              		.thumb
 561              		.thumb_func
 562              		.type	USART_DMACmd, %function
 563              	USART_DMACmd:
 564              	.LFB36:
 430:Libraries/STM32F10x_StdPeriph_Driver/src/stm32f10x_usart.c ****   }
 431:Libraries/STM32F10x_StdPeriph_Driver/src/stm32f10x_usart.c **** }
ARM GAS  /var/folders/lp/0dm50ddn51vc39svyzv_6fp00000gn/T//ccLUgEfv.s 			page 19


 432:Libraries/STM32F10x_StdPeriph_Driver/src/stm32f10x_usart.c **** 
 433:Libraries/STM32F10x_StdPeriph_Driver/src/stm32f10x_usart.c **** /**
 434:Libraries/STM32F10x_StdPeriph_Driver/src/stm32f10x_usart.c ****   * @brief  Enables or disables the USARTs DMA interface.
 435:Libraries/STM32F10x_StdPeriph_Driver/src/stm32f10x_usart.c ****   * @param  USARTx: Select the USART or the UART peripheral. 
 436:Libraries/STM32F10x_StdPeriph_Driver/src/stm32f10x_usart.c ****   *   This parameter can be one of the following values:
 437:Libraries/STM32F10x_StdPeriph_Driver/src/stm32f10x_usart.c ****   *   USART1, USART2, USART3, UART4 or UART5.
 438:Libraries/STM32F10x_StdPeriph_Driver/src/stm32f10x_usart.c ****   * @param  USART_DMAReq: specifies the DMA request.
 439:Libraries/STM32F10x_StdPeriph_Driver/src/stm32f10x_usart.c ****   *   This parameter can be any combination of the following values:
 440:Libraries/STM32F10x_StdPeriph_Driver/src/stm32f10x_usart.c ****   *     @arg USART_DMAReq_Tx: USART DMA transmit request
 441:Libraries/STM32F10x_StdPeriph_Driver/src/stm32f10x_usart.c ****   *     @arg USART_DMAReq_Rx: USART DMA receive request
 442:Libraries/STM32F10x_StdPeriph_Driver/src/stm32f10x_usart.c ****   * @param  NewState: new state of the DMA Request sources.
 443:Libraries/STM32F10x_StdPeriph_Driver/src/stm32f10x_usart.c ****   *   This parameter can be: ENABLE or DISABLE.
 444:Libraries/STM32F10x_StdPeriph_Driver/src/stm32f10x_usart.c ****   * @note The DMA mode is not available for UART5 except in the STM32
 445:Libraries/STM32F10x_StdPeriph_Driver/src/stm32f10x_usart.c ****   *       High density value line devices(STM32F10X_HD_VL).  
 446:Libraries/STM32F10x_StdPeriph_Driver/src/stm32f10x_usart.c ****   * @retval None
 447:Libraries/STM32F10x_StdPeriph_Driver/src/stm32f10x_usart.c ****   */
 448:Libraries/STM32F10x_StdPeriph_Driver/src/stm32f10x_usart.c **** void USART_DMACmd(USART_TypeDef* USARTx, uint16_t USART_DMAReq, FunctionalState NewState)
 449:Libraries/STM32F10x_StdPeriph_Driver/src/stm32f10x_usart.c **** {
 565              		.loc 1 449 0
 566              		.cfi_startproc
 567              		@ args = 0, pretend = 0, frame = 0
 568              		@ frame_needed = 0, uses_anonymous_args = 0
 569              		@ link register save eliminated.
 570              	.LVL61:
 450:Libraries/STM32F10x_StdPeriph_Driver/src/stm32f10x_usart.c ****   /* Check the parameters */
 451:Libraries/STM32F10x_StdPeriph_Driver/src/stm32f10x_usart.c ****   assert_param(IS_USART_ALL_PERIPH(USARTx));
 452:Libraries/STM32F10x_StdPeriph_Driver/src/stm32f10x_usart.c ****   assert_param(IS_USART_DMAREQ(USART_DMAReq));  
 453:Libraries/STM32F10x_StdPeriph_Driver/src/stm32f10x_usart.c ****   assert_param(IS_FUNCTIONAL_STATE(NewState)); 
 454:Libraries/STM32F10x_StdPeriph_Driver/src/stm32f10x_usart.c ****   if (NewState != DISABLE)
 455:Libraries/STM32F10x_StdPeriph_Driver/src/stm32f10x_usart.c ****   {
 456:Libraries/STM32F10x_StdPeriph_Driver/src/stm32f10x_usart.c ****     /* Enable the DMA transfer for selected requests by setting the DMAT and/or
 457:Libraries/STM32F10x_StdPeriph_Driver/src/stm32f10x_usart.c ****        DMAR bits in the USART CR3 register */
 458:Libraries/STM32F10x_StdPeriph_Driver/src/stm32f10x_usart.c ****     USARTx->CR3 |= USART_DMAReq;
 571              		.loc 1 458 0
 572 01ce 838A     		ldrh	r3, [r0, #20]	@,
 573 01d0 9BB2     		uxth	r3, r3	@ D.7001, USARTx_4(D)->CR3
 454:Libraries/STM32F10x_StdPeriph_Driver/src/stm32f10x_usart.c ****   {
 574              		.loc 1 454 0
 575 01d2 0AB1     		cbz	r2, .L35	@ NewState,
 576              		.loc 1 458 0
 577 01d4 1943     		orrs	r1, r1, r3	@, D.7001, USART_DMAReq, D.7001
 578              	.LVL62:
 579 01d6 01E0     		b	.L37	@
 580              	.LVL63:
 581              	.L35:
 459:Libraries/STM32F10x_StdPeriph_Driver/src/stm32f10x_usart.c ****   }
 460:Libraries/STM32F10x_StdPeriph_Driver/src/stm32f10x_usart.c ****   else
 461:Libraries/STM32F10x_StdPeriph_Driver/src/stm32f10x_usart.c ****   {
 462:Libraries/STM32F10x_StdPeriph_Driver/src/stm32f10x_usart.c ****     /* Disable the DMA transfer for selected requests by clearing the DMAT and/or
 463:Libraries/STM32F10x_StdPeriph_Driver/src/stm32f10x_usart.c ****        DMAR bits in the USART CR3 register */
 464:Libraries/STM32F10x_StdPeriph_Driver/src/stm32f10x_usart.c ****     USARTx->CR3 &= (uint16_t)~USART_DMAReq;
 582              		.loc 1 464 0
 583 01d8 23EA0101 		bic	r1, r3, r1	@ D.7001, D.7001, USART_DMAReq
 584              	.LVL64:
 585              	.L37:
 586 01dc 8182     		strh	r1, [r0, #20]	@ movhi	@ D.7001,
 587 01de 7047     		bx	lr	@
ARM GAS  /var/folders/lp/0dm50ddn51vc39svyzv_6fp00000gn/T//ccLUgEfv.s 			page 20


 588              		.cfi_endproc
 589              	.LFE36:
 590              		.size	USART_DMACmd, .-USART_DMACmd
 591              		.align	1
 592              		.global	USART_SetAddress
 593              		.thumb
 594              		.thumb_func
 595              		.type	USART_SetAddress, %function
 596              	USART_SetAddress:
 597              	.LFB37:
 465:Libraries/STM32F10x_StdPeriph_Driver/src/stm32f10x_usart.c ****   }
 466:Libraries/STM32F10x_StdPeriph_Driver/src/stm32f10x_usart.c **** }
 467:Libraries/STM32F10x_StdPeriph_Driver/src/stm32f10x_usart.c **** 
 468:Libraries/STM32F10x_StdPeriph_Driver/src/stm32f10x_usart.c **** /**
 469:Libraries/STM32F10x_StdPeriph_Driver/src/stm32f10x_usart.c ****   * @brief  Sets the address of the USART node.
 470:Libraries/STM32F10x_StdPeriph_Driver/src/stm32f10x_usart.c ****   * @param  USARTx: Select the USART or the UART peripheral. 
 471:Libraries/STM32F10x_StdPeriph_Driver/src/stm32f10x_usart.c ****   *   This parameter can be one of the following values:
 472:Libraries/STM32F10x_StdPeriph_Driver/src/stm32f10x_usart.c ****   *   USART1, USART2, USART3, UART4 or UART5.
 473:Libraries/STM32F10x_StdPeriph_Driver/src/stm32f10x_usart.c ****   * @param  USART_Address: Indicates the address of the USART node.
 474:Libraries/STM32F10x_StdPeriph_Driver/src/stm32f10x_usart.c ****   * @retval None
 475:Libraries/STM32F10x_StdPeriph_Driver/src/stm32f10x_usart.c ****   */
 476:Libraries/STM32F10x_StdPeriph_Driver/src/stm32f10x_usart.c **** void USART_SetAddress(USART_TypeDef* USARTx, uint8_t USART_Address)
 477:Libraries/STM32F10x_StdPeriph_Driver/src/stm32f10x_usart.c **** {
 598              		.loc 1 477 0
 599              		.cfi_startproc
 600              		@ args = 0, pretend = 0, frame = 0
 601              		@ frame_needed = 0, uses_anonymous_args = 0
 602              		@ link register save eliminated.
 603              	.LVL65:
 478:Libraries/STM32F10x_StdPeriph_Driver/src/stm32f10x_usart.c ****   /* Check the parameters */
 479:Libraries/STM32F10x_StdPeriph_Driver/src/stm32f10x_usart.c ****   assert_param(IS_USART_ALL_PERIPH(USARTx));
 480:Libraries/STM32F10x_StdPeriph_Driver/src/stm32f10x_usart.c ****   assert_param(IS_USART_ADDRESS(USART_Address)); 
 481:Libraries/STM32F10x_StdPeriph_Driver/src/stm32f10x_usart.c ****     
 482:Libraries/STM32F10x_StdPeriph_Driver/src/stm32f10x_usart.c ****   /* Clear the USART address */
 483:Libraries/STM32F10x_StdPeriph_Driver/src/stm32f10x_usart.c ****   USARTx->CR2 &= CR2_Address_Mask;
 604              		.loc 1 483 0
 605 01e0 038A     		ldrh	r3, [r0, #16]	@, USARTx_2(D)->CR2
 606 01e2 23F00F03 		bic	r3, r3, #15	@ D.7004, USARTx_2(D)->CR2,
 607 01e6 1B04     		lsls	r3, r3, #16	@ D.7004, D.7004,
 608 01e8 1B0C     		lsrs	r3, r3, #16	@ D.7004, D.7004,
 609 01ea 0382     		strh	r3, [r0, #16]	@ movhi	@ D.7004, USARTx_2(D)->CR2
 484:Libraries/STM32F10x_StdPeriph_Driver/src/stm32f10x_usart.c ****   /* Set the USART address node */
 485:Libraries/STM32F10x_StdPeriph_Driver/src/stm32f10x_usart.c ****   USARTx->CR2 |= USART_Address;
 610              		.loc 1 485 0
 611 01ec 038A     		ldrh	r3, [r0, #16]	@, USARTx_2(D)->CR2
 612 01ee 9BB2     		uxth	r3, r3	@ D.7004, USARTx_2(D)->CR2
 613 01f0 1943     		orrs	r1, r1, r3	@, D.7004, USART_Address, D.7004
 614              	.LVL66:
 615 01f2 0182     		strh	r1, [r0, #16]	@ movhi	@ D.7004, USARTx_2(D)->CR2
 616 01f4 7047     		bx	lr	@
 617              		.cfi_endproc
 618              	.LFE37:
 619              		.size	USART_SetAddress, .-USART_SetAddress
 620              		.align	1
 621              		.global	USART_WakeUpConfig
 622              		.thumb
 623              		.thumb_func
ARM GAS  /var/folders/lp/0dm50ddn51vc39svyzv_6fp00000gn/T//ccLUgEfv.s 			page 21


 624              		.type	USART_WakeUpConfig, %function
 625              	USART_WakeUpConfig:
 626              	.LFB38:
 486:Libraries/STM32F10x_StdPeriph_Driver/src/stm32f10x_usart.c **** }
 487:Libraries/STM32F10x_StdPeriph_Driver/src/stm32f10x_usart.c **** 
 488:Libraries/STM32F10x_StdPeriph_Driver/src/stm32f10x_usart.c **** /**
 489:Libraries/STM32F10x_StdPeriph_Driver/src/stm32f10x_usart.c ****   * @brief  Selects the USART WakeUp method.
 490:Libraries/STM32F10x_StdPeriph_Driver/src/stm32f10x_usart.c ****   * @param  USARTx: Select the USART or the UART peripheral. 
 491:Libraries/STM32F10x_StdPeriph_Driver/src/stm32f10x_usart.c ****   *   This parameter can be one of the following values:
 492:Libraries/STM32F10x_StdPeriph_Driver/src/stm32f10x_usart.c ****   *   USART1, USART2, USART3, UART4 or UART5.
 493:Libraries/STM32F10x_StdPeriph_Driver/src/stm32f10x_usart.c ****   * @param  USART_WakeUp: specifies the USART wakeup method.
 494:Libraries/STM32F10x_StdPeriph_Driver/src/stm32f10x_usart.c ****   *   This parameter can be one of the following values:
 495:Libraries/STM32F10x_StdPeriph_Driver/src/stm32f10x_usart.c ****   *     @arg USART_WakeUp_IdleLine: WakeUp by an idle line detection
 496:Libraries/STM32F10x_StdPeriph_Driver/src/stm32f10x_usart.c ****   *     @arg USART_WakeUp_AddressMark: WakeUp by an address mark
 497:Libraries/STM32F10x_StdPeriph_Driver/src/stm32f10x_usart.c ****   * @retval None
 498:Libraries/STM32F10x_StdPeriph_Driver/src/stm32f10x_usart.c ****   */
 499:Libraries/STM32F10x_StdPeriph_Driver/src/stm32f10x_usart.c **** void USART_WakeUpConfig(USART_TypeDef* USARTx, uint16_t USART_WakeUp)
 500:Libraries/STM32F10x_StdPeriph_Driver/src/stm32f10x_usart.c **** {
 627              		.loc 1 500 0
 628              		.cfi_startproc
 629              		@ args = 0, pretend = 0, frame = 0
 630              		@ frame_needed = 0, uses_anonymous_args = 0
 631              		@ link register save eliminated.
 632              	.LVL67:
 501:Libraries/STM32F10x_StdPeriph_Driver/src/stm32f10x_usart.c ****   /* Check the parameters */
 502:Libraries/STM32F10x_StdPeriph_Driver/src/stm32f10x_usart.c ****   assert_param(IS_USART_ALL_PERIPH(USARTx));
 503:Libraries/STM32F10x_StdPeriph_Driver/src/stm32f10x_usart.c ****   assert_param(IS_USART_WAKEUP(USART_WakeUp));
 504:Libraries/STM32F10x_StdPeriph_Driver/src/stm32f10x_usart.c ****   
 505:Libraries/STM32F10x_StdPeriph_Driver/src/stm32f10x_usart.c ****   USARTx->CR1 &= CR1_WAKE_Mask;
 633              		.loc 1 505 0
 634 01f6 8389     		ldrh	r3, [r0, #12]	@, USARTx_2(D)->CR1
 635 01f8 23F40063 		bic	r3, r3, #2048	@ D.7007, USARTx_2(D)->CR1,
 636 01fc 1B04     		lsls	r3, r3, #16	@ D.7007, D.7007,
 637 01fe 1B0C     		lsrs	r3, r3, #16	@ D.7007, D.7007,
 638 0200 8381     		strh	r3, [r0, #12]	@ movhi	@ D.7007, USARTx_2(D)->CR1
 506:Libraries/STM32F10x_StdPeriph_Driver/src/stm32f10x_usart.c ****   USARTx->CR1 |= USART_WakeUp;
 639              		.loc 1 506 0
 640 0202 8389     		ldrh	r3, [r0, #12]	@, USARTx_2(D)->CR1
 641 0204 9BB2     		uxth	r3, r3	@ D.7007, USARTx_2(D)->CR1
 642 0206 1943     		orrs	r1, r1, r3	@, D.7007, USART_WakeUp, D.7007
 643              	.LVL68:
 644 0208 8181     		strh	r1, [r0, #12]	@ movhi	@ D.7007, USARTx_2(D)->CR1
 645 020a 7047     		bx	lr	@
 646              		.cfi_endproc
 647              	.LFE38:
 648              		.size	USART_WakeUpConfig, .-USART_WakeUpConfig
 649              		.align	1
 650              		.global	USART_ReceiverWakeUpCmd
 651              		.thumb
 652              		.thumb_func
 653              		.type	USART_ReceiverWakeUpCmd, %function
 654              	USART_ReceiverWakeUpCmd:
 655              	.LFB39:
 507:Libraries/STM32F10x_StdPeriph_Driver/src/stm32f10x_usart.c **** }
 508:Libraries/STM32F10x_StdPeriph_Driver/src/stm32f10x_usart.c **** 
 509:Libraries/STM32F10x_StdPeriph_Driver/src/stm32f10x_usart.c **** /**
 510:Libraries/STM32F10x_StdPeriph_Driver/src/stm32f10x_usart.c ****   * @brief  Determines if the USART is in mute mode or not.
ARM GAS  /var/folders/lp/0dm50ddn51vc39svyzv_6fp00000gn/T//ccLUgEfv.s 			page 22


 511:Libraries/STM32F10x_StdPeriph_Driver/src/stm32f10x_usart.c ****   * @param  USARTx: Select the USART or the UART peripheral. 
 512:Libraries/STM32F10x_StdPeriph_Driver/src/stm32f10x_usart.c ****   *   This parameter can be one of the following values:
 513:Libraries/STM32F10x_StdPeriph_Driver/src/stm32f10x_usart.c ****   *   USART1, USART2, USART3, UART4 or UART5.
 514:Libraries/STM32F10x_StdPeriph_Driver/src/stm32f10x_usart.c ****   * @param  NewState: new state of the USART mute mode.
 515:Libraries/STM32F10x_StdPeriph_Driver/src/stm32f10x_usart.c ****   *   This parameter can be: ENABLE or DISABLE.
 516:Libraries/STM32F10x_StdPeriph_Driver/src/stm32f10x_usart.c ****   * @retval None
 517:Libraries/STM32F10x_StdPeriph_Driver/src/stm32f10x_usart.c ****   */
 518:Libraries/STM32F10x_StdPeriph_Driver/src/stm32f10x_usart.c **** void USART_ReceiverWakeUpCmd(USART_TypeDef* USARTx, FunctionalState NewState)
 519:Libraries/STM32F10x_StdPeriph_Driver/src/stm32f10x_usart.c **** {
 656              		.loc 1 519 0
 657              		.cfi_startproc
 658              		@ args = 0, pretend = 0, frame = 0
 659              		@ frame_needed = 0, uses_anonymous_args = 0
 660              		@ link register save eliminated.
 661              	.LVL69:
 520:Libraries/STM32F10x_StdPeriph_Driver/src/stm32f10x_usart.c ****   /* Check the parameters */
 521:Libraries/STM32F10x_StdPeriph_Driver/src/stm32f10x_usart.c ****   assert_param(IS_USART_ALL_PERIPH(USARTx));
 522:Libraries/STM32F10x_StdPeriph_Driver/src/stm32f10x_usart.c ****   assert_param(IS_FUNCTIONAL_STATE(NewState)); 
 523:Libraries/STM32F10x_StdPeriph_Driver/src/stm32f10x_usart.c ****   
 524:Libraries/STM32F10x_StdPeriph_Driver/src/stm32f10x_usart.c ****   if (NewState != DISABLE)
 525:Libraries/STM32F10x_StdPeriph_Driver/src/stm32f10x_usart.c ****   {
 526:Libraries/STM32F10x_StdPeriph_Driver/src/stm32f10x_usart.c ****     /* Enable the USART mute mode  by setting the RWU bit in the CR1 register */
 527:Libraries/STM32F10x_StdPeriph_Driver/src/stm32f10x_usart.c ****     USARTx->CR1 |= CR1_RWU_Set;
 662              		.loc 1 527 0
 663 020c 8389     		ldrh	r3, [r0, #12]	@,
 524:Libraries/STM32F10x_StdPeriph_Driver/src/stm32f10x_usart.c ****   {
 664              		.loc 1 524 0
 665 020e 19B1     		cbz	r1, .L41	@ NewState,
 666              		.loc 1 527 0
 667 0210 9BB2     		uxth	r3, r3	@ D.7010, USARTx_4(D)->CR1
 668 0212 43F00203 		orr	r3, r3, #2	@ D.7010, D.7010,
 669 0216 03E0     		b	.L43	@
 670              	.L41:
 528:Libraries/STM32F10x_StdPeriph_Driver/src/stm32f10x_usart.c ****   }
 529:Libraries/STM32F10x_StdPeriph_Driver/src/stm32f10x_usart.c ****   else
 530:Libraries/STM32F10x_StdPeriph_Driver/src/stm32f10x_usart.c ****   {
 531:Libraries/STM32F10x_StdPeriph_Driver/src/stm32f10x_usart.c ****     /* Disable the USART mute mode by clearing the RWU bit in the CR1 register */
 532:Libraries/STM32F10x_StdPeriph_Driver/src/stm32f10x_usart.c ****     USARTx->CR1 &= CR1_RWU_Reset;
 671              		.loc 1 532 0
 672 0218 23F00203 		bic	r3, r3, #2	@ D.7010, USARTx_4(D)->CR1,
 673 021c 1B04     		lsls	r3, r3, #16	@ D.7010, D.7010,
 674 021e 1B0C     		lsrs	r3, r3, #16	@ D.7010, D.7010,
 675              	.L43:
 676 0220 8381     		strh	r3, [r0, #12]	@ movhi	@ D.7010,
 677 0222 7047     		bx	lr	@
 678              		.cfi_endproc
 679              	.LFE39:
 680              		.size	USART_ReceiverWakeUpCmd, .-USART_ReceiverWakeUpCmd
 681              		.align	1
 682              		.global	USART_LINBreakDetectLengthConfig
 683              		.thumb
 684              		.thumb_func
 685              		.type	USART_LINBreakDetectLengthConfig, %function
 686              	USART_LINBreakDetectLengthConfig:
 687              	.LFB40:
 533:Libraries/STM32F10x_StdPeriph_Driver/src/stm32f10x_usart.c ****   }
 534:Libraries/STM32F10x_StdPeriph_Driver/src/stm32f10x_usart.c **** }
ARM GAS  /var/folders/lp/0dm50ddn51vc39svyzv_6fp00000gn/T//ccLUgEfv.s 			page 23


 535:Libraries/STM32F10x_StdPeriph_Driver/src/stm32f10x_usart.c **** 
 536:Libraries/STM32F10x_StdPeriph_Driver/src/stm32f10x_usart.c **** /**
 537:Libraries/STM32F10x_StdPeriph_Driver/src/stm32f10x_usart.c ****   * @brief  Sets the USART LIN Break detection length.
 538:Libraries/STM32F10x_StdPeriph_Driver/src/stm32f10x_usart.c ****   * @param  USARTx: Select the USART or the UART peripheral. 
 539:Libraries/STM32F10x_StdPeriph_Driver/src/stm32f10x_usart.c ****   *   This parameter can be one of the following values:
 540:Libraries/STM32F10x_StdPeriph_Driver/src/stm32f10x_usart.c ****   *   USART1, USART2, USART3, UART4 or UART5.
 541:Libraries/STM32F10x_StdPeriph_Driver/src/stm32f10x_usart.c ****   * @param  USART_LINBreakDetectLength: specifies the LIN break detection length.
 542:Libraries/STM32F10x_StdPeriph_Driver/src/stm32f10x_usart.c ****   *   This parameter can be one of the following values:
 543:Libraries/STM32F10x_StdPeriph_Driver/src/stm32f10x_usart.c ****   *     @arg USART_LINBreakDetectLength_10b: 10-bit break detection
 544:Libraries/STM32F10x_StdPeriph_Driver/src/stm32f10x_usart.c ****   *     @arg USART_LINBreakDetectLength_11b: 11-bit break detection
 545:Libraries/STM32F10x_StdPeriph_Driver/src/stm32f10x_usart.c ****   * @retval None
 546:Libraries/STM32F10x_StdPeriph_Driver/src/stm32f10x_usart.c ****   */
 547:Libraries/STM32F10x_StdPeriph_Driver/src/stm32f10x_usart.c **** void USART_LINBreakDetectLengthConfig(USART_TypeDef* USARTx, uint16_t USART_LINBreakDetectLength)
 548:Libraries/STM32F10x_StdPeriph_Driver/src/stm32f10x_usart.c **** {
 688              		.loc 1 548 0
 689              		.cfi_startproc
 690              		@ args = 0, pretend = 0, frame = 0
 691              		@ frame_needed = 0, uses_anonymous_args = 0
 692              		@ link register save eliminated.
 693              	.LVL70:
 549:Libraries/STM32F10x_StdPeriph_Driver/src/stm32f10x_usart.c ****   /* Check the parameters */
 550:Libraries/STM32F10x_StdPeriph_Driver/src/stm32f10x_usart.c ****   assert_param(IS_USART_ALL_PERIPH(USARTx));
 551:Libraries/STM32F10x_StdPeriph_Driver/src/stm32f10x_usart.c ****   assert_param(IS_USART_LIN_BREAK_DETECT_LENGTH(USART_LINBreakDetectLength));
 552:Libraries/STM32F10x_StdPeriph_Driver/src/stm32f10x_usart.c ****   
 553:Libraries/STM32F10x_StdPeriph_Driver/src/stm32f10x_usart.c ****   USARTx->CR2 &= CR2_LBDL_Mask;
 694              		.loc 1 553 0
 695 0224 038A     		ldrh	r3, [r0, #16]	@, USARTx_2(D)->CR2
 696 0226 23F02003 		bic	r3, r3, #32	@ D.7013, USARTx_2(D)->CR2,
 697 022a 1B04     		lsls	r3, r3, #16	@ D.7013, D.7013,
 698 022c 1B0C     		lsrs	r3, r3, #16	@ D.7013, D.7013,
 699 022e 0382     		strh	r3, [r0, #16]	@ movhi	@ D.7013, USARTx_2(D)->CR2
 554:Libraries/STM32F10x_StdPeriph_Driver/src/stm32f10x_usart.c ****   USARTx->CR2 |= USART_LINBreakDetectLength;  
 700              		.loc 1 554 0
 701 0230 038A     		ldrh	r3, [r0, #16]	@, USARTx_2(D)->CR2
 702 0232 9BB2     		uxth	r3, r3	@ D.7013, USARTx_2(D)->CR2
 703 0234 1943     		orrs	r1, r1, r3	@, D.7013, USART_LINBreakDetectLength, D.7013
 704              	.LVL71:
 705 0236 0182     		strh	r1, [r0, #16]	@ movhi	@ D.7013, USARTx_2(D)->CR2
 706 0238 7047     		bx	lr	@
 707              		.cfi_endproc
 708              	.LFE40:
 709              		.size	USART_LINBreakDetectLengthConfig, .-USART_LINBreakDetectLengthConfig
 710              		.align	1
 711              		.global	USART_LINCmd
 712              		.thumb
 713              		.thumb_func
 714              		.type	USART_LINCmd, %function
 715              	USART_LINCmd:
 716              	.LFB41:
 555:Libraries/STM32F10x_StdPeriph_Driver/src/stm32f10x_usart.c **** }
 556:Libraries/STM32F10x_StdPeriph_Driver/src/stm32f10x_usart.c **** 
 557:Libraries/STM32F10x_StdPeriph_Driver/src/stm32f10x_usart.c **** /**
 558:Libraries/STM32F10x_StdPeriph_Driver/src/stm32f10x_usart.c ****   * @brief  Enables or disables the USARTs LIN mode.
 559:Libraries/STM32F10x_StdPeriph_Driver/src/stm32f10x_usart.c ****   * @param  USARTx: Select the USART or the UART peripheral. 
 560:Libraries/STM32F10x_StdPeriph_Driver/src/stm32f10x_usart.c ****   *   This parameter can be one of the following values:
 561:Libraries/STM32F10x_StdPeriph_Driver/src/stm32f10x_usart.c ****   *   USART1, USART2, USART3, UART4 or UART5.
 562:Libraries/STM32F10x_StdPeriph_Driver/src/stm32f10x_usart.c ****   * @param  NewState: new state of the USART LIN mode.
ARM GAS  /var/folders/lp/0dm50ddn51vc39svyzv_6fp00000gn/T//ccLUgEfv.s 			page 24


 563:Libraries/STM32F10x_StdPeriph_Driver/src/stm32f10x_usart.c ****   *   This parameter can be: ENABLE or DISABLE.
 564:Libraries/STM32F10x_StdPeriph_Driver/src/stm32f10x_usart.c ****   * @retval None
 565:Libraries/STM32F10x_StdPeriph_Driver/src/stm32f10x_usart.c ****   */
 566:Libraries/STM32F10x_StdPeriph_Driver/src/stm32f10x_usart.c **** void USART_LINCmd(USART_TypeDef* USARTx, FunctionalState NewState)
 567:Libraries/STM32F10x_StdPeriph_Driver/src/stm32f10x_usart.c **** {
 717              		.loc 1 567 0
 718              		.cfi_startproc
 719              		@ args = 0, pretend = 0, frame = 0
 720              		@ frame_needed = 0, uses_anonymous_args = 0
 721              		@ link register save eliminated.
 722              	.LVL72:
 568:Libraries/STM32F10x_StdPeriph_Driver/src/stm32f10x_usart.c ****   /* Check the parameters */
 569:Libraries/STM32F10x_StdPeriph_Driver/src/stm32f10x_usart.c ****   assert_param(IS_USART_ALL_PERIPH(USARTx));
 570:Libraries/STM32F10x_StdPeriph_Driver/src/stm32f10x_usart.c ****   assert_param(IS_FUNCTIONAL_STATE(NewState));
 571:Libraries/STM32F10x_StdPeriph_Driver/src/stm32f10x_usart.c ****   
 572:Libraries/STM32F10x_StdPeriph_Driver/src/stm32f10x_usart.c ****   if (NewState != DISABLE)
 573:Libraries/STM32F10x_StdPeriph_Driver/src/stm32f10x_usart.c ****   {
 574:Libraries/STM32F10x_StdPeriph_Driver/src/stm32f10x_usart.c ****     /* Enable the LIN mode by setting the LINEN bit in the CR2 register */
 575:Libraries/STM32F10x_StdPeriph_Driver/src/stm32f10x_usart.c ****     USARTx->CR2 |= CR2_LINEN_Set;
 723              		.loc 1 575 0
 724 023a 038A     		ldrh	r3, [r0, #16]	@,
 572:Libraries/STM32F10x_StdPeriph_Driver/src/stm32f10x_usart.c ****   {
 725              		.loc 1 572 0
 726 023c 19B1     		cbz	r1, .L46	@ NewState,
 727              		.loc 1 575 0
 728 023e 9BB2     		uxth	r3, r3	@ D.7016, USARTx_4(D)->CR2
 729 0240 43F48043 		orr	r3, r3, #16384	@ D.7016, D.7016,
 730 0244 03E0     		b	.L48	@
 731              	.L46:
 576:Libraries/STM32F10x_StdPeriph_Driver/src/stm32f10x_usart.c ****   }
 577:Libraries/STM32F10x_StdPeriph_Driver/src/stm32f10x_usart.c ****   else
 578:Libraries/STM32F10x_StdPeriph_Driver/src/stm32f10x_usart.c ****   {
 579:Libraries/STM32F10x_StdPeriph_Driver/src/stm32f10x_usart.c ****     /* Disable the LIN mode by clearing the LINEN bit in the CR2 register */
 580:Libraries/STM32F10x_StdPeriph_Driver/src/stm32f10x_usart.c ****     USARTx->CR2 &= CR2_LINEN_Reset;
 732              		.loc 1 580 0
 733 0246 23F48043 		bic	r3, r3, #16384	@ D.7016, USARTx_4(D)->CR2,
 734 024a 1B04     		lsls	r3, r3, #16	@ D.7016, D.7016,
 735 024c 1B0C     		lsrs	r3, r3, #16	@ D.7016, D.7016,
 736              	.L48:
 737 024e 0382     		strh	r3, [r0, #16]	@ movhi	@ D.7016,
 738 0250 7047     		bx	lr	@
 739              		.cfi_endproc
 740              	.LFE41:
 741              		.size	USART_LINCmd, .-USART_LINCmd
 742              		.align	1
 743              		.global	USART_SendData
 744              		.thumb
 745              		.thumb_func
 746              		.type	USART_SendData, %function
 747              	USART_SendData:
 748              	.LFB42:
 581:Libraries/STM32F10x_StdPeriph_Driver/src/stm32f10x_usart.c ****   }
 582:Libraries/STM32F10x_StdPeriph_Driver/src/stm32f10x_usart.c **** }
 583:Libraries/STM32F10x_StdPeriph_Driver/src/stm32f10x_usart.c **** 
 584:Libraries/STM32F10x_StdPeriph_Driver/src/stm32f10x_usart.c **** /**
 585:Libraries/STM32F10x_StdPeriph_Driver/src/stm32f10x_usart.c ****   * @brief  Transmits single data through the USARTx peripheral.
 586:Libraries/STM32F10x_StdPeriph_Driver/src/stm32f10x_usart.c ****   * @param  USARTx: Select the USART or the UART peripheral. 
ARM GAS  /var/folders/lp/0dm50ddn51vc39svyzv_6fp00000gn/T//ccLUgEfv.s 			page 25


 587:Libraries/STM32F10x_StdPeriph_Driver/src/stm32f10x_usart.c ****   *   This parameter can be one of the following values:
 588:Libraries/STM32F10x_StdPeriph_Driver/src/stm32f10x_usart.c ****   *   USART1, USART2, USART3, UART4 or UART5.
 589:Libraries/STM32F10x_StdPeriph_Driver/src/stm32f10x_usart.c ****   * @param  Data: the data to transmit.
 590:Libraries/STM32F10x_StdPeriph_Driver/src/stm32f10x_usart.c ****   * @retval None
 591:Libraries/STM32F10x_StdPeriph_Driver/src/stm32f10x_usart.c ****   */
 592:Libraries/STM32F10x_StdPeriph_Driver/src/stm32f10x_usart.c **** void USART_SendData(USART_TypeDef* USARTx, uint16_t Data)
 593:Libraries/STM32F10x_StdPeriph_Driver/src/stm32f10x_usart.c **** {
 749              		.loc 1 593 0
 750              		.cfi_startproc
 751              		@ args = 0, pretend = 0, frame = 0
 752              		@ frame_needed = 0, uses_anonymous_args = 0
 753              		@ link register save eliminated.
 754              	.LVL73:
 594:Libraries/STM32F10x_StdPeriph_Driver/src/stm32f10x_usart.c ****   /* Check the parameters */
 595:Libraries/STM32F10x_StdPeriph_Driver/src/stm32f10x_usart.c ****   assert_param(IS_USART_ALL_PERIPH(USARTx));
 596:Libraries/STM32F10x_StdPeriph_Driver/src/stm32f10x_usart.c ****   assert_param(IS_USART_DATA(Data)); 
 597:Libraries/STM32F10x_StdPeriph_Driver/src/stm32f10x_usart.c ****     
 598:Libraries/STM32F10x_StdPeriph_Driver/src/stm32f10x_usart.c ****   /* Transmit Data */
 599:Libraries/STM32F10x_StdPeriph_Driver/src/stm32f10x_usart.c ****   USARTx->DR = (Data & (uint16_t)0x01FF);
 755              		.loc 1 599 0
 756 0252 C1F30801 		ubfx	r1, r1, #0, #9	@ D.7019, Data,,
 757              	.LVL74:
 758 0256 8180     		strh	r1, [r0, #4]	@ movhi	@ D.7019, USARTx_4(D)->DR
 759 0258 7047     		bx	lr	@
 760              		.cfi_endproc
 761              	.LFE42:
 762              		.size	USART_SendData, .-USART_SendData
 763              		.align	1
 764              		.global	USART_ReceiveData
 765              		.thumb
 766              		.thumb_func
 767              		.type	USART_ReceiveData, %function
 768              	USART_ReceiveData:
 769              	.LFB43:
 600:Libraries/STM32F10x_StdPeriph_Driver/src/stm32f10x_usart.c **** }
 601:Libraries/STM32F10x_StdPeriph_Driver/src/stm32f10x_usart.c **** 
 602:Libraries/STM32F10x_StdPeriph_Driver/src/stm32f10x_usart.c **** /**
 603:Libraries/STM32F10x_StdPeriph_Driver/src/stm32f10x_usart.c ****   * @brief  Returns the most recent received data by the USARTx peripheral.
 604:Libraries/STM32F10x_StdPeriph_Driver/src/stm32f10x_usart.c ****   * @param  USARTx: Select the USART or the UART peripheral. 
 605:Libraries/STM32F10x_StdPeriph_Driver/src/stm32f10x_usart.c ****   *   This parameter can be one of the following values:
 606:Libraries/STM32F10x_StdPeriph_Driver/src/stm32f10x_usart.c ****   *   USART1, USART2, USART3, UART4 or UART5.
 607:Libraries/STM32F10x_StdPeriph_Driver/src/stm32f10x_usart.c ****   * @retval The received data.
 608:Libraries/STM32F10x_StdPeriph_Driver/src/stm32f10x_usart.c ****   */
 609:Libraries/STM32F10x_StdPeriph_Driver/src/stm32f10x_usart.c **** uint16_t USART_ReceiveData(USART_TypeDef* USARTx)
 610:Libraries/STM32F10x_StdPeriph_Driver/src/stm32f10x_usart.c **** {
 770              		.loc 1 610 0
 771              		.cfi_startproc
 772              		@ args = 0, pretend = 0, frame = 0
 773              		@ frame_needed = 0, uses_anonymous_args = 0
 774              		@ link register save eliminated.
 775              	.LVL75:
 611:Libraries/STM32F10x_StdPeriph_Driver/src/stm32f10x_usart.c ****   /* Check the parameters */
 612:Libraries/STM32F10x_StdPeriph_Driver/src/stm32f10x_usart.c ****   assert_param(IS_USART_ALL_PERIPH(USARTx));
 613:Libraries/STM32F10x_StdPeriph_Driver/src/stm32f10x_usart.c ****   
 614:Libraries/STM32F10x_StdPeriph_Driver/src/stm32f10x_usart.c ****   /* Receive Data */
 615:Libraries/STM32F10x_StdPeriph_Driver/src/stm32f10x_usart.c ****   return (uint16_t)(USARTx->DR & (uint16_t)0x01FF);
 776              		.loc 1 615 0
ARM GAS  /var/folders/lp/0dm50ddn51vc39svyzv_6fp00000gn/T//ccLUgEfv.s 			page 26


 777 025a 8088     		ldrh	r0, [r0, #4]	@, USARTx_2(D)->DR
 778              	.LVL76:
 616:Libraries/STM32F10x_StdPeriph_Driver/src/stm32f10x_usart.c **** }
 779              		.loc 1 616 0
 780 025c C0F30800 		ubfx	r0, r0, #0, #9	@, USARTx_2(D)->DR,,
 781 0260 7047     		bx	lr	@
 782              		.cfi_endproc
 783              	.LFE43:
 784              		.size	USART_ReceiveData, .-USART_ReceiveData
 785              		.align	1
 786              		.global	USART_SendBreak
 787              		.thumb
 788              		.thumb_func
 789              		.type	USART_SendBreak, %function
 790              	USART_SendBreak:
 791              	.LFB44:
 617:Libraries/STM32F10x_StdPeriph_Driver/src/stm32f10x_usart.c **** 
 618:Libraries/STM32F10x_StdPeriph_Driver/src/stm32f10x_usart.c **** /**
 619:Libraries/STM32F10x_StdPeriph_Driver/src/stm32f10x_usart.c ****   * @brief  Transmits break characters.
 620:Libraries/STM32F10x_StdPeriph_Driver/src/stm32f10x_usart.c ****   * @param  USARTx: Select the USART or the UART peripheral. 
 621:Libraries/STM32F10x_StdPeriph_Driver/src/stm32f10x_usart.c ****   *   This parameter can be one of the following values:
 622:Libraries/STM32F10x_StdPeriph_Driver/src/stm32f10x_usart.c ****   *   USART1, USART2, USART3, UART4 or UART5.
 623:Libraries/STM32F10x_StdPeriph_Driver/src/stm32f10x_usart.c ****   * @retval None
 624:Libraries/STM32F10x_StdPeriph_Driver/src/stm32f10x_usart.c ****   */
 625:Libraries/STM32F10x_StdPeriph_Driver/src/stm32f10x_usart.c **** void USART_SendBreak(USART_TypeDef* USARTx)
 626:Libraries/STM32F10x_StdPeriph_Driver/src/stm32f10x_usart.c **** {
 792              		.loc 1 626 0
 793              		.cfi_startproc
 794              		@ args = 0, pretend = 0, frame = 0
 795              		@ frame_needed = 0, uses_anonymous_args = 0
 796              		@ link register save eliminated.
 797              	.LVL77:
 627:Libraries/STM32F10x_StdPeriph_Driver/src/stm32f10x_usart.c ****   /* Check the parameters */
 628:Libraries/STM32F10x_StdPeriph_Driver/src/stm32f10x_usart.c ****   assert_param(IS_USART_ALL_PERIPH(USARTx));
 629:Libraries/STM32F10x_StdPeriph_Driver/src/stm32f10x_usart.c ****   
 630:Libraries/STM32F10x_StdPeriph_Driver/src/stm32f10x_usart.c ****   /* Send break characters */
 631:Libraries/STM32F10x_StdPeriph_Driver/src/stm32f10x_usart.c ****   USARTx->CR1 |= CR1_SBK_Set;
 798              		.loc 1 631 0
 799 0262 8389     		ldrh	r3, [r0, #12]	@, USARTx_2(D)->CR1
 800 0264 9BB2     		uxth	r3, r3	@ D.7026, USARTx_2(D)->CR1
 801 0266 43F00103 		orr	r3, r3, #1	@ D.7026, D.7026,
 802 026a 8381     		strh	r3, [r0, #12]	@ movhi	@ D.7026, USARTx_2(D)->CR1
 803 026c 7047     		bx	lr	@
 804              		.cfi_endproc
 805              	.LFE44:
 806              		.size	USART_SendBreak, .-USART_SendBreak
 807              		.align	1
 808              		.global	USART_SetGuardTime
 809              		.thumb
 810              		.thumb_func
 811              		.type	USART_SetGuardTime, %function
 812              	USART_SetGuardTime:
 813              	.LFB45:
 632:Libraries/STM32F10x_StdPeriph_Driver/src/stm32f10x_usart.c **** }
 633:Libraries/STM32F10x_StdPeriph_Driver/src/stm32f10x_usart.c **** 
 634:Libraries/STM32F10x_StdPeriph_Driver/src/stm32f10x_usart.c **** /**
 635:Libraries/STM32F10x_StdPeriph_Driver/src/stm32f10x_usart.c ****   * @brief  Sets the specified USART guard time.
ARM GAS  /var/folders/lp/0dm50ddn51vc39svyzv_6fp00000gn/T//ccLUgEfv.s 			page 27


 636:Libraries/STM32F10x_StdPeriph_Driver/src/stm32f10x_usart.c ****   * @param  USARTx: where x can be 1, 2 or 3 to select the USART peripheral.
 637:Libraries/STM32F10x_StdPeriph_Driver/src/stm32f10x_usart.c ****   * @param  USART_GuardTime: specifies the guard time.
 638:Libraries/STM32F10x_StdPeriph_Driver/src/stm32f10x_usart.c ****   * @note The guard time bits are not available for UART4 and UART5.   
 639:Libraries/STM32F10x_StdPeriph_Driver/src/stm32f10x_usart.c ****   * @retval None
 640:Libraries/STM32F10x_StdPeriph_Driver/src/stm32f10x_usart.c ****   */
 641:Libraries/STM32F10x_StdPeriph_Driver/src/stm32f10x_usart.c **** void USART_SetGuardTime(USART_TypeDef* USARTx, uint8_t USART_GuardTime)
 642:Libraries/STM32F10x_StdPeriph_Driver/src/stm32f10x_usart.c **** {    
 814              		.loc 1 642 0
 815              		.cfi_startproc
 816              		@ args = 0, pretend = 0, frame = 0
 817              		@ frame_needed = 0, uses_anonymous_args = 0
 818              		@ link register save eliminated.
 819              	.LVL78:
 643:Libraries/STM32F10x_StdPeriph_Driver/src/stm32f10x_usart.c ****   /* Check the parameters */
 644:Libraries/STM32F10x_StdPeriph_Driver/src/stm32f10x_usart.c ****   assert_param(IS_USART_123_PERIPH(USARTx));
 645:Libraries/STM32F10x_StdPeriph_Driver/src/stm32f10x_usart.c ****   
 646:Libraries/STM32F10x_StdPeriph_Driver/src/stm32f10x_usart.c ****   /* Clear the USART Guard time */
 647:Libraries/STM32F10x_StdPeriph_Driver/src/stm32f10x_usart.c ****   USARTx->GTPR &= GTPR_LSB_Mask;
 820              		.loc 1 647 0
 821 026e 038B     		ldrh	r3, [r0, #24]	@, USARTx_2(D)->GTPR
 822 0270 DBB2     		uxtb	r3, r3	@ D.7029, USARTx_2(D)->GTPR
 823 0272 0383     		strh	r3, [r0, #24]	@ movhi	@ D.7029, USARTx_2(D)->GTPR
 648:Libraries/STM32F10x_StdPeriph_Driver/src/stm32f10x_usart.c ****   /* Set the USART guard time */
 649:Libraries/STM32F10x_StdPeriph_Driver/src/stm32f10x_usart.c ****   USARTx->GTPR |= (uint16_t)((uint16_t)USART_GuardTime << 0x08);
 824              		.loc 1 649 0
 825 0274 038B     		ldrh	r3, [r0, #24]	@, USARTx_2(D)->GTPR
 826 0276 9BB2     		uxth	r3, r3	@ D.7029, USARTx_2(D)->GTPR
 827 0278 43EA0121 		orr	r1, r3, r1, lsl #8	@ D.7029, D.7029, USART_GuardTime,
 828              	.LVL79:
 829 027c 0183     		strh	r1, [r0, #24]	@ movhi	@ D.7029, USARTx_2(D)->GTPR
 830 027e 7047     		bx	lr	@
 831              		.cfi_endproc
 832              	.LFE45:
 833              		.size	USART_SetGuardTime, .-USART_SetGuardTime
 834              		.align	1
 835              		.global	USART_SetPrescaler
 836              		.thumb
 837              		.thumb_func
 838              		.type	USART_SetPrescaler, %function
 839              	USART_SetPrescaler:
 840              	.LFB46:
 650:Libraries/STM32F10x_StdPeriph_Driver/src/stm32f10x_usart.c **** }
 651:Libraries/STM32F10x_StdPeriph_Driver/src/stm32f10x_usart.c **** 
 652:Libraries/STM32F10x_StdPeriph_Driver/src/stm32f10x_usart.c **** /**
 653:Libraries/STM32F10x_StdPeriph_Driver/src/stm32f10x_usart.c ****   * @brief  Sets the system clock prescaler.
 654:Libraries/STM32F10x_StdPeriph_Driver/src/stm32f10x_usart.c ****   * @param  USARTx: Select the USART or the UART peripheral. 
 655:Libraries/STM32F10x_StdPeriph_Driver/src/stm32f10x_usart.c ****   *   This parameter can be one of the following values:
 656:Libraries/STM32F10x_StdPeriph_Driver/src/stm32f10x_usart.c ****   *   USART1, USART2, USART3, UART4 or UART5.
 657:Libraries/STM32F10x_StdPeriph_Driver/src/stm32f10x_usart.c ****   * @param  USART_Prescaler: specifies the prescaler clock.  
 658:Libraries/STM32F10x_StdPeriph_Driver/src/stm32f10x_usart.c ****   * @note   The function is used for IrDA mode with UART4 and UART5.
 659:Libraries/STM32F10x_StdPeriph_Driver/src/stm32f10x_usart.c ****   * @retval None
 660:Libraries/STM32F10x_StdPeriph_Driver/src/stm32f10x_usart.c ****   */
 661:Libraries/STM32F10x_StdPeriph_Driver/src/stm32f10x_usart.c **** void USART_SetPrescaler(USART_TypeDef* USARTx, uint8_t USART_Prescaler)
 662:Libraries/STM32F10x_StdPeriph_Driver/src/stm32f10x_usart.c **** { 
 841              		.loc 1 662 0
 842              		.cfi_startproc
 843              		@ args = 0, pretend = 0, frame = 0
ARM GAS  /var/folders/lp/0dm50ddn51vc39svyzv_6fp00000gn/T//ccLUgEfv.s 			page 28


 844              		@ frame_needed = 0, uses_anonymous_args = 0
 845              		@ link register save eliminated.
 846              	.LVL80:
 663:Libraries/STM32F10x_StdPeriph_Driver/src/stm32f10x_usart.c ****   /* Check the parameters */
 664:Libraries/STM32F10x_StdPeriph_Driver/src/stm32f10x_usart.c ****   assert_param(IS_USART_ALL_PERIPH(USARTx));
 665:Libraries/STM32F10x_StdPeriph_Driver/src/stm32f10x_usart.c ****   
 666:Libraries/STM32F10x_StdPeriph_Driver/src/stm32f10x_usart.c ****   /* Clear the USART prescaler */
 667:Libraries/STM32F10x_StdPeriph_Driver/src/stm32f10x_usart.c ****   USARTx->GTPR &= GTPR_MSB_Mask;
 847              		.loc 1 667 0
 848 0280 038B     		ldrh	r3, [r0, #24]	@, USARTx_2(D)->GTPR
 849 0282 03F47F43 		and	r3, r3, #65280	@ D.7032, USARTx_2(D)->GTPR,
 850 0286 0383     		strh	r3, [r0, #24]	@ movhi	@ D.7032, USARTx_2(D)->GTPR
 668:Libraries/STM32F10x_StdPeriph_Driver/src/stm32f10x_usart.c ****   /* Set the USART prescaler */
 669:Libraries/STM32F10x_StdPeriph_Driver/src/stm32f10x_usart.c ****   USARTx->GTPR |= USART_Prescaler;
 851              		.loc 1 669 0
 852 0288 038B     		ldrh	r3, [r0, #24]	@, USARTx_2(D)->GTPR
 853 028a 9BB2     		uxth	r3, r3	@ D.7032, USARTx_2(D)->GTPR
 854 028c 1943     		orrs	r1, r1, r3	@, D.7032, USART_Prescaler, D.7032
 855              	.LVL81:
 856 028e 0183     		strh	r1, [r0, #24]	@ movhi	@ D.7032, USARTx_2(D)->GTPR
 857 0290 7047     		bx	lr	@
 858              		.cfi_endproc
 859              	.LFE46:
 860              		.size	USART_SetPrescaler, .-USART_SetPrescaler
 861              		.align	1
 862              		.global	USART_SmartCardCmd
 863              		.thumb
 864              		.thumb_func
 865              		.type	USART_SmartCardCmd, %function
 866              	USART_SmartCardCmd:
 867              	.LFB47:
 670:Libraries/STM32F10x_StdPeriph_Driver/src/stm32f10x_usart.c **** }
 671:Libraries/STM32F10x_StdPeriph_Driver/src/stm32f10x_usart.c **** 
 672:Libraries/STM32F10x_StdPeriph_Driver/src/stm32f10x_usart.c **** /**
 673:Libraries/STM32F10x_StdPeriph_Driver/src/stm32f10x_usart.c ****   * @brief  Enables or disables the USARTs Smart Card mode.
 674:Libraries/STM32F10x_StdPeriph_Driver/src/stm32f10x_usart.c ****   * @param  USARTx: where x can be 1, 2 or 3 to select the USART peripheral.
 675:Libraries/STM32F10x_StdPeriph_Driver/src/stm32f10x_usart.c ****   * @param  NewState: new state of the Smart Card mode.
 676:Libraries/STM32F10x_StdPeriph_Driver/src/stm32f10x_usart.c ****   *   This parameter can be: ENABLE or DISABLE.     
 677:Libraries/STM32F10x_StdPeriph_Driver/src/stm32f10x_usart.c ****   * @note The Smart Card mode is not available for UART4 and UART5. 
 678:Libraries/STM32F10x_StdPeriph_Driver/src/stm32f10x_usart.c ****   * @retval None
 679:Libraries/STM32F10x_StdPeriph_Driver/src/stm32f10x_usart.c ****   */
 680:Libraries/STM32F10x_StdPeriph_Driver/src/stm32f10x_usart.c **** void USART_SmartCardCmd(USART_TypeDef* USARTx, FunctionalState NewState)
 681:Libraries/STM32F10x_StdPeriph_Driver/src/stm32f10x_usart.c **** {
 868              		.loc 1 681 0
 869              		.cfi_startproc
 870              		@ args = 0, pretend = 0, frame = 0
 871              		@ frame_needed = 0, uses_anonymous_args = 0
 872              		@ link register save eliminated.
 873              	.LVL82:
 682:Libraries/STM32F10x_StdPeriph_Driver/src/stm32f10x_usart.c ****   /* Check the parameters */
 683:Libraries/STM32F10x_StdPeriph_Driver/src/stm32f10x_usart.c ****   assert_param(IS_USART_123_PERIPH(USARTx));
 684:Libraries/STM32F10x_StdPeriph_Driver/src/stm32f10x_usart.c ****   assert_param(IS_FUNCTIONAL_STATE(NewState));
 685:Libraries/STM32F10x_StdPeriph_Driver/src/stm32f10x_usart.c ****   if (NewState != DISABLE)
 686:Libraries/STM32F10x_StdPeriph_Driver/src/stm32f10x_usart.c ****   {
 687:Libraries/STM32F10x_StdPeriph_Driver/src/stm32f10x_usart.c ****     /* Enable the SC mode by setting the SCEN bit in the CR3 register */
 688:Libraries/STM32F10x_StdPeriph_Driver/src/stm32f10x_usart.c ****     USARTx->CR3 |= CR3_SCEN_Set;
 874              		.loc 1 688 0
ARM GAS  /var/folders/lp/0dm50ddn51vc39svyzv_6fp00000gn/T//ccLUgEfv.s 			page 29


 875 0292 838A     		ldrh	r3, [r0, #20]	@,
 685:Libraries/STM32F10x_StdPeriph_Driver/src/stm32f10x_usart.c ****   {
 876              		.loc 1 685 0
 877 0294 19B1     		cbz	r1, .L55	@ NewState,
 878              		.loc 1 688 0
 879 0296 9BB2     		uxth	r3, r3	@ D.7035, USARTx_4(D)->CR3
 880 0298 43F02003 		orr	r3, r3, #32	@ D.7035, D.7035,
 881 029c 03E0     		b	.L57	@
 882              	.L55:
 689:Libraries/STM32F10x_StdPeriph_Driver/src/stm32f10x_usart.c ****   }
 690:Libraries/STM32F10x_StdPeriph_Driver/src/stm32f10x_usart.c ****   else
 691:Libraries/STM32F10x_StdPeriph_Driver/src/stm32f10x_usart.c ****   {
 692:Libraries/STM32F10x_StdPeriph_Driver/src/stm32f10x_usart.c ****     /* Disable the SC mode by clearing the SCEN bit in the CR3 register */
 693:Libraries/STM32F10x_StdPeriph_Driver/src/stm32f10x_usart.c ****     USARTx->CR3 &= CR3_SCEN_Reset;
 883              		.loc 1 693 0
 884 029e 23F02003 		bic	r3, r3, #32	@ D.7035, USARTx_4(D)->CR3,
 885 02a2 1B04     		lsls	r3, r3, #16	@ D.7035, D.7035,
 886 02a4 1B0C     		lsrs	r3, r3, #16	@ D.7035, D.7035,
 887              	.L57:
 888 02a6 8382     		strh	r3, [r0, #20]	@ movhi	@ D.7035,
 889 02a8 7047     		bx	lr	@
 890              		.cfi_endproc
 891              	.LFE47:
 892              		.size	USART_SmartCardCmd, .-USART_SmartCardCmd
 893              		.align	1
 894              		.global	USART_SmartCardNACKCmd
 895              		.thumb
 896              		.thumb_func
 897              		.type	USART_SmartCardNACKCmd, %function
 898              	USART_SmartCardNACKCmd:
 899              	.LFB48:
 694:Libraries/STM32F10x_StdPeriph_Driver/src/stm32f10x_usart.c ****   }
 695:Libraries/STM32F10x_StdPeriph_Driver/src/stm32f10x_usart.c **** }
 696:Libraries/STM32F10x_StdPeriph_Driver/src/stm32f10x_usart.c **** 
 697:Libraries/STM32F10x_StdPeriph_Driver/src/stm32f10x_usart.c **** /**
 698:Libraries/STM32F10x_StdPeriph_Driver/src/stm32f10x_usart.c ****   * @brief  Enables or disables NACK transmission.
 699:Libraries/STM32F10x_StdPeriph_Driver/src/stm32f10x_usart.c ****   * @param  USARTx: where x can be 1, 2 or 3 to select the USART peripheral. 
 700:Libraries/STM32F10x_StdPeriph_Driver/src/stm32f10x_usart.c ****   * @param  NewState: new state of the NACK transmission.
 701:Libraries/STM32F10x_StdPeriph_Driver/src/stm32f10x_usart.c ****   *   This parameter can be: ENABLE or DISABLE.  
 702:Libraries/STM32F10x_StdPeriph_Driver/src/stm32f10x_usart.c ****   * @note The Smart Card mode is not available for UART4 and UART5.
 703:Libraries/STM32F10x_StdPeriph_Driver/src/stm32f10x_usart.c ****   * @retval None
 704:Libraries/STM32F10x_StdPeriph_Driver/src/stm32f10x_usart.c ****   */
 705:Libraries/STM32F10x_StdPeriph_Driver/src/stm32f10x_usart.c **** void USART_SmartCardNACKCmd(USART_TypeDef* USARTx, FunctionalState NewState)
 706:Libraries/STM32F10x_StdPeriph_Driver/src/stm32f10x_usart.c **** {
 900              		.loc 1 706 0
 901              		.cfi_startproc
 902              		@ args = 0, pretend = 0, frame = 0
 903              		@ frame_needed = 0, uses_anonymous_args = 0
 904              		@ link register save eliminated.
 905              	.LVL83:
 707:Libraries/STM32F10x_StdPeriph_Driver/src/stm32f10x_usart.c ****   /* Check the parameters */
 708:Libraries/STM32F10x_StdPeriph_Driver/src/stm32f10x_usart.c ****   assert_param(IS_USART_123_PERIPH(USARTx));  
 709:Libraries/STM32F10x_StdPeriph_Driver/src/stm32f10x_usart.c ****   assert_param(IS_FUNCTIONAL_STATE(NewState));
 710:Libraries/STM32F10x_StdPeriph_Driver/src/stm32f10x_usart.c ****   if (NewState != DISABLE)
 711:Libraries/STM32F10x_StdPeriph_Driver/src/stm32f10x_usart.c ****   {
 712:Libraries/STM32F10x_StdPeriph_Driver/src/stm32f10x_usart.c ****     /* Enable the NACK transmission by setting the NACK bit in the CR3 register */
 713:Libraries/STM32F10x_StdPeriph_Driver/src/stm32f10x_usart.c ****     USARTx->CR3 |= CR3_NACK_Set;
ARM GAS  /var/folders/lp/0dm50ddn51vc39svyzv_6fp00000gn/T//ccLUgEfv.s 			page 30


 906              		.loc 1 713 0
 907 02aa 838A     		ldrh	r3, [r0, #20]	@,
 710:Libraries/STM32F10x_StdPeriph_Driver/src/stm32f10x_usart.c ****   {
 908              		.loc 1 710 0
 909 02ac 19B1     		cbz	r1, .L59	@ NewState,
 910              		.loc 1 713 0
 911 02ae 9BB2     		uxth	r3, r3	@ D.7038, USARTx_4(D)->CR3
 912 02b0 43F01003 		orr	r3, r3, #16	@ D.7038, D.7038,
 913 02b4 03E0     		b	.L61	@
 914              	.L59:
 714:Libraries/STM32F10x_StdPeriph_Driver/src/stm32f10x_usart.c ****   }
 715:Libraries/STM32F10x_StdPeriph_Driver/src/stm32f10x_usart.c ****   else
 716:Libraries/STM32F10x_StdPeriph_Driver/src/stm32f10x_usart.c ****   {
 717:Libraries/STM32F10x_StdPeriph_Driver/src/stm32f10x_usart.c ****     /* Disable the NACK transmission by clearing the NACK bit in the CR3 register */
 718:Libraries/STM32F10x_StdPeriph_Driver/src/stm32f10x_usart.c ****     USARTx->CR3 &= CR3_NACK_Reset;
 915              		.loc 1 718 0
 916 02b6 23F01003 		bic	r3, r3, #16	@ D.7038, USARTx_4(D)->CR3,
 917 02ba 1B04     		lsls	r3, r3, #16	@ D.7038, D.7038,
 918 02bc 1B0C     		lsrs	r3, r3, #16	@ D.7038, D.7038,
 919              	.L61:
 920 02be 8382     		strh	r3, [r0, #20]	@ movhi	@ D.7038,
 921 02c0 7047     		bx	lr	@
 922              		.cfi_endproc
 923              	.LFE48:
 924              		.size	USART_SmartCardNACKCmd, .-USART_SmartCardNACKCmd
 925              		.align	1
 926              		.global	USART_HalfDuplexCmd
 927              		.thumb
 928              		.thumb_func
 929              		.type	USART_HalfDuplexCmd, %function
 930              	USART_HalfDuplexCmd:
 931              	.LFB49:
 719:Libraries/STM32F10x_StdPeriph_Driver/src/stm32f10x_usart.c ****   }
 720:Libraries/STM32F10x_StdPeriph_Driver/src/stm32f10x_usart.c **** }
 721:Libraries/STM32F10x_StdPeriph_Driver/src/stm32f10x_usart.c **** 
 722:Libraries/STM32F10x_StdPeriph_Driver/src/stm32f10x_usart.c **** /**
 723:Libraries/STM32F10x_StdPeriph_Driver/src/stm32f10x_usart.c ****   * @brief  Enables or disables the USARTs Half Duplex communication.
 724:Libraries/STM32F10x_StdPeriph_Driver/src/stm32f10x_usart.c ****   * @param  USARTx: Select the USART or the UART peripheral. 
 725:Libraries/STM32F10x_StdPeriph_Driver/src/stm32f10x_usart.c ****   *   This parameter can be one of the following values:
 726:Libraries/STM32F10x_StdPeriph_Driver/src/stm32f10x_usart.c ****   *   USART1, USART2, USART3, UART4 or UART5.
 727:Libraries/STM32F10x_StdPeriph_Driver/src/stm32f10x_usart.c ****   * @param  NewState: new state of the USART Communication.
 728:Libraries/STM32F10x_StdPeriph_Driver/src/stm32f10x_usart.c ****   *   This parameter can be: ENABLE or DISABLE.
 729:Libraries/STM32F10x_StdPeriph_Driver/src/stm32f10x_usart.c ****   * @retval None
 730:Libraries/STM32F10x_StdPeriph_Driver/src/stm32f10x_usart.c ****   */
 731:Libraries/STM32F10x_StdPeriph_Driver/src/stm32f10x_usart.c **** void USART_HalfDuplexCmd(USART_TypeDef* USARTx, FunctionalState NewState)
 732:Libraries/STM32F10x_StdPeriph_Driver/src/stm32f10x_usart.c **** {
 932              		.loc 1 732 0
 933              		.cfi_startproc
 934              		@ args = 0, pretend = 0, frame = 0
 935              		@ frame_needed = 0, uses_anonymous_args = 0
 936              		@ link register save eliminated.
 937              	.LVL84:
 733:Libraries/STM32F10x_StdPeriph_Driver/src/stm32f10x_usart.c ****   /* Check the parameters */
 734:Libraries/STM32F10x_StdPeriph_Driver/src/stm32f10x_usart.c ****   assert_param(IS_USART_ALL_PERIPH(USARTx));
 735:Libraries/STM32F10x_StdPeriph_Driver/src/stm32f10x_usart.c ****   assert_param(IS_FUNCTIONAL_STATE(NewState));
 736:Libraries/STM32F10x_StdPeriph_Driver/src/stm32f10x_usart.c ****   
 737:Libraries/STM32F10x_StdPeriph_Driver/src/stm32f10x_usart.c ****   if (NewState != DISABLE)
ARM GAS  /var/folders/lp/0dm50ddn51vc39svyzv_6fp00000gn/T//ccLUgEfv.s 			page 31


 738:Libraries/STM32F10x_StdPeriph_Driver/src/stm32f10x_usart.c ****   {
 739:Libraries/STM32F10x_StdPeriph_Driver/src/stm32f10x_usart.c ****     /* Enable the Half-Duplex mode by setting the HDSEL bit in the CR3 register */
 740:Libraries/STM32F10x_StdPeriph_Driver/src/stm32f10x_usart.c ****     USARTx->CR3 |= CR3_HDSEL_Set;
 938              		.loc 1 740 0
 939 02c2 838A     		ldrh	r3, [r0, #20]	@,
 737:Libraries/STM32F10x_StdPeriph_Driver/src/stm32f10x_usart.c ****   {
 940              		.loc 1 737 0
 941 02c4 19B1     		cbz	r1, .L63	@ NewState,
 942              		.loc 1 740 0
 943 02c6 9BB2     		uxth	r3, r3	@ D.7041, USARTx_4(D)->CR3
 944 02c8 43F00803 		orr	r3, r3, #8	@ D.7041, D.7041,
 945 02cc 03E0     		b	.L65	@
 946              	.L63:
 741:Libraries/STM32F10x_StdPeriph_Driver/src/stm32f10x_usart.c ****   }
 742:Libraries/STM32F10x_StdPeriph_Driver/src/stm32f10x_usart.c ****   else
 743:Libraries/STM32F10x_StdPeriph_Driver/src/stm32f10x_usart.c ****   {
 744:Libraries/STM32F10x_StdPeriph_Driver/src/stm32f10x_usart.c ****     /* Disable the Half-Duplex mode by clearing the HDSEL bit in the CR3 register */
 745:Libraries/STM32F10x_StdPeriph_Driver/src/stm32f10x_usart.c ****     USARTx->CR3 &= CR3_HDSEL_Reset;
 947              		.loc 1 745 0
 948 02ce 23F00803 		bic	r3, r3, #8	@ D.7041, USARTx_4(D)->CR3,
 949 02d2 1B04     		lsls	r3, r3, #16	@ D.7041, D.7041,
 950 02d4 1B0C     		lsrs	r3, r3, #16	@ D.7041, D.7041,
 951              	.L65:
 952 02d6 8382     		strh	r3, [r0, #20]	@ movhi	@ D.7041,
 953 02d8 7047     		bx	lr	@
 954              		.cfi_endproc
 955              	.LFE49:
 956              		.size	USART_HalfDuplexCmd, .-USART_HalfDuplexCmd
 957              		.align	1
 958              		.global	USART_OverSampling8Cmd
 959              		.thumb
 960              		.thumb_func
 961              		.type	USART_OverSampling8Cmd, %function
 962              	USART_OverSampling8Cmd:
 963              	.LFB50:
 746:Libraries/STM32F10x_StdPeriph_Driver/src/stm32f10x_usart.c ****   }
 747:Libraries/STM32F10x_StdPeriph_Driver/src/stm32f10x_usart.c **** }
 748:Libraries/STM32F10x_StdPeriph_Driver/src/stm32f10x_usart.c **** 
 749:Libraries/STM32F10x_StdPeriph_Driver/src/stm32f10x_usart.c **** 
 750:Libraries/STM32F10x_StdPeriph_Driver/src/stm32f10x_usart.c **** /**
 751:Libraries/STM32F10x_StdPeriph_Driver/src/stm32f10x_usart.c ****   * @brief  Enables or disables the USART's 8x oversampling mode.
 752:Libraries/STM32F10x_StdPeriph_Driver/src/stm32f10x_usart.c ****   * @param  USARTx: Select the USART or the UART peripheral.
 753:Libraries/STM32F10x_StdPeriph_Driver/src/stm32f10x_usart.c ****   *   This parameter can be one of the following values:
 754:Libraries/STM32F10x_StdPeriph_Driver/src/stm32f10x_usart.c ****   *   USART1, USART2, USART3, UART4 or UART5.
 755:Libraries/STM32F10x_StdPeriph_Driver/src/stm32f10x_usart.c ****   * @param  NewState: new state of the USART one bit sampling method.
 756:Libraries/STM32F10x_StdPeriph_Driver/src/stm32f10x_usart.c ****   *   This parameter can be: ENABLE or DISABLE.
 757:Libraries/STM32F10x_StdPeriph_Driver/src/stm32f10x_usart.c ****   * @note
 758:Libraries/STM32F10x_StdPeriph_Driver/src/stm32f10x_usart.c ****   *     This function has to be called before calling USART_Init()
 759:Libraries/STM32F10x_StdPeriph_Driver/src/stm32f10x_usart.c ****   *     function in order to have correct baudrate Divider value.   
 760:Libraries/STM32F10x_StdPeriph_Driver/src/stm32f10x_usart.c ****   * @retval None
 761:Libraries/STM32F10x_StdPeriph_Driver/src/stm32f10x_usart.c ****   */
 762:Libraries/STM32F10x_StdPeriph_Driver/src/stm32f10x_usart.c **** void USART_OverSampling8Cmd(USART_TypeDef* USARTx, FunctionalState NewState)
 763:Libraries/STM32F10x_StdPeriph_Driver/src/stm32f10x_usart.c **** {
 964              		.loc 1 763 0
 965              		.cfi_startproc
 966              		@ args = 0, pretend = 0, frame = 0
 967              		@ frame_needed = 0, uses_anonymous_args = 0
ARM GAS  /var/folders/lp/0dm50ddn51vc39svyzv_6fp00000gn/T//ccLUgEfv.s 			page 32


 968              		@ link register save eliminated.
 969              	.LVL85:
 764:Libraries/STM32F10x_StdPeriph_Driver/src/stm32f10x_usart.c ****   /* Check the parameters */
 765:Libraries/STM32F10x_StdPeriph_Driver/src/stm32f10x_usart.c ****   assert_param(IS_USART_ALL_PERIPH(USARTx));
 766:Libraries/STM32F10x_StdPeriph_Driver/src/stm32f10x_usart.c ****   assert_param(IS_FUNCTIONAL_STATE(NewState));
 767:Libraries/STM32F10x_StdPeriph_Driver/src/stm32f10x_usart.c ****   
 768:Libraries/STM32F10x_StdPeriph_Driver/src/stm32f10x_usart.c ****   if (NewState != DISABLE)
 769:Libraries/STM32F10x_StdPeriph_Driver/src/stm32f10x_usart.c ****   {
 770:Libraries/STM32F10x_StdPeriph_Driver/src/stm32f10x_usart.c ****     /* Enable the 8x Oversampling mode by setting the OVER8 bit in the CR1 register */
 771:Libraries/STM32F10x_StdPeriph_Driver/src/stm32f10x_usart.c ****     USARTx->CR1 |= CR1_OVER8_Set;
 970              		.loc 1 771 0
 971 02da 8389     		ldrh	r3, [r0, #12]	@,
 768:Libraries/STM32F10x_StdPeriph_Driver/src/stm32f10x_usart.c ****   {
 972              		.loc 1 768 0
 973 02dc 29B1     		cbz	r1, .L67	@ NewState,
 974              		.loc 1 771 0
 975 02de 6FEA4343 		mvn	r3, r3, lsl #17	@ tmp118, USARTx_4(D)->CR1,
 976 02e2 6FEA5343 		mvn	r3, r3, lsr #17	@ tmp118, tmp118,
 977 02e6 9BB2     		uxth	r3, r3	@ D.7044, tmp118
 978 02e8 01E0     		b	.L69	@
 979              	.L67:
 772:Libraries/STM32F10x_StdPeriph_Driver/src/stm32f10x_usart.c ****   }
 773:Libraries/STM32F10x_StdPeriph_Driver/src/stm32f10x_usart.c ****   else
 774:Libraries/STM32F10x_StdPeriph_Driver/src/stm32f10x_usart.c ****   {
 775:Libraries/STM32F10x_StdPeriph_Driver/src/stm32f10x_usart.c ****     /* Disable the 8x Oversampling mode by clearing the OVER8 bit in the CR1 register */
 776:Libraries/STM32F10x_StdPeriph_Driver/src/stm32f10x_usart.c ****     USARTx->CR1 &= CR1_OVER8_Reset;
 980              		.loc 1 776 0
 981 02ea C3F30E03 		ubfx	r3, r3, #0, #15	@ D.7044, USARTx_4(D)->CR1,,
 982              	.L69:
 983 02ee 8381     		strh	r3, [r0, #12]	@ movhi	@ D.7044,
 984 02f0 7047     		bx	lr	@
 985              		.cfi_endproc
 986              	.LFE50:
 987              		.size	USART_OverSampling8Cmd, .-USART_OverSampling8Cmd
 988              		.align	1
 989              		.global	USART_OneBitMethodCmd
 990              		.thumb
 991              		.thumb_func
 992              		.type	USART_OneBitMethodCmd, %function
 993              	USART_OneBitMethodCmd:
 994              	.LFB51:
 777:Libraries/STM32F10x_StdPeriph_Driver/src/stm32f10x_usart.c ****   }
 778:Libraries/STM32F10x_StdPeriph_Driver/src/stm32f10x_usart.c **** }
 779:Libraries/STM32F10x_StdPeriph_Driver/src/stm32f10x_usart.c **** 
 780:Libraries/STM32F10x_StdPeriph_Driver/src/stm32f10x_usart.c **** /**
 781:Libraries/STM32F10x_StdPeriph_Driver/src/stm32f10x_usart.c ****   * @brief  Enables or disables the USART's one bit sampling method.
 782:Libraries/STM32F10x_StdPeriph_Driver/src/stm32f10x_usart.c ****   * @param  USARTx: Select the USART or the UART peripheral.
 783:Libraries/STM32F10x_StdPeriph_Driver/src/stm32f10x_usart.c ****   *   This parameter can be one of the following values:
 784:Libraries/STM32F10x_StdPeriph_Driver/src/stm32f10x_usart.c ****   *   USART1, USART2, USART3, UART4 or UART5.
 785:Libraries/STM32F10x_StdPeriph_Driver/src/stm32f10x_usart.c ****   * @param  NewState: new state of the USART one bit sampling method.
 786:Libraries/STM32F10x_StdPeriph_Driver/src/stm32f10x_usart.c ****   *   This parameter can be: ENABLE or DISABLE.
 787:Libraries/STM32F10x_StdPeriph_Driver/src/stm32f10x_usart.c ****   * @retval None
 788:Libraries/STM32F10x_StdPeriph_Driver/src/stm32f10x_usart.c ****   */
 789:Libraries/STM32F10x_StdPeriph_Driver/src/stm32f10x_usart.c **** void USART_OneBitMethodCmd(USART_TypeDef* USARTx, FunctionalState NewState)
 790:Libraries/STM32F10x_StdPeriph_Driver/src/stm32f10x_usart.c **** {
 995              		.loc 1 790 0
 996              		.cfi_startproc
ARM GAS  /var/folders/lp/0dm50ddn51vc39svyzv_6fp00000gn/T//ccLUgEfv.s 			page 33


 997              		@ args = 0, pretend = 0, frame = 0
 998              		@ frame_needed = 0, uses_anonymous_args = 0
 999              		@ link register save eliminated.
 1000              	.LVL86:
 791:Libraries/STM32F10x_StdPeriph_Driver/src/stm32f10x_usart.c ****   /* Check the parameters */
 792:Libraries/STM32F10x_StdPeriph_Driver/src/stm32f10x_usart.c ****   assert_param(IS_USART_ALL_PERIPH(USARTx));
 793:Libraries/STM32F10x_StdPeriph_Driver/src/stm32f10x_usart.c ****   assert_param(IS_FUNCTIONAL_STATE(NewState));
 794:Libraries/STM32F10x_StdPeriph_Driver/src/stm32f10x_usart.c ****   
 795:Libraries/STM32F10x_StdPeriph_Driver/src/stm32f10x_usart.c ****   if (NewState != DISABLE)
 796:Libraries/STM32F10x_StdPeriph_Driver/src/stm32f10x_usart.c ****   {
 797:Libraries/STM32F10x_StdPeriph_Driver/src/stm32f10x_usart.c ****     /* Enable the one bit method by setting the ONEBITE bit in the CR3 register */
 798:Libraries/STM32F10x_StdPeriph_Driver/src/stm32f10x_usart.c ****     USARTx->CR3 |= CR3_ONEBITE_Set;
 1001              		.loc 1 798 0
 1002 02f2 838A     		ldrh	r3, [r0, #20]	@,
 795:Libraries/STM32F10x_StdPeriph_Driver/src/stm32f10x_usart.c ****   {
 1003              		.loc 1 795 0
 1004 02f4 19B1     		cbz	r1, .L71	@ NewState,
 1005              		.loc 1 798 0
 1006 02f6 9BB2     		uxth	r3, r3	@ D.7047, USARTx_4(D)->CR3
 1007 02f8 43F40063 		orr	r3, r3, #2048	@ D.7047, D.7047,
 1008 02fc 03E0     		b	.L73	@
 1009              	.L71:
 799:Libraries/STM32F10x_StdPeriph_Driver/src/stm32f10x_usart.c ****   }
 800:Libraries/STM32F10x_StdPeriph_Driver/src/stm32f10x_usart.c ****   else
 801:Libraries/STM32F10x_StdPeriph_Driver/src/stm32f10x_usart.c ****   {
 802:Libraries/STM32F10x_StdPeriph_Driver/src/stm32f10x_usart.c ****     /* Disable tthe one bit method by clearing the ONEBITE bit in the CR3 register */
 803:Libraries/STM32F10x_StdPeriph_Driver/src/stm32f10x_usart.c ****     USARTx->CR3 &= CR3_ONEBITE_Reset;
 1010              		.loc 1 803 0
 1011 02fe 23F40063 		bic	r3, r3, #2048	@ D.7047, USARTx_4(D)->CR3,
 1012 0302 1B04     		lsls	r3, r3, #16	@ D.7047, D.7047,
 1013 0304 1B0C     		lsrs	r3, r3, #16	@ D.7047, D.7047,
 1014              	.L73:
 1015 0306 8382     		strh	r3, [r0, #20]	@ movhi	@ D.7047,
 1016 0308 7047     		bx	lr	@
 1017              		.cfi_endproc
 1018              	.LFE51:
 1019              		.size	USART_OneBitMethodCmd, .-USART_OneBitMethodCmd
 1020              		.align	1
 1021              		.global	USART_IrDAConfig
 1022              		.thumb
 1023              		.thumb_func
 1024              		.type	USART_IrDAConfig, %function
 1025              	USART_IrDAConfig:
 1026              	.LFB52:
 804:Libraries/STM32F10x_StdPeriph_Driver/src/stm32f10x_usart.c ****   }
 805:Libraries/STM32F10x_StdPeriph_Driver/src/stm32f10x_usart.c **** }
 806:Libraries/STM32F10x_StdPeriph_Driver/src/stm32f10x_usart.c **** 
 807:Libraries/STM32F10x_StdPeriph_Driver/src/stm32f10x_usart.c **** /**
 808:Libraries/STM32F10x_StdPeriph_Driver/src/stm32f10x_usart.c ****   * @brief  Configures the USART's IrDA interface.
 809:Libraries/STM32F10x_StdPeriph_Driver/src/stm32f10x_usart.c ****   * @param  USARTx: Select the USART or the UART peripheral. 
 810:Libraries/STM32F10x_StdPeriph_Driver/src/stm32f10x_usart.c ****   *   This parameter can be one of the following values:
 811:Libraries/STM32F10x_StdPeriph_Driver/src/stm32f10x_usart.c ****   *   USART1, USART2, USART3, UART4 or UART5.
 812:Libraries/STM32F10x_StdPeriph_Driver/src/stm32f10x_usart.c ****   * @param  USART_IrDAMode: specifies the IrDA mode.
 813:Libraries/STM32F10x_StdPeriph_Driver/src/stm32f10x_usart.c ****   *   This parameter can be one of the following values:
 814:Libraries/STM32F10x_StdPeriph_Driver/src/stm32f10x_usart.c ****   *     @arg USART_IrDAMode_LowPower
 815:Libraries/STM32F10x_StdPeriph_Driver/src/stm32f10x_usart.c ****   *     @arg USART_IrDAMode_Normal
 816:Libraries/STM32F10x_StdPeriph_Driver/src/stm32f10x_usart.c ****   * @retval None
ARM GAS  /var/folders/lp/0dm50ddn51vc39svyzv_6fp00000gn/T//ccLUgEfv.s 			page 34


 817:Libraries/STM32F10x_StdPeriph_Driver/src/stm32f10x_usart.c ****   */
 818:Libraries/STM32F10x_StdPeriph_Driver/src/stm32f10x_usart.c **** void USART_IrDAConfig(USART_TypeDef* USARTx, uint16_t USART_IrDAMode)
 819:Libraries/STM32F10x_StdPeriph_Driver/src/stm32f10x_usart.c **** {
 1027              		.loc 1 819 0
 1028              		.cfi_startproc
 1029              		@ args = 0, pretend = 0, frame = 0
 1030              		@ frame_needed = 0, uses_anonymous_args = 0
 1031              		@ link register save eliminated.
 1032              	.LVL87:
 820:Libraries/STM32F10x_StdPeriph_Driver/src/stm32f10x_usart.c ****   /* Check the parameters */
 821:Libraries/STM32F10x_StdPeriph_Driver/src/stm32f10x_usart.c ****   assert_param(IS_USART_ALL_PERIPH(USARTx));
 822:Libraries/STM32F10x_StdPeriph_Driver/src/stm32f10x_usart.c ****   assert_param(IS_USART_IRDA_MODE(USART_IrDAMode));
 823:Libraries/STM32F10x_StdPeriph_Driver/src/stm32f10x_usart.c ****     
 824:Libraries/STM32F10x_StdPeriph_Driver/src/stm32f10x_usart.c ****   USARTx->CR3 &= CR3_IRLP_Mask;
 1033              		.loc 1 824 0
 1034 030a 838A     		ldrh	r3, [r0, #20]	@, USARTx_2(D)->CR3
 1035 030c 23F00403 		bic	r3, r3, #4	@ D.7050, USARTx_2(D)->CR3,
 1036 0310 1B04     		lsls	r3, r3, #16	@ D.7050, D.7050,
 1037 0312 1B0C     		lsrs	r3, r3, #16	@ D.7050, D.7050,
 1038 0314 8382     		strh	r3, [r0, #20]	@ movhi	@ D.7050, USARTx_2(D)->CR3
 825:Libraries/STM32F10x_StdPeriph_Driver/src/stm32f10x_usart.c ****   USARTx->CR3 |= USART_IrDAMode;
 1039              		.loc 1 825 0
 1040 0316 838A     		ldrh	r3, [r0, #20]	@, USARTx_2(D)->CR3
 1041 0318 9BB2     		uxth	r3, r3	@ D.7050, USARTx_2(D)->CR3
 1042 031a 1943     		orrs	r1, r1, r3	@, D.7050, USART_IrDAMode, D.7050
 1043              	.LVL88:
 1044 031c 8182     		strh	r1, [r0, #20]	@ movhi	@ D.7050, USARTx_2(D)->CR3
 1045 031e 7047     		bx	lr	@
 1046              		.cfi_endproc
 1047              	.LFE52:
 1048              		.size	USART_IrDAConfig, .-USART_IrDAConfig
 1049              		.align	1
 1050              		.global	USART_IrDACmd
 1051              		.thumb
 1052              		.thumb_func
 1053              		.type	USART_IrDACmd, %function
 1054              	USART_IrDACmd:
 1055              	.LFB53:
 826:Libraries/STM32F10x_StdPeriph_Driver/src/stm32f10x_usart.c **** }
 827:Libraries/STM32F10x_StdPeriph_Driver/src/stm32f10x_usart.c **** 
 828:Libraries/STM32F10x_StdPeriph_Driver/src/stm32f10x_usart.c **** /**
 829:Libraries/STM32F10x_StdPeriph_Driver/src/stm32f10x_usart.c ****   * @brief  Enables or disables the USART's IrDA interface.
 830:Libraries/STM32F10x_StdPeriph_Driver/src/stm32f10x_usart.c ****   * @param  USARTx: Select the USART or the UART peripheral. 
 831:Libraries/STM32F10x_StdPeriph_Driver/src/stm32f10x_usart.c ****   *   This parameter can be one of the following values:
 832:Libraries/STM32F10x_StdPeriph_Driver/src/stm32f10x_usart.c ****   *   USART1, USART2, USART3, UART4 or UART5.
 833:Libraries/STM32F10x_StdPeriph_Driver/src/stm32f10x_usart.c ****   * @param  NewState: new state of the IrDA mode.
 834:Libraries/STM32F10x_StdPeriph_Driver/src/stm32f10x_usart.c ****   *   This parameter can be: ENABLE or DISABLE.
 835:Libraries/STM32F10x_StdPeriph_Driver/src/stm32f10x_usart.c ****   * @retval None
 836:Libraries/STM32F10x_StdPeriph_Driver/src/stm32f10x_usart.c ****   */
 837:Libraries/STM32F10x_StdPeriph_Driver/src/stm32f10x_usart.c **** void USART_IrDACmd(USART_TypeDef* USARTx, FunctionalState NewState)
 838:Libraries/STM32F10x_StdPeriph_Driver/src/stm32f10x_usart.c **** {
 1056              		.loc 1 838 0
 1057              		.cfi_startproc
 1058              		@ args = 0, pretend = 0, frame = 0
 1059              		@ frame_needed = 0, uses_anonymous_args = 0
 1060              		@ link register save eliminated.
 1061              	.LVL89:
ARM GAS  /var/folders/lp/0dm50ddn51vc39svyzv_6fp00000gn/T//ccLUgEfv.s 			page 35


 839:Libraries/STM32F10x_StdPeriph_Driver/src/stm32f10x_usart.c ****   /* Check the parameters */
 840:Libraries/STM32F10x_StdPeriph_Driver/src/stm32f10x_usart.c ****   assert_param(IS_USART_ALL_PERIPH(USARTx));
 841:Libraries/STM32F10x_StdPeriph_Driver/src/stm32f10x_usart.c ****   assert_param(IS_FUNCTIONAL_STATE(NewState));
 842:Libraries/STM32F10x_StdPeriph_Driver/src/stm32f10x_usart.c ****     
 843:Libraries/STM32F10x_StdPeriph_Driver/src/stm32f10x_usart.c ****   if (NewState != DISABLE)
 844:Libraries/STM32F10x_StdPeriph_Driver/src/stm32f10x_usart.c ****   {
 845:Libraries/STM32F10x_StdPeriph_Driver/src/stm32f10x_usart.c ****     /* Enable the IrDA mode by setting the IREN bit in the CR3 register */
 846:Libraries/STM32F10x_StdPeriph_Driver/src/stm32f10x_usart.c ****     USARTx->CR3 |= CR3_IREN_Set;
 1062              		.loc 1 846 0
 1063 0320 838A     		ldrh	r3, [r0, #20]	@,
 843:Libraries/STM32F10x_StdPeriph_Driver/src/stm32f10x_usart.c ****   {
 1064              		.loc 1 843 0
 1065 0322 19B1     		cbz	r1, .L76	@ NewState,
 1066              		.loc 1 846 0
 1067 0324 9BB2     		uxth	r3, r3	@ D.7053, USARTx_4(D)->CR3
 1068 0326 43F00203 		orr	r3, r3, #2	@ D.7053, D.7053,
 1069 032a 03E0     		b	.L78	@
 1070              	.L76:
 847:Libraries/STM32F10x_StdPeriph_Driver/src/stm32f10x_usart.c ****   }
 848:Libraries/STM32F10x_StdPeriph_Driver/src/stm32f10x_usart.c ****   else
 849:Libraries/STM32F10x_StdPeriph_Driver/src/stm32f10x_usart.c ****   {
 850:Libraries/STM32F10x_StdPeriph_Driver/src/stm32f10x_usart.c ****     /* Disable the IrDA mode by clearing the IREN bit in the CR3 register */
 851:Libraries/STM32F10x_StdPeriph_Driver/src/stm32f10x_usart.c ****     USARTx->CR3 &= CR3_IREN_Reset;
 1071              		.loc 1 851 0
 1072 032c 23F00203 		bic	r3, r3, #2	@ D.7053, USARTx_4(D)->CR3,
 1073 0330 1B04     		lsls	r3, r3, #16	@ D.7053, D.7053,
 1074 0332 1B0C     		lsrs	r3, r3, #16	@ D.7053, D.7053,
 1075              	.L78:
 1076 0334 8382     		strh	r3, [r0, #20]	@ movhi	@ D.7053,
 1077 0336 7047     		bx	lr	@
 1078              		.cfi_endproc
 1079              	.LFE53:
 1080              		.size	USART_IrDACmd, .-USART_IrDACmd
 1081              		.align	1
 1082              		.global	USART_GetFlagStatus
 1083              		.thumb
 1084              		.thumb_func
 1085              		.type	USART_GetFlagStatus, %function
 1086              	USART_GetFlagStatus:
 1087              	.LFB54:
 852:Libraries/STM32F10x_StdPeriph_Driver/src/stm32f10x_usart.c ****   }
 853:Libraries/STM32F10x_StdPeriph_Driver/src/stm32f10x_usart.c **** }
 854:Libraries/STM32F10x_StdPeriph_Driver/src/stm32f10x_usart.c **** 
 855:Libraries/STM32F10x_StdPeriph_Driver/src/stm32f10x_usart.c **** /**
 856:Libraries/STM32F10x_StdPeriph_Driver/src/stm32f10x_usart.c ****   * @brief  Checks whether the specified USART flag is set or not.
 857:Libraries/STM32F10x_StdPeriph_Driver/src/stm32f10x_usart.c ****   * @param  USARTx: Select the USART or the UART peripheral. 
 858:Libraries/STM32F10x_StdPeriph_Driver/src/stm32f10x_usart.c ****   *   This parameter can be one of the following values:
 859:Libraries/STM32F10x_StdPeriph_Driver/src/stm32f10x_usart.c ****   *   USART1, USART2, USART3, UART4 or UART5.
 860:Libraries/STM32F10x_StdPeriph_Driver/src/stm32f10x_usart.c ****   * @param  USART_FLAG: specifies the flag to check.
 861:Libraries/STM32F10x_StdPeriph_Driver/src/stm32f10x_usart.c ****   *   This parameter can be one of the following values:
 862:Libraries/STM32F10x_StdPeriph_Driver/src/stm32f10x_usart.c ****   *     @arg USART_FLAG_CTS:  CTS Change flag (not available for UART4 and UART5)
 863:Libraries/STM32F10x_StdPeriph_Driver/src/stm32f10x_usart.c ****   *     @arg USART_FLAG_LBD:  LIN Break detection flag
 864:Libraries/STM32F10x_StdPeriph_Driver/src/stm32f10x_usart.c ****   *     @arg USART_FLAG_TXE:  Transmit data register empty flag
 865:Libraries/STM32F10x_StdPeriph_Driver/src/stm32f10x_usart.c ****   *     @arg USART_FLAG_TC:   Transmission Complete flag
 866:Libraries/STM32F10x_StdPeriph_Driver/src/stm32f10x_usart.c ****   *     @arg USART_FLAG_RXNE: Receive data register not empty flag
 867:Libraries/STM32F10x_StdPeriph_Driver/src/stm32f10x_usart.c ****   *     @arg USART_FLAG_IDLE: Idle Line detection flag
 868:Libraries/STM32F10x_StdPeriph_Driver/src/stm32f10x_usart.c ****   *     @arg USART_FLAG_ORE:  OverRun Error flag
ARM GAS  /var/folders/lp/0dm50ddn51vc39svyzv_6fp00000gn/T//ccLUgEfv.s 			page 36


 869:Libraries/STM32F10x_StdPeriph_Driver/src/stm32f10x_usart.c ****   *     @arg USART_FLAG_NE:   Noise Error flag
 870:Libraries/STM32F10x_StdPeriph_Driver/src/stm32f10x_usart.c ****   *     @arg USART_FLAG_FE:   Framing Error flag
 871:Libraries/STM32F10x_StdPeriph_Driver/src/stm32f10x_usart.c ****   *     @arg USART_FLAG_PE:   Parity Error flag
 872:Libraries/STM32F10x_StdPeriph_Driver/src/stm32f10x_usart.c ****   * @retval The new state of USART_FLAG (SET or RESET).
 873:Libraries/STM32F10x_StdPeriph_Driver/src/stm32f10x_usart.c ****   */
 874:Libraries/STM32F10x_StdPeriph_Driver/src/stm32f10x_usart.c **** FlagStatus USART_GetFlagStatus(USART_TypeDef* USARTx, uint16_t USART_FLAG)
 875:Libraries/STM32F10x_StdPeriph_Driver/src/stm32f10x_usart.c **** {
 1088              		.loc 1 875 0
 1089              		.cfi_startproc
 1090              		@ args = 0, pretend = 0, frame = 0
 1091              		@ frame_needed = 0, uses_anonymous_args = 0
 1092              		@ link register save eliminated.
 1093              	.LVL90:
 876:Libraries/STM32F10x_StdPeriph_Driver/src/stm32f10x_usart.c ****   FlagStatus bitstatus = RESET;
 877:Libraries/STM32F10x_StdPeriph_Driver/src/stm32f10x_usart.c ****   /* Check the parameters */
 878:Libraries/STM32F10x_StdPeriph_Driver/src/stm32f10x_usart.c ****   assert_param(IS_USART_ALL_PERIPH(USARTx));
 879:Libraries/STM32F10x_StdPeriph_Driver/src/stm32f10x_usart.c ****   assert_param(IS_USART_FLAG(USART_FLAG));
 880:Libraries/STM32F10x_StdPeriph_Driver/src/stm32f10x_usart.c ****   /* The CTS flag is not available for UART4 and UART5 */
 881:Libraries/STM32F10x_StdPeriph_Driver/src/stm32f10x_usart.c ****   if (USART_FLAG == USART_FLAG_CTS)
 882:Libraries/STM32F10x_StdPeriph_Driver/src/stm32f10x_usart.c ****   {
 883:Libraries/STM32F10x_StdPeriph_Driver/src/stm32f10x_usart.c ****     assert_param(IS_USART_123_PERIPH(USARTx));
 884:Libraries/STM32F10x_StdPeriph_Driver/src/stm32f10x_usart.c ****   }  
 885:Libraries/STM32F10x_StdPeriph_Driver/src/stm32f10x_usart.c ****   
 886:Libraries/STM32F10x_StdPeriph_Driver/src/stm32f10x_usart.c ****   if ((USARTx->SR & USART_FLAG) != (uint16_t)RESET)
 1094              		.loc 1 886 0
 1095 0338 0388     		ldrh	r3, [r0]	@, USARTx_3(D)->SR
 1096              	.LVL91:
 887:Libraries/STM32F10x_StdPeriph_Driver/src/stm32f10x_usart.c ****   {
 888:Libraries/STM32F10x_StdPeriph_Driver/src/stm32f10x_usart.c ****     bitstatus = SET;
 889:Libraries/STM32F10x_StdPeriph_Driver/src/stm32f10x_usart.c ****   }
 890:Libraries/STM32F10x_StdPeriph_Driver/src/stm32f10x_usart.c ****   else
 891:Libraries/STM32F10x_StdPeriph_Driver/src/stm32f10x_usart.c ****   {
 892:Libraries/STM32F10x_StdPeriph_Driver/src/stm32f10x_usart.c ****     bitstatus = RESET;
 893:Libraries/STM32F10x_StdPeriph_Driver/src/stm32f10x_usart.c ****   }
 894:Libraries/STM32F10x_StdPeriph_Driver/src/stm32f10x_usart.c ****   return bitstatus;
 1097              		.loc 1 894 0
 1098 033a 1942     		tst	r1, r3	@ USART_FLAG, USARTx_3(D)->SR
 895:Libraries/STM32F10x_StdPeriph_Driver/src/stm32f10x_usart.c **** }
 1099              		.loc 1 895 0
 1100 033c 14BF     		ite	ne
 1101 033e 0120     		movne	r0, #1	@,
 1102              	.LVL92:
 1103 0340 0020     		moveq	r0, #0	@,
 1104 0342 7047     		bx	lr	@
 1105              		.cfi_endproc
 1106              	.LFE54:
 1107              		.size	USART_GetFlagStatus, .-USART_GetFlagStatus
 1108              		.align	1
 1109              		.global	USART_ClearFlag
 1110              		.thumb
 1111              		.thumb_func
 1112              		.type	USART_ClearFlag, %function
 1113              	USART_ClearFlag:
 1114              	.LFB55:
 896:Libraries/STM32F10x_StdPeriph_Driver/src/stm32f10x_usart.c **** 
 897:Libraries/STM32F10x_StdPeriph_Driver/src/stm32f10x_usart.c **** /**
 898:Libraries/STM32F10x_StdPeriph_Driver/src/stm32f10x_usart.c ****   * @brief  Clears the USARTx's pending flags.
ARM GAS  /var/folders/lp/0dm50ddn51vc39svyzv_6fp00000gn/T//ccLUgEfv.s 			page 37


 899:Libraries/STM32F10x_StdPeriph_Driver/src/stm32f10x_usart.c ****   * @param  USARTx: Select the USART or the UART peripheral. 
 900:Libraries/STM32F10x_StdPeriph_Driver/src/stm32f10x_usart.c ****   *   This parameter can be one of the following values:
 901:Libraries/STM32F10x_StdPeriph_Driver/src/stm32f10x_usart.c ****   *   USART1, USART2, USART3, UART4 or UART5.
 902:Libraries/STM32F10x_StdPeriph_Driver/src/stm32f10x_usart.c ****   * @param  USART_FLAG: specifies the flag to clear.
 903:Libraries/STM32F10x_StdPeriph_Driver/src/stm32f10x_usart.c ****   *   This parameter can be any combination of the following values:
 904:Libraries/STM32F10x_StdPeriph_Driver/src/stm32f10x_usart.c ****   *     @arg USART_FLAG_CTS:  CTS Change flag (not available for UART4 and UART5).
 905:Libraries/STM32F10x_StdPeriph_Driver/src/stm32f10x_usart.c ****   *     @arg USART_FLAG_LBD:  LIN Break detection flag.
 906:Libraries/STM32F10x_StdPeriph_Driver/src/stm32f10x_usart.c ****   *     @arg USART_FLAG_TC:   Transmission Complete flag.
 907:Libraries/STM32F10x_StdPeriph_Driver/src/stm32f10x_usart.c ****   *     @arg USART_FLAG_RXNE: Receive data register not empty flag.
 908:Libraries/STM32F10x_StdPeriph_Driver/src/stm32f10x_usart.c ****   *   
 909:Libraries/STM32F10x_StdPeriph_Driver/src/stm32f10x_usart.c ****   * @note
 910:Libraries/STM32F10x_StdPeriph_Driver/src/stm32f10x_usart.c ****   *   - PE (Parity error), FE (Framing error), NE (Noise error), ORE (OverRun 
 911:Libraries/STM32F10x_StdPeriph_Driver/src/stm32f10x_usart.c ****   *     error) and IDLE (Idle line detected) flags are cleared by software 
 912:Libraries/STM32F10x_StdPeriph_Driver/src/stm32f10x_usart.c ****   *     sequence: a read operation to USART_SR register (USART_GetFlagStatus()) 
 913:Libraries/STM32F10x_StdPeriph_Driver/src/stm32f10x_usart.c ****   *     followed by a read operation to USART_DR register (USART_ReceiveData()).
 914:Libraries/STM32F10x_StdPeriph_Driver/src/stm32f10x_usart.c ****   *   - RXNE flag can be also cleared by a read to the USART_DR register 
 915:Libraries/STM32F10x_StdPeriph_Driver/src/stm32f10x_usart.c ****   *     (USART_ReceiveData()).
 916:Libraries/STM32F10x_StdPeriph_Driver/src/stm32f10x_usart.c ****   *   - TC flag can be also cleared by software sequence: a read operation to 
 917:Libraries/STM32F10x_StdPeriph_Driver/src/stm32f10x_usart.c ****   *     USART_SR register (USART_GetFlagStatus()) followed by a write operation
 918:Libraries/STM32F10x_StdPeriph_Driver/src/stm32f10x_usart.c ****   *     to USART_DR register (USART_SendData()).
 919:Libraries/STM32F10x_StdPeriph_Driver/src/stm32f10x_usart.c ****   *   - TXE flag is cleared only by a write to the USART_DR register 
 920:Libraries/STM32F10x_StdPeriph_Driver/src/stm32f10x_usart.c ****   *     (USART_SendData()).
 921:Libraries/STM32F10x_StdPeriph_Driver/src/stm32f10x_usart.c ****   * @retval None
 922:Libraries/STM32F10x_StdPeriph_Driver/src/stm32f10x_usart.c ****   */
 923:Libraries/STM32F10x_StdPeriph_Driver/src/stm32f10x_usart.c **** void USART_ClearFlag(USART_TypeDef* USARTx, uint16_t USART_FLAG)
 924:Libraries/STM32F10x_StdPeriph_Driver/src/stm32f10x_usart.c **** {
 1115              		.loc 1 924 0
 1116              		.cfi_startproc
 1117              		@ args = 0, pretend = 0, frame = 0
 1118              		@ frame_needed = 0, uses_anonymous_args = 0
 1119              		@ link register save eliminated.
 1120              	.LVL93:
 925:Libraries/STM32F10x_StdPeriph_Driver/src/stm32f10x_usart.c ****   /* Check the parameters */
 926:Libraries/STM32F10x_StdPeriph_Driver/src/stm32f10x_usart.c ****   assert_param(IS_USART_ALL_PERIPH(USARTx));
 927:Libraries/STM32F10x_StdPeriph_Driver/src/stm32f10x_usart.c ****   assert_param(IS_USART_CLEAR_FLAG(USART_FLAG));
 928:Libraries/STM32F10x_StdPeriph_Driver/src/stm32f10x_usart.c ****   /* The CTS flag is not available for UART4 and UART5 */
 929:Libraries/STM32F10x_StdPeriph_Driver/src/stm32f10x_usart.c ****   if ((USART_FLAG & USART_FLAG_CTS) == USART_FLAG_CTS)
 930:Libraries/STM32F10x_StdPeriph_Driver/src/stm32f10x_usart.c ****   {
 931:Libraries/STM32F10x_StdPeriph_Driver/src/stm32f10x_usart.c ****     assert_param(IS_USART_123_PERIPH(USARTx));
 932:Libraries/STM32F10x_StdPeriph_Driver/src/stm32f10x_usart.c ****   } 
 933:Libraries/STM32F10x_StdPeriph_Driver/src/stm32f10x_usart.c ****    
 934:Libraries/STM32F10x_StdPeriph_Driver/src/stm32f10x_usart.c ****   USARTx->SR = (uint16_t)~USART_FLAG;
 1121              		.loc 1 934 0
 1122 0344 C943     		mvns	r1, r1	@ tmp113, USART_FLAG
 1123              	.LVL94:
 1124 0346 89B2     		uxth	r1, r1	@ D.7061, tmp113
 1125 0348 0180     		strh	r1, [r0]	@ movhi	@ D.7061, USARTx_4(D)->SR
 1126 034a 7047     		bx	lr	@
 1127              		.cfi_endproc
 1128              	.LFE55:
 1129              		.size	USART_ClearFlag, .-USART_ClearFlag
 1130              		.align	1
 1131              		.global	USART_GetITStatus
 1132              		.thumb
 1133              		.thumb_func
 1134              		.type	USART_GetITStatus, %function
 1135              	USART_GetITStatus:
ARM GAS  /var/folders/lp/0dm50ddn51vc39svyzv_6fp00000gn/T//ccLUgEfv.s 			page 38


 1136              	.LFB56:
 935:Libraries/STM32F10x_StdPeriph_Driver/src/stm32f10x_usart.c **** }
 936:Libraries/STM32F10x_StdPeriph_Driver/src/stm32f10x_usart.c **** 
 937:Libraries/STM32F10x_StdPeriph_Driver/src/stm32f10x_usart.c **** /**
 938:Libraries/STM32F10x_StdPeriph_Driver/src/stm32f10x_usart.c ****   * @brief  Checks whether the specified USART interrupt has occurred or not.
 939:Libraries/STM32F10x_StdPeriph_Driver/src/stm32f10x_usart.c ****   * @param  USARTx: Select the USART or the UART peripheral. 
 940:Libraries/STM32F10x_StdPeriph_Driver/src/stm32f10x_usart.c ****   *   This parameter can be one of the following values:
 941:Libraries/STM32F10x_StdPeriph_Driver/src/stm32f10x_usart.c ****   *   USART1, USART2, USART3, UART4 or UART5.
 942:Libraries/STM32F10x_StdPeriph_Driver/src/stm32f10x_usart.c ****   * @param  USART_IT: specifies the USART interrupt source to check.
 943:Libraries/STM32F10x_StdPeriph_Driver/src/stm32f10x_usart.c ****   *   This parameter can be one of the following values:
 944:Libraries/STM32F10x_StdPeriph_Driver/src/stm32f10x_usart.c ****   *     @arg USART_IT_CTS:  CTS change interrupt (not available for UART4 and UART5)
 945:Libraries/STM32F10x_StdPeriph_Driver/src/stm32f10x_usart.c ****   *     @arg USART_IT_LBD:  LIN Break detection interrupt
 946:Libraries/STM32F10x_StdPeriph_Driver/src/stm32f10x_usart.c ****   *     @arg USART_IT_TXE:  Tansmit Data Register empty interrupt
 947:Libraries/STM32F10x_StdPeriph_Driver/src/stm32f10x_usart.c ****   *     @arg USART_IT_TC:   Transmission complete interrupt
 948:Libraries/STM32F10x_StdPeriph_Driver/src/stm32f10x_usart.c ****   *     @arg USART_IT_RXNE: Receive Data register not empty interrupt
 949:Libraries/STM32F10x_StdPeriph_Driver/src/stm32f10x_usart.c ****   *     @arg USART_IT_IDLE: Idle line detection interrupt
 950:Libraries/STM32F10x_StdPeriph_Driver/src/stm32f10x_usart.c ****   *     @arg USART_IT_ORE:  OverRun Error interrupt
 951:Libraries/STM32F10x_StdPeriph_Driver/src/stm32f10x_usart.c ****   *     @arg USART_IT_NE:   Noise Error interrupt
 952:Libraries/STM32F10x_StdPeriph_Driver/src/stm32f10x_usart.c ****   *     @arg USART_IT_FE:   Framing Error interrupt
 953:Libraries/STM32F10x_StdPeriph_Driver/src/stm32f10x_usart.c ****   *     @arg USART_IT_PE:   Parity Error interrupt
 954:Libraries/STM32F10x_StdPeriph_Driver/src/stm32f10x_usart.c ****   * @retval The new state of USART_IT (SET or RESET).
 955:Libraries/STM32F10x_StdPeriph_Driver/src/stm32f10x_usart.c ****   */
 956:Libraries/STM32F10x_StdPeriph_Driver/src/stm32f10x_usart.c **** ITStatus USART_GetITStatus(USART_TypeDef* USARTx, uint16_t USART_IT)
 957:Libraries/STM32F10x_StdPeriph_Driver/src/stm32f10x_usart.c **** {
 1137              		.loc 1 957 0
 1138              		.cfi_startproc
 1139              		@ args = 0, pretend = 0, frame = 0
 1140              		@ frame_needed = 0, uses_anonymous_args = 0
 1141              	.LVL95:
 958:Libraries/STM32F10x_StdPeriph_Driver/src/stm32f10x_usart.c ****   uint32_t bitpos = 0x00, itmask = 0x00, usartreg = 0x00;
 959:Libraries/STM32F10x_StdPeriph_Driver/src/stm32f10x_usart.c ****   ITStatus bitstatus = RESET;
 960:Libraries/STM32F10x_StdPeriph_Driver/src/stm32f10x_usart.c ****   /* Check the parameters */
 961:Libraries/STM32F10x_StdPeriph_Driver/src/stm32f10x_usart.c ****   assert_param(IS_USART_ALL_PERIPH(USARTx));
 962:Libraries/STM32F10x_StdPeriph_Driver/src/stm32f10x_usart.c ****   assert_param(IS_USART_GET_IT(USART_IT));
 963:Libraries/STM32F10x_StdPeriph_Driver/src/stm32f10x_usart.c ****   /* The CTS interrupt is not available for UART4 and UART5 */ 
 964:Libraries/STM32F10x_StdPeriph_Driver/src/stm32f10x_usart.c ****   if (USART_IT == USART_IT_CTS)
 965:Libraries/STM32F10x_StdPeriph_Driver/src/stm32f10x_usart.c ****   {
 966:Libraries/STM32F10x_StdPeriph_Driver/src/stm32f10x_usart.c ****     assert_param(IS_USART_123_PERIPH(USARTx));
 967:Libraries/STM32F10x_StdPeriph_Driver/src/stm32f10x_usart.c ****   }   
 968:Libraries/STM32F10x_StdPeriph_Driver/src/stm32f10x_usart.c ****   
 969:Libraries/STM32F10x_StdPeriph_Driver/src/stm32f10x_usart.c ****   /* Get the USART register index */
 970:Libraries/STM32F10x_StdPeriph_Driver/src/stm32f10x_usart.c ****   usartreg = (((uint8_t)USART_IT) >> 0x05);
 971:Libraries/STM32F10x_StdPeriph_Driver/src/stm32f10x_usart.c ****   /* Get the interrupt position */
 972:Libraries/STM32F10x_StdPeriph_Driver/src/stm32f10x_usart.c ****   itmask = USART_IT & IT_Mask;
 973:Libraries/STM32F10x_StdPeriph_Driver/src/stm32f10x_usart.c ****   itmask = (uint32_t)0x01 << itmask;
 1142              		.loc 1 973 0
 1143 034c 0123     		movs	r3, #1	@ tmp136,
 957:Libraries/STM32F10x_StdPeriph_Driver/src/stm32f10x_usart.c ****   uint32_t bitpos = 0x00, itmask = 0x00, usartreg = 0x00;
 1144              		.loc 1 957 0
 1145 034e 10B5     		push	{r4, lr}	@
 1146              	.LCFI10:
 1147              		.cfi_def_cfa_offset 8
 1148              		.cfi_offset 4, -8
 1149              		.cfi_offset 14, -4
 970:Libraries/STM32F10x_StdPeriph_Driver/src/stm32f10x_usart.c ****   /* Get the interrupt position */
 1150              		.loc 1 970 0
 1151 0350 C1F34214 		ubfx	r4, r1, #5, #3	@ D.7065, USART_IT,,
ARM GAS  /var/folders/lp/0dm50ddn51vc39svyzv_6fp00000gn/T//ccLUgEfv.s 			page 39


 1152              	.LVL96:
 972:Libraries/STM32F10x_StdPeriph_Driver/src/stm32f10x_usart.c ****   itmask = (uint32_t)0x01 << itmask;
 1153              		.loc 1 972 0
 1154 0354 01F01F02 		and	r2, r1, #31	@ itmask, USART_IT,
 1155              	.LVL97:
 974:Libraries/STM32F10x_StdPeriph_Driver/src/stm32f10x_usart.c ****   
 975:Libraries/STM32F10x_StdPeriph_Driver/src/stm32f10x_usart.c ****   if (usartreg == 0x01) /* The IT  is in CR1 register */
 1156              		.loc 1 975 0
 1157 0358 9C42     		cmp	r4, r3	@ D.7065,
 973:Libraries/STM32F10x_StdPeriph_Driver/src/stm32f10x_usart.c ****   
 1158              		.loc 1 973 0
 1159 035a 03FA02F2 		lsl	r2, r3, r2	@ itmask, tmp136, itmask
 1160              	.LVL98:
 1161              		.loc 1 975 0
 1162 035e 01D1     		bne	.L82	@,
 976:Libraries/STM32F10x_StdPeriph_Driver/src/stm32f10x_usart.c ****   {
 977:Libraries/STM32F10x_StdPeriph_Driver/src/stm32f10x_usart.c ****     itmask &= USARTx->CR1;
 1163              		.loc 1 977 0
 1164 0360 8389     		ldrh	r3, [r0, #12]	@, USARTx_11(D)->CR1
 1165 0362 03E0     		b	.L87	@
 1166              	.L82:
 978:Libraries/STM32F10x_StdPeriph_Driver/src/stm32f10x_usart.c ****   }
 979:Libraries/STM32F10x_StdPeriph_Driver/src/stm32f10x_usart.c ****   else if (usartreg == 0x02) /* The IT  is in CR2 register */
 1167              		.loc 1 979 0
 1168 0364 022C     		cmp	r4, #2	@ D.7065,
 980:Libraries/STM32F10x_StdPeriph_Driver/src/stm32f10x_usart.c ****   {
 981:Libraries/STM32F10x_StdPeriph_Driver/src/stm32f10x_usart.c ****     itmask &= USARTx->CR2;
 1169              		.loc 1 981 0
 1170 0366 0CBF     		ite	eq
 1171 0368 038A     		ldrheq	r3, [r0, #16]	@, USARTx_11(D)->CR2
 982:Libraries/STM32F10x_StdPeriph_Driver/src/stm32f10x_usart.c ****   }
 983:Libraries/STM32F10x_StdPeriph_Driver/src/stm32f10x_usart.c ****   else /* The IT  is in CR3 register */
 984:Libraries/STM32F10x_StdPeriph_Driver/src/stm32f10x_usart.c ****   {
 985:Libraries/STM32F10x_StdPeriph_Driver/src/stm32f10x_usart.c ****     itmask &= USARTx->CR3;
 1172              		.loc 1 985 0
 1173 036a 838A     		ldrhne	r3, [r0, #20]	@, USARTx_11(D)->CR3
 1174              	.L87:
 1175 036c 9BB2     		uxth	r3, r3	@ D.7066, USARTx_11(D)->CR3
 1176 036e 1340     		ands	r3, r3, r2	@, itmask, D.7066, itmask
 1177              	.LVL99:
 986:Libraries/STM32F10x_StdPeriph_Driver/src/stm32f10x_usart.c ****   }
 987:Libraries/STM32F10x_StdPeriph_Driver/src/stm32f10x_usart.c ****   
 988:Libraries/STM32F10x_StdPeriph_Driver/src/stm32f10x_usart.c ****   bitpos = USART_IT >> 0x08;
 989:Libraries/STM32F10x_StdPeriph_Driver/src/stm32f10x_usart.c ****   bitpos = (uint32_t)0x01 << bitpos;
 990:Libraries/STM32F10x_StdPeriph_Driver/src/stm32f10x_usart.c ****   bitpos &= USARTx->SR;
 1178              		.loc 1 990 0
 1179 0370 0288     		ldrh	r2, [r0]	@, USARTx_11(D)->SR
 1180 0372 92B2     		uxth	r2, r2	@ D.7066, USARTx_11(D)->SR
 1181              	.LVL100:
 991:Libraries/STM32F10x_StdPeriph_Driver/src/stm32f10x_usart.c ****   if ((itmask != (uint16_t)RESET)&&(bitpos != (uint16_t)RESET))
 1182              		.loc 1 991 0
 1183 0374 43B1     		cbz	r3, .L86	@ itmask,
 989:Libraries/STM32F10x_StdPeriph_Driver/src/stm32f10x_usart.c ****   bitpos &= USARTx->SR;
 1184              		.loc 1 989 0 discriminator 1
 1185 0376 0123     		movs	r3, #1	@ tmp145,
 1186              	.LVL101:
 988:Libraries/STM32F10x_StdPeriph_Driver/src/stm32f10x_usart.c ****   bitpos = (uint32_t)0x01 << bitpos;
ARM GAS  /var/folders/lp/0dm50ddn51vc39svyzv_6fp00000gn/T//ccLUgEfv.s 			page 40


 1187              		.loc 1 988 0 discriminator 1
 1188 0378 090A     		lsrs	r1, r1, #8	@ bitpos, USART_IT,
 1189              	.LVL102:
 989:Libraries/STM32F10x_StdPeriph_Driver/src/stm32f10x_usart.c ****   bitpos &= USARTx->SR;
 1190              		.loc 1 989 0 discriminator 1
 1191 037a 03FA01F1 		lsl	r1, r3, r1	@ bitpos, tmp145, bitpos
 992:Libraries/STM32F10x_StdPeriph_Driver/src/stm32f10x_usart.c ****   {
 993:Libraries/STM32F10x_StdPeriph_Driver/src/stm32f10x_usart.c ****     bitstatus = SET;
 1192              		.loc 1 993 0 discriminator 1
 1193 037e 0A42     		tst	r2, r1	@ D.7066, bitpos
 1194 0380 14BF     		ite	ne
 1195 0382 1846     		movne	r0, r3	@ bitstatus,
 1196              	.LVL103:
 1197 0384 0020     		moveq	r0, #0	@ bitstatus,
 1198 0386 10BD     		pop	{r4, pc}	@
 1199              	.LVL104:
 1200              	.L86:
 994:Libraries/STM32F10x_StdPeriph_Driver/src/stm32f10x_usart.c ****   }
 995:Libraries/STM32F10x_StdPeriph_Driver/src/stm32f10x_usart.c ****   else
 996:Libraries/STM32F10x_StdPeriph_Driver/src/stm32f10x_usart.c ****   {
 997:Libraries/STM32F10x_StdPeriph_Driver/src/stm32f10x_usart.c ****     bitstatus = RESET;
 1201              		.loc 1 997 0
 1202 0388 1846     		mov	r0, r3	@ bitstatus, itmask
 1203              	.LVL105:
 998:Libraries/STM32F10x_StdPeriph_Driver/src/stm32f10x_usart.c ****   }
 999:Libraries/STM32F10x_StdPeriph_Driver/src/stm32f10x_usart.c ****   
1000:Libraries/STM32F10x_StdPeriph_Driver/src/stm32f10x_usart.c ****   return bitstatus;  
1001:Libraries/STM32F10x_StdPeriph_Driver/src/stm32f10x_usart.c **** }
 1204              		.loc 1 1001 0
 1205 038a 10BD     		pop	{r4, pc}	@
 1206              		.cfi_endproc
 1207              	.LFE56:
 1208              		.size	USART_GetITStatus, .-USART_GetITStatus
 1209              		.align	1
 1210              		.global	USART_ClearITPendingBit
 1211              		.thumb
 1212              		.thumb_func
 1213              		.type	USART_ClearITPendingBit, %function
 1214              	USART_ClearITPendingBit:
 1215              	.LFB57:
1002:Libraries/STM32F10x_StdPeriph_Driver/src/stm32f10x_usart.c **** 
1003:Libraries/STM32F10x_StdPeriph_Driver/src/stm32f10x_usart.c **** /**
1004:Libraries/STM32F10x_StdPeriph_Driver/src/stm32f10x_usart.c ****   * @brief  Clears the USARTx's interrupt pending bits.
1005:Libraries/STM32F10x_StdPeriph_Driver/src/stm32f10x_usart.c ****   * @param  USARTx: Select the USART or the UART peripheral. 
1006:Libraries/STM32F10x_StdPeriph_Driver/src/stm32f10x_usart.c ****   *   This parameter can be one of the following values:
1007:Libraries/STM32F10x_StdPeriph_Driver/src/stm32f10x_usart.c ****   *   USART1, USART2, USART3, UART4 or UART5.
1008:Libraries/STM32F10x_StdPeriph_Driver/src/stm32f10x_usart.c ****   * @param  USART_IT: specifies the interrupt pending bit to clear.
1009:Libraries/STM32F10x_StdPeriph_Driver/src/stm32f10x_usart.c ****   *   This parameter can be one of the following values:
1010:Libraries/STM32F10x_StdPeriph_Driver/src/stm32f10x_usart.c ****   *     @arg USART_IT_CTS:  CTS change interrupt (not available for UART4 and UART5)
1011:Libraries/STM32F10x_StdPeriph_Driver/src/stm32f10x_usart.c ****   *     @arg USART_IT_LBD:  LIN Break detection interrupt
1012:Libraries/STM32F10x_StdPeriph_Driver/src/stm32f10x_usart.c ****   *     @arg USART_IT_TC:   Transmission complete interrupt. 
1013:Libraries/STM32F10x_StdPeriph_Driver/src/stm32f10x_usart.c ****   *     @arg USART_IT_RXNE: Receive Data register not empty interrupt.
1014:Libraries/STM32F10x_StdPeriph_Driver/src/stm32f10x_usart.c ****   *   
1015:Libraries/STM32F10x_StdPeriph_Driver/src/stm32f10x_usart.c ****   * @note
1016:Libraries/STM32F10x_StdPeriph_Driver/src/stm32f10x_usart.c ****   *   - PE (Parity error), FE (Framing error), NE (Noise error), ORE (OverRun 
1017:Libraries/STM32F10x_StdPeriph_Driver/src/stm32f10x_usart.c ****   *     error) and IDLE (Idle line detected) pending bits are cleared by 
1018:Libraries/STM32F10x_StdPeriph_Driver/src/stm32f10x_usart.c ****   *     software sequence: a read operation to USART_SR register 
ARM GAS  /var/folders/lp/0dm50ddn51vc39svyzv_6fp00000gn/T//ccLUgEfv.s 			page 41


1019:Libraries/STM32F10x_StdPeriph_Driver/src/stm32f10x_usart.c ****   *     (USART_GetITStatus()) followed by a read operation to USART_DR register 
1020:Libraries/STM32F10x_StdPeriph_Driver/src/stm32f10x_usart.c ****   *     (USART_ReceiveData()).
1021:Libraries/STM32F10x_StdPeriph_Driver/src/stm32f10x_usart.c ****   *   - RXNE pending bit can be also cleared by a read to the USART_DR register 
1022:Libraries/STM32F10x_StdPeriph_Driver/src/stm32f10x_usart.c ****   *     (USART_ReceiveData()).
1023:Libraries/STM32F10x_StdPeriph_Driver/src/stm32f10x_usart.c ****   *   - TC pending bit can be also cleared by software sequence: a read 
1024:Libraries/STM32F10x_StdPeriph_Driver/src/stm32f10x_usart.c ****   *     operation to USART_SR register (USART_GetITStatus()) followed by a write 
1025:Libraries/STM32F10x_StdPeriph_Driver/src/stm32f10x_usart.c ****   *     operation to USART_DR register (USART_SendData()).
1026:Libraries/STM32F10x_StdPeriph_Driver/src/stm32f10x_usart.c ****   *   - TXE pending bit is cleared only by a write to the USART_DR register 
1027:Libraries/STM32F10x_StdPeriph_Driver/src/stm32f10x_usart.c ****   *     (USART_SendData()).
1028:Libraries/STM32F10x_StdPeriph_Driver/src/stm32f10x_usart.c ****   * @retval None
1029:Libraries/STM32F10x_StdPeriph_Driver/src/stm32f10x_usart.c ****   */
1030:Libraries/STM32F10x_StdPeriph_Driver/src/stm32f10x_usart.c **** void USART_ClearITPendingBit(USART_TypeDef* USARTx, uint16_t USART_IT)
1031:Libraries/STM32F10x_StdPeriph_Driver/src/stm32f10x_usart.c **** {
 1216              		.loc 1 1031 0
 1217              		.cfi_startproc
 1218              		@ args = 0, pretend = 0, frame = 0
 1219              		@ frame_needed = 0, uses_anonymous_args = 0
 1220              		@ link register save eliminated.
 1221              	.LVL106:
1032:Libraries/STM32F10x_StdPeriph_Driver/src/stm32f10x_usart.c ****   uint16_t bitpos = 0x00, itmask = 0x00;
1033:Libraries/STM32F10x_StdPeriph_Driver/src/stm32f10x_usart.c ****   /* Check the parameters */
1034:Libraries/STM32F10x_StdPeriph_Driver/src/stm32f10x_usart.c ****   assert_param(IS_USART_ALL_PERIPH(USARTx));
1035:Libraries/STM32F10x_StdPeriph_Driver/src/stm32f10x_usart.c ****   assert_param(IS_USART_CLEAR_IT(USART_IT));
1036:Libraries/STM32F10x_StdPeriph_Driver/src/stm32f10x_usart.c ****   /* The CTS interrupt is not available for UART4 and UART5 */
1037:Libraries/STM32F10x_StdPeriph_Driver/src/stm32f10x_usart.c ****   if (USART_IT == USART_IT_CTS)
1038:Libraries/STM32F10x_StdPeriph_Driver/src/stm32f10x_usart.c ****   {
1039:Libraries/STM32F10x_StdPeriph_Driver/src/stm32f10x_usart.c ****     assert_param(IS_USART_123_PERIPH(USARTx));
1040:Libraries/STM32F10x_StdPeriph_Driver/src/stm32f10x_usart.c ****   }   
1041:Libraries/STM32F10x_StdPeriph_Driver/src/stm32f10x_usart.c ****   
1042:Libraries/STM32F10x_StdPeriph_Driver/src/stm32f10x_usart.c ****   bitpos = USART_IT >> 0x08;
1043:Libraries/STM32F10x_StdPeriph_Driver/src/stm32f10x_usart.c ****   itmask = ((uint16_t)0x01 << (uint16_t)bitpos);
1044:Libraries/STM32F10x_StdPeriph_Driver/src/stm32f10x_usart.c ****   USARTx->SR = (uint16_t)~itmask;
 1222              		.loc 1 1044 0
 1223 038c 090A     		lsrs	r1, r1, #8	@ D.7071, USART_IT,
 1224              	.LVL107:
 1225 038e 0123     		movs	r3, #1	@ tmp120,
 1226 0390 03FA01F1 		lsl	r1, r3, r1	@ D.7071, tmp120, D.7071
 1227 0394 C943     		mvns	r1, r1	@ tmp122, D.7071
 1228 0396 89B2     		uxth	r1, r1	@ D.7072, tmp122
 1229 0398 0180     		strh	r1, [r0]	@ movhi	@ D.7072, USARTx_8(D)->SR
 1230 039a 7047     		bx	lr	@
 1231              		.cfi_endproc
 1232              	.LFE57:
 1233              		.size	USART_ClearITPendingBit, .-USART_ClearITPendingBit
 1234              	.Letext0:
 1235              		.file 2 "/usr/local/share/gcc-arm-none-eabi-5_4-2016q3/arm-none-eabi/include/machine/_default_type
 1236              		.file 3 "/usr/local/share/gcc-arm-none-eabi-5_4-2016q3/arm-none-eabi/include/sys/_stdint.h"
 1237              		.file 4 "./Libraries/CMSIS/CM3/DeviceSupport/ST/STM32F10x/stm32f10x.h"
 1238              		.file 5 "./Libraries/STM32F10x_StdPeriph_Driver/inc/stm32f10x_rcc.h"
 1239              		.file 6 "./Libraries/STM32F10x_StdPeriph_Driver/inc/stm32f10x_usart.h"
 1240              		.file 7 "./Libraries/CMSIS/CM3/CoreSupport/core_cm3.h"
 1241              		.section	.debug_info,"",%progbits
 1242              	.Ldebug_info0:
 1243 0000 700B0000 		.4byte	0xb70
 1244 0004 0200     		.2byte	0x2
 1245 0006 00000000 		.4byte	.Ldebug_abbrev0
 1246 000a 04       		.byte	0x4
ARM GAS  /var/folders/lp/0dm50ddn51vc39svyzv_6fp00000gn/T//ccLUgEfv.s 			page 42


 1247 000b 01       		.uleb128 0x1
 1248 000c 2B010000 		.4byte	.LASF106
 1249 0010 0C       		.byte	0xc
 1250 0011 A8000000 		.4byte	.LASF107
 1251 0015 F9040000 		.4byte	.LASF108
 1252 0019 00000000 		.4byte	.Ltext0
 1253 001d 9C030000 		.4byte	.Letext0
 1254 0021 00000000 		.4byte	.Ldebug_line0
 1255 0025 02       		.uleb128 0x2
 1256 0026 04       		.byte	0x4
 1257 0027 07       		.byte	0x7
 1258 0028 D6030000 		.4byte	.LASF0
 1259 002c 02       		.uleb128 0x2
 1260 002d 01       		.byte	0x1
 1261 002e 06       		.byte	0x6
 1262 002f 2F020000 		.4byte	.LASF1
 1263 0033 03       		.uleb128 0x3
 1264 0034 FA020000 		.4byte	.LASF4
 1265 0038 02       		.byte	0x2
 1266 0039 1D       		.byte	0x1d
 1267 003a 3E000000 		.4byte	0x3e
 1268 003e 02       		.uleb128 0x2
 1269 003f 01       		.byte	0x1
 1270 0040 08       		.byte	0x8
 1271 0041 61030000 		.4byte	.LASF2
 1272 0045 02       		.uleb128 0x2
 1273 0046 02       		.byte	0x2
 1274 0047 05       		.byte	0x5
 1275 0048 CF020000 		.4byte	.LASF3
 1276 004c 03       		.uleb128 0x3
 1277 004d F9000000 		.4byte	.LASF5
 1278 0051 02       		.byte	0x2
 1279 0052 2B       		.byte	0x2b
 1280 0053 57000000 		.4byte	0x57
 1281 0057 02       		.uleb128 0x2
 1282 0058 02       		.byte	0x2
 1283 0059 07       		.byte	0x7
 1284 005a E6040000 		.4byte	.LASF6
 1285 005e 02       		.uleb128 0x2
 1286 005f 04       		.byte	0x4
 1287 0060 05       		.byte	0x5
 1288 0061 9E020000 		.4byte	.LASF7
 1289 0065 03       		.uleb128 0x3
 1290 0066 E3000000 		.4byte	.LASF8
 1291 006a 02       		.byte	0x2
 1292 006b 41       		.byte	0x41
 1293 006c 70000000 		.4byte	0x70
 1294 0070 02       		.uleb128 0x2
 1295 0071 04       		.byte	0x4
 1296 0072 07       		.byte	0x7
 1297 0073 EC030000 		.4byte	.LASF9
 1298 0077 02       		.uleb128 0x2
 1299 0078 08       		.byte	0x8
 1300 0079 05       		.byte	0x5
 1301 007a 70020000 		.4byte	.LASF10
 1302 007e 02       		.uleb128 0x2
 1303 007f 08       		.byte	0x8
ARM GAS  /var/folders/lp/0dm50ddn51vc39svyzv_6fp00000gn/T//ccLUgEfv.s 			page 43


 1304 0080 07       		.byte	0x7
 1305 0081 9B030000 		.4byte	.LASF11
 1306 0085 04       		.uleb128 0x4
 1307 0086 04       		.byte	0x4
 1308 0087 05       		.byte	0x5
 1309 0088 696E7400 		.ascii	"int\000"
 1310 008c 03       		.uleb128 0x3
 1311 008d E2010000 		.4byte	.LASF12
 1312 0091 03       		.byte	0x3
 1313 0092 18       		.byte	0x18
 1314 0093 33000000 		.4byte	0x33
 1315 0097 03       		.uleb128 0x3
 1316 0098 E3030000 		.4byte	.LASF13
 1317 009c 03       		.byte	0x3
 1318 009d 24       		.byte	0x24
 1319 009e 4C000000 		.4byte	0x4c
 1320 00a2 03       		.uleb128 0x3
 1321 00a3 0F000000 		.4byte	.LASF14
 1322 00a7 03       		.byte	0x3
 1323 00a8 30       		.byte	0x30
 1324 00a9 65000000 		.4byte	0x65
 1325 00ad 02       		.uleb128 0x2
 1326 00ae 04       		.byte	0x4
 1327 00af 07       		.byte	0x7
 1328 00b0 75000000 		.4byte	.LASF15
 1329 00b4 05       		.uleb128 0x5
 1330 00b5 97000000 		.4byte	0x97
 1331 00b9 06       		.uleb128 0x6
 1332 00ba 75313600 		.ascii	"u16\000"
 1333 00be 04       		.byte	0x4
 1334 00bf F801     		.2byte	0x1f8
 1335 00c1 97000000 		.4byte	0x97
 1336 00c5 07       		.uleb128 0x7
 1337 00c6 01       		.byte	0x1
 1338 00c7 3E000000 		.4byte	0x3e
 1339 00cb 04       		.byte	0x4
 1340 00cc 0702     		.2byte	0x207
 1341 00ce DF000000 		.4byte	0xdf
 1342 00d2 08       		.uleb128 0x8
 1343 00d3 5B050000 		.4byte	.LASF16
 1344 00d7 00       		.byte	0
 1345 00d8 09       		.uleb128 0x9
 1346 00d9 53455400 		.ascii	"SET\000"
 1347 00dd 01       		.byte	0x1
 1348 00de 00       		.byte	0
 1349 00df 0A       		.uleb128 0xa
 1350 00e0 EE000000 		.4byte	.LASF17
 1351 00e4 04       		.byte	0x4
 1352 00e5 0702     		.2byte	0x207
 1353 00e7 C5000000 		.4byte	0xc5
 1354 00eb 0A       		.uleb128 0xa
 1355 00ec 95020000 		.4byte	.LASF18
 1356 00f0 04       		.byte	0x4
 1357 00f1 0702     		.2byte	0x207
 1358 00f3 C5000000 		.4byte	0xc5
 1359 00f7 07       		.uleb128 0x7
 1360 00f8 01       		.byte	0x1
ARM GAS  /var/folders/lp/0dm50ddn51vc39svyzv_6fp00000gn/T//ccLUgEfv.s 			page 44


 1361 00f9 3E000000 		.4byte	0x3e
 1362 00fd 04       		.byte	0x4
 1363 00fe 0902     		.2byte	0x209
 1364 0100 11010000 		.4byte	0x111
 1365 0104 08       		.uleb128 0x8
 1366 0105 27020000 		.4byte	.LASF19
 1367 0109 00       		.byte	0
 1368 010a 08       		.uleb128 0x8
 1369 010b F4060000 		.4byte	.LASF20
 1370 010f 01       		.byte	0x1
 1371 0110 00       		.byte	0
 1372 0111 0A       		.uleb128 0xa
 1373 0112 E3050000 		.4byte	.LASF21
 1374 0116 04       		.byte	0x4
 1375 0117 0902     		.2byte	0x209
 1376 0119 F7000000 		.4byte	0xf7
 1377 011d 0B       		.uleb128 0xb
 1378 011e 1C       		.byte	0x1c
 1379 011f 04       		.byte	0x4
 1380 0120 D204     		.2byte	0x4d2
 1381 0122 F7010000 		.4byte	0x1f7
 1382 0126 0C       		.uleb128 0xc
 1383 0127 535200   		.ascii	"SR\000"
 1384 012a 04       		.byte	0x4
 1385 012b D404     		.2byte	0x4d4
 1386 012d B4000000 		.4byte	0xb4
 1387 0131 02       		.byte	0x2
 1388 0132 23       		.byte	0x23
 1389 0133 00       		.uleb128 0
 1390 0134 0D       		.uleb128 0xd
 1391 0135 7D050000 		.4byte	.LASF22
 1392 0139 04       		.byte	0x4
 1393 013a D504     		.2byte	0x4d5
 1394 013c 97000000 		.4byte	0x97
 1395 0140 02       		.byte	0x2
 1396 0141 23       		.byte	0x23
 1397 0142 02       		.uleb128 0x2
 1398 0143 0C       		.uleb128 0xc
 1399 0144 445200   		.ascii	"DR\000"
 1400 0147 04       		.byte	0x4
 1401 0148 D604     		.2byte	0x4d6
 1402 014a B4000000 		.4byte	0xb4
 1403 014e 02       		.byte	0x2
 1404 014f 23       		.byte	0x23
 1405 0150 04       		.uleb128 0x4
 1406 0151 0D       		.uleb128 0xd
 1407 0152 87050000 		.4byte	.LASF23
 1408 0156 04       		.byte	0x4
 1409 0157 D704     		.2byte	0x4d7
 1410 0159 97000000 		.4byte	0x97
 1411 015d 02       		.byte	0x2
 1412 015e 23       		.byte	0x23
 1413 015f 06       		.uleb128 0x6
 1414 0160 0C       		.uleb128 0xc
 1415 0161 42525200 		.ascii	"BRR\000"
 1416 0165 04       		.byte	0x4
 1417 0166 D804     		.2byte	0x4d8
ARM GAS  /var/folders/lp/0dm50ddn51vc39svyzv_6fp00000gn/T//ccLUgEfv.s 			page 45


 1418 0168 B4000000 		.4byte	0xb4
 1419 016c 02       		.byte	0x2
 1420 016d 23       		.byte	0x23
 1421 016e 08       		.uleb128 0x8
 1422 016f 0D       		.uleb128 0xd
 1423 0170 91050000 		.4byte	.LASF24
 1424 0174 04       		.byte	0x4
 1425 0175 D904     		.2byte	0x4d9
 1426 0177 97000000 		.4byte	0x97
 1427 017b 02       		.byte	0x2
 1428 017c 23       		.byte	0x23
 1429 017d 0A       		.uleb128 0xa
 1430 017e 0C       		.uleb128 0xc
 1431 017f 43523100 		.ascii	"CR1\000"
 1432 0183 04       		.byte	0x4
 1433 0184 DA04     		.2byte	0x4da
 1434 0186 B4000000 		.4byte	0xb4
 1435 018a 02       		.byte	0x2
 1436 018b 23       		.byte	0x23
 1437 018c 0C       		.uleb128 0xc
 1438 018d 0D       		.uleb128 0xd
 1439 018e 9B050000 		.4byte	.LASF25
 1440 0192 04       		.byte	0x4
 1441 0193 DB04     		.2byte	0x4db
 1442 0195 97000000 		.4byte	0x97
 1443 0199 02       		.byte	0x2
 1444 019a 23       		.byte	0x23
 1445 019b 0E       		.uleb128 0xe
 1446 019c 0C       		.uleb128 0xc
 1447 019d 43523200 		.ascii	"CR2\000"
 1448 01a1 04       		.byte	0x4
 1449 01a2 DC04     		.2byte	0x4dc
 1450 01a4 B4000000 		.4byte	0xb4
 1451 01a8 02       		.byte	0x2
 1452 01a9 23       		.byte	0x23
 1453 01aa 10       		.uleb128 0x10
 1454 01ab 0D       		.uleb128 0xd
 1455 01ac A5050000 		.4byte	.LASF26
 1456 01b0 04       		.byte	0x4
 1457 01b1 DD04     		.2byte	0x4dd
 1458 01b3 97000000 		.4byte	0x97
 1459 01b7 02       		.byte	0x2
 1460 01b8 23       		.byte	0x23
 1461 01b9 12       		.uleb128 0x12
 1462 01ba 0C       		.uleb128 0xc
 1463 01bb 43523300 		.ascii	"CR3\000"
 1464 01bf 04       		.byte	0x4
 1465 01c0 DE04     		.2byte	0x4de
 1466 01c2 B4000000 		.4byte	0xb4
 1467 01c6 02       		.byte	0x2
 1468 01c7 23       		.byte	0x23
 1469 01c8 14       		.uleb128 0x14
 1470 01c9 0D       		.uleb128 0xd
 1471 01ca AF050000 		.4byte	.LASF27
 1472 01ce 04       		.byte	0x4
 1473 01cf DF04     		.2byte	0x4df
 1474 01d1 97000000 		.4byte	0x97
ARM GAS  /var/folders/lp/0dm50ddn51vc39svyzv_6fp00000gn/T//ccLUgEfv.s 			page 46


 1475 01d5 02       		.byte	0x2
 1476 01d6 23       		.byte	0x23
 1477 01d7 16       		.uleb128 0x16
 1478 01d8 0D       		.uleb128 0xd
 1479 01d9 23000000 		.4byte	.LASF28
 1480 01dd 04       		.byte	0x4
 1481 01de E004     		.2byte	0x4e0
 1482 01e0 B4000000 		.4byte	0xb4
 1483 01e4 02       		.byte	0x2
 1484 01e5 23       		.byte	0x23
 1485 01e6 18       		.uleb128 0x18
 1486 01e7 0D       		.uleb128 0xd
 1487 01e8 B9050000 		.4byte	.LASF29
 1488 01ec 04       		.byte	0x4
 1489 01ed E104     		.2byte	0x4e1
 1490 01ef 97000000 		.4byte	0x97
 1491 01f3 02       		.byte	0x2
 1492 01f4 23       		.byte	0x23
 1493 01f5 1A       		.uleb128 0x1a
 1494 01f6 00       		.byte	0
 1495 01f7 0A       		.uleb128 0xa
 1496 01f8 04010000 		.4byte	.LASF30
 1497 01fc 04       		.byte	0x4
 1498 01fd E204     		.2byte	0x4e2
 1499 01ff 1D010000 		.4byte	0x11d
 1500 0203 0E       		.uleb128 0xe
 1501 0204 14       		.byte	0x14
 1502 0205 05       		.byte	0x5
 1503 0206 2E       		.byte	0x2e
 1504 0207 52020000 		.4byte	0x252
 1505 020b 0F       		.uleb128 0xf
 1506 020c 46000000 		.4byte	.LASF31
 1507 0210 05       		.byte	0x5
 1508 0211 30       		.byte	0x30
 1509 0212 A2000000 		.4byte	0xa2
 1510 0216 02       		.byte	0x2
 1511 0217 23       		.byte	0x23
 1512 0218 00       		.uleb128 0
 1513 0219 0F       		.uleb128 0xf
 1514 021a 7E000000 		.4byte	.LASF32
 1515 021e 05       		.byte	0x5
 1516 021f 31       		.byte	0x31
 1517 0220 A2000000 		.4byte	0xa2
 1518 0224 02       		.byte	0x2
 1519 0225 23       		.byte	0x23
 1520 0226 04       		.uleb128 0x4
 1521 0227 0F       		.uleb128 0xf
 1522 0228 0A060000 		.4byte	.LASF33
 1523 022c 05       		.byte	0x5
 1524 022d 32       		.byte	0x32
 1525 022e A2000000 		.4byte	0xa2
 1526 0232 02       		.byte	0x2
 1527 0233 23       		.byte	0x23
 1528 0234 08       		.uleb128 0x8
 1529 0235 0F       		.uleb128 0xf
 1530 0236 61050000 		.4byte	.LASF34
 1531 023a 05       		.byte	0x5
ARM GAS  /var/folders/lp/0dm50ddn51vc39svyzv_6fp00000gn/T//ccLUgEfv.s 			page 47


 1532 023b 33       		.byte	0x33
 1533 023c A2000000 		.4byte	0xa2
 1534 0240 02       		.byte	0x2
 1535 0241 23       		.byte	0x23
 1536 0242 0C       		.uleb128 0xc
 1537 0243 0F       		.uleb128 0xf
 1538 0244 B2030000 		.4byte	.LASF35
 1539 0248 05       		.byte	0x5
 1540 0249 34       		.byte	0x34
 1541 024a A2000000 		.4byte	0xa2
 1542 024e 02       		.byte	0x2
 1543 024f 23       		.byte	0x23
 1544 0250 10       		.uleb128 0x10
 1545 0251 00       		.byte	0
 1546 0252 03       		.uleb128 0x3
 1547 0253 46040000 		.4byte	.LASF36
 1548 0257 05       		.byte	0x5
 1549 0258 35       		.byte	0x35
 1550 0259 03020000 		.4byte	0x203
 1551 025d 0E       		.uleb128 0xe
 1552 025e 10       		.byte	0x10
 1553 025f 06       		.byte	0x6
 1554 0260 32       		.byte	0x32
 1555 0261 BA020000 		.4byte	0x2ba
 1556 0265 0F       		.uleb128 0xf
 1557 0266 49020000 		.4byte	.LASF37
 1558 026a 06       		.byte	0x6
 1559 026b 34       		.byte	0x34
 1560 026c A2000000 		.4byte	0xa2
 1561 0270 02       		.byte	0x2
 1562 0271 23       		.byte	0x23
 1563 0272 00       		.uleb128 0
 1564 0273 0F       		.uleb128 0xf
 1565 0274 00020000 		.4byte	.LASF38
 1566 0278 06       		.byte	0x6
 1567 0279 39       		.byte	0x39
 1568 027a 97000000 		.4byte	0x97
 1569 027e 02       		.byte	0x2
 1570 027f 23       		.byte	0x23
 1571 0280 04       		.uleb128 0x4
 1572 0281 0F       		.uleb128 0xf
 1573 0282 12010000 		.4byte	.LASF39
 1574 0286 06       		.byte	0x6
 1575 0287 3C       		.byte	0x3c
 1576 0288 97000000 		.4byte	0x97
 1577 028c 02       		.byte	0x2
 1578 028d 23       		.byte	0x23
 1579 028e 06       		.uleb128 0x6
 1580 028f 0F       		.uleb128 0xf
 1581 0290 3E030000 		.4byte	.LASF40
 1582 0294 06       		.byte	0x6
 1583 0295 3F       		.byte	0x3f
 1584 0296 97000000 		.4byte	0x97
 1585 029a 02       		.byte	0x2
 1586 029b 23       		.byte	0x23
 1587 029c 08       		.uleb128 0x8
 1588 029d 0F       		.uleb128 0xf
ARM GAS  /var/folders/lp/0dm50ddn51vc39svyzv_6fp00000gn/T//ccLUgEfv.s 			page 48


 1589 029e AF040000 		.4byte	.LASF41
 1590 02a2 06       		.byte	0x6
 1591 02a3 46       		.byte	0x46
 1592 02a4 97000000 		.4byte	0x97
 1593 02a8 02       		.byte	0x2
 1594 02a9 23       		.byte	0x23
 1595 02aa 0A       		.uleb128 0xa
 1596 02ab 0F       		.uleb128 0xf
 1597 02ac 82040000 		.4byte	.LASF42
 1598 02b0 06       		.byte	0x6
 1599 02b1 49       		.byte	0x49
 1600 02b2 97000000 		.4byte	0x97
 1601 02b6 02       		.byte	0x2
 1602 02b7 23       		.byte	0x23
 1603 02b8 0C       		.uleb128 0xc
 1604 02b9 00       		.byte	0
 1605 02ba 03       		.uleb128 0x3
 1606 02bb 0E040000 		.4byte	.LASF43
 1607 02bf 06       		.byte	0x6
 1608 02c0 4C       		.byte	0x4c
 1609 02c1 5D020000 		.4byte	0x25d
 1610 02c5 0E       		.uleb128 0xe
 1611 02c6 08       		.byte	0x8
 1612 02c7 06       		.byte	0x6
 1613 02c8 52       		.byte	0x52
 1614 02c9 06030000 		.4byte	0x306
 1615 02cd 0F       		.uleb128 0xf
 1616 02ce 71050000 		.4byte	.LASF44
 1617 02d2 06       		.byte	0x6
 1618 02d3 55       		.byte	0x55
 1619 02d4 97000000 		.4byte	0x97
 1620 02d8 02       		.byte	0x2
 1621 02d9 23       		.byte	0x23
 1622 02da 00       		.uleb128 0
 1623 02db 0F       		.uleb128 0xf
 1624 02dc BA060000 		.4byte	.LASF45
 1625 02e0 06       		.byte	0x6
 1626 02e1 58       		.byte	0x58
 1627 02e2 97000000 		.4byte	0x97
 1628 02e6 02       		.byte	0x2
 1629 02e7 23       		.byte	0x23
 1630 02e8 02       		.uleb128 0x2
 1631 02e9 0F       		.uleb128 0xf
 1632 02ea 18000000 		.4byte	.LASF46
 1633 02ee 06       		.byte	0x6
 1634 02ef 5B       		.byte	0x5b
 1635 02f0 97000000 		.4byte	0x97
 1636 02f4 02       		.byte	0x2
 1637 02f5 23       		.byte	0x23
 1638 02f6 04       		.uleb128 0x4
 1639 02f7 0F       		.uleb128 0xf
 1640 02f8 3B020000 		.4byte	.LASF47
 1641 02fc 06       		.byte	0x6
 1642 02fd 5E       		.byte	0x5e
 1643 02fe 97000000 		.4byte	0x97
 1644 0302 02       		.byte	0x2
 1645 0303 23       		.byte	0x23
ARM GAS  /var/folders/lp/0dm50ddn51vc39svyzv_6fp00000gn/T//ccLUgEfv.s 			page 49


 1646 0304 06       		.uleb128 0x6
 1647 0305 00       		.byte	0
 1648 0306 03       		.uleb128 0x3
 1649 0307 B2010000 		.4byte	.LASF48
 1650 030b 06       		.byte	0x6
 1651 030c 61       		.byte	0x61
 1652 030d C5020000 		.4byte	0x2c5
 1653 0311 10       		.uleb128 0x10
 1654 0312 01       		.byte	0x1
 1655 0313 0F030000 		.4byte	.LASF49
 1656 0317 01       		.byte	0x1
 1657 0318 82       		.byte	0x82
 1658 0319 01       		.byte	0x1
 1659 031a 00000000 		.4byte	.LFB29
 1660 031e 9C000000 		.4byte	.LFE29
 1661 0322 00000000 		.4byte	.LLST0
 1662 0326 01       		.byte	0x1
 1663 0327 E2030000 		.4byte	0x3e2
 1664 032b 11       		.uleb128 0x11
 1665 032c 65040000 		.4byte	.LASF51
 1666 0330 01       		.byte	0x1
 1667 0331 82       		.byte	0x82
 1668 0332 E2030000 		.4byte	0x3e2
 1669 0336 50000000 		.4byte	.LLST1
 1670 033a 12       		.uleb128 0x12
 1671 033b 12000000 		.4byte	.LVL2
 1672 033f 490B0000 		.4byte	0xb49
 1673 0343 54030000 		.4byte	0x354
 1674 0347 13       		.uleb128 0x13
 1675 0348 01       		.byte	0x1
 1676 0349 50       		.byte	0x50
 1677 034a 03       		.byte	0x3
 1678 034b 0A       		.byte	0xa
 1679 034c 0040     		.2byte	0x4000
 1680 034e 13       		.uleb128 0x13
 1681 034f 01       		.byte	0x1
 1682 0350 51       		.byte	0x51
 1683 0351 01       		.byte	0x1
 1684 0352 31       		.byte	0x31
 1685 0353 00       		.byte	0
 1686 0354 14       		.uleb128 0x14
 1687 0355 20000000 		.4byte	.LVL3
 1688 0359 01       		.byte	0x1
 1689 035a 490B0000 		.4byte	0xb49
 1690 035e 6F030000 		.4byte	0x36f
 1691 0362 13       		.uleb128 0x13
 1692 0363 01       		.byte	0x1
 1693 0364 50       		.byte	0x50
 1694 0365 03       		.byte	0x3
 1695 0366 0A       		.byte	0xa
 1696 0367 0040     		.2byte	0x4000
 1697 0369 13       		.uleb128 0x13
 1698 036a 01       		.byte	0x1
 1699 036b 51       		.byte	0x51
 1700 036c 01       		.byte	0x1
 1701 036d 30       		.byte	0x30
 1702 036e 00       		.byte	0
ARM GAS  /var/folders/lp/0dm50ddn51vc39svyzv_6fp00000gn/T//ccLUgEfv.s 			page 50


 1703 036f 12       		.uleb128 0x12
 1704 0370 30000000 		.4byte	.LVL5
 1705 0374 570B0000 		.4byte	0xb57
 1706 0378 89030000 		.4byte	0x389
 1707 037c 13       		.uleb128 0x13
 1708 037d 01       		.byte	0x1
 1709 037e 50       		.byte	0x50
 1710 037f 03       		.byte	0x3
 1711 0380 40       		.byte	0x40
 1712 0381 3D       		.byte	0x3d
 1713 0382 24       		.byte	0x24
 1714 0383 13       		.uleb128 0x13
 1715 0384 01       		.byte	0x1
 1716 0385 51       		.byte	0x51
 1717 0386 01       		.byte	0x1
 1718 0387 31       		.byte	0x31
 1719 0388 00       		.byte	0
 1720 0389 12       		.uleb128 0x12
 1721 038a 48000000 		.4byte	.LVL8
 1722 038e 570B0000 		.4byte	0xb57
 1723 0392 A3030000 		.4byte	0x3a3
 1724 0396 13       		.uleb128 0x13
 1725 0397 01       		.byte	0x1
 1726 0398 50       		.byte	0x50
 1727 0399 03       		.byte	0x3
 1728 039a 40       		.byte	0x40
 1729 039b 3E       		.byte	0x3e
 1730 039c 24       		.byte	0x24
 1731 039d 13       		.uleb128 0x13
 1732 039e 01       		.byte	0x1
 1733 039f 51       		.byte	0x51
 1734 03a0 01       		.byte	0x1
 1735 03a1 31       		.byte	0x31
 1736 03a2 00       		.byte	0
 1737 03a3 12       		.uleb128 0x12
 1738 03a4 60000000 		.4byte	.LVL11
 1739 03a8 570B0000 		.4byte	0xb57
 1740 03ac BD030000 		.4byte	0x3bd
 1741 03b0 13       		.uleb128 0x13
 1742 03b1 01       		.byte	0x1
 1743 03b2 50       		.byte	0x50
 1744 03b3 03       		.byte	0x3
 1745 03b4 40       		.byte	0x40
 1746 03b5 3F       		.byte	0x3f
 1747 03b6 24       		.byte	0x24
 1748 03b7 13       		.uleb128 0x13
 1749 03b8 01       		.byte	0x1
 1750 03b9 51       		.byte	0x51
 1751 03ba 01       		.byte	0x1
 1752 03bb 31       		.byte	0x31
 1753 03bc 00       		.byte	0
 1754 03bd 12       		.uleb128 0x12
 1755 03be 78000000 		.4byte	.LVL14
 1756 03c2 570B0000 		.4byte	0xb57
 1757 03c6 D7030000 		.4byte	0x3d7
 1758 03ca 13       		.uleb128 0x13
 1759 03cb 01       		.byte	0x1
ARM GAS  /var/folders/lp/0dm50ddn51vc39svyzv_6fp00000gn/T//ccLUgEfv.s 			page 51


 1760 03cc 50       		.byte	0x50
 1761 03cd 03       		.byte	0x3
 1762 03ce 40       		.byte	0x40
 1763 03cf 40       		.byte	0x40
 1764 03d0 24       		.byte	0x24
 1765 03d1 13       		.uleb128 0x13
 1766 03d2 01       		.byte	0x1
 1767 03d3 51       		.byte	0x51
 1768 03d4 01       		.byte	0x1
 1769 03d5 31       		.byte	0x31
 1770 03d6 00       		.byte	0
 1771 03d7 15       		.uleb128 0x15
 1772 03d8 86000000 		.4byte	.LVL15
 1773 03dc 01       		.byte	0x1
 1774 03dd 570B0000 		.4byte	0xb57
 1775 03e1 00       		.byte	0
 1776 03e2 16       		.uleb128 0x16
 1777 03e3 04       		.byte	0x4
 1778 03e4 F7010000 		.4byte	0x1f7
 1779 03e8 10       		.uleb128 0x10
 1780 03e9 01       		.byte	0x1
 1781 03ea 6A000000 		.4byte	.LASF50
 1782 03ee 01       		.byte	0x1
 1783 03ef B0       		.byte	0xb0
 1784 03f0 01       		.byte	0x1
 1785 03f1 9C000000 		.4byte	.LFB30
 1786 03f5 44010000 		.4byte	.LFE30
 1787 03f9 E0000000 		.4byte	.LLST2
 1788 03fd 01       		.byte	0x1
 1789 03fe 8A040000 		.4byte	0x48a
 1790 0402 11       		.uleb128 0x11
 1791 0403 65040000 		.4byte	.LASF51
 1792 0407 01       		.byte	0x1
 1793 0408 B0       		.byte	0xb0
 1794 0409 E2030000 		.4byte	0x3e2
 1795 040d 18010000 		.4byte	.LLST3
 1796 0411 11       		.uleb128 0x11
 1797 0412 40060000 		.4byte	.LASF52
 1798 0416 01       		.byte	0x1
 1799 0417 B0       		.byte	0xb0
 1800 0418 8A040000 		.4byte	0x48a
 1801 041c 44010000 		.4byte	.LLST4
 1802 0420 17       		.uleb128 0x17
 1803 0421 37030000 		.4byte	.LASF53
 1804 0425 01       		.byte	0x1
 1805 0426 B2       		.byte	0xb2
 1806 0427 A2000000 		.4byte	0xa2
 1807 042b 70010000 		.4byte	.LLST5
 1808 042f 17       		.uleb128 0x17
 1809 0430 67020000 		.4byte	.LASF54
 1810 0434 01       		.byte	0x1
 1811 0435 B2       		.byte	0xb2
 1812 0436 A2000000 		.4byte	0xa2
 1813 043a 27020000 		.4byte	.LLST6
 1814 043e 17       		.uleb128 0x17
 1815 043f 00000000 		.4byte	.LASF55
 1816 0443 01       		.byte	0x1
ARM GAS  /var/folders/lp/0dm50ddn51vc39svyzv_6fp00000gn/T//ccLUgEfv.s 			page 52


 1817 0444 B3       		.byte	0xb3
 1818 0445 A2000000 		.4byte	0xa2
 1819 0449 83020000 		.4byte	.LLST7
 1820 044d 17       		.uleb128 0x17
 1821 044e D1050000 		.4byte	.LASF56
 1822 0452 01       		.byte	0x1
 1823 0453 B4       		.byte	0xb4
 1824 0454 A2000000 		.4byte	0xa2
 1825 0458 A2020000 		.4byte	.LLST8
 1826 045c 17       		.uleb128 0x17
 1827 045d 6F030000 		.4byte	.LASF57
 1828 0461 01       		.byte	0x1
 1829 0462 B5       		.byte	0xb5
 1830 0463 A2000000 		.4byte	0xa2
 1831 0467 F4020000 		.4byte	.LLST9
 1832 046b 18       		.uleb128 0x18
 1833 046c 51060000 		.4byte	.LASF58
 1834 0470 01       		.byte	0x1
 1835 0471 B6       		.byte	0xb6
 1836 0472 52020000 		.4byte	0x252
 1837 0476 02       		.byte	0x2
 1838 0477 91       		.byte	0x91
 1839 0478 5C       		.sleb128 -36
 1840 0479 19       		.uleb128 0x19
 1841 047a E2000000 		.4byte	.LVL30
 1842 047e 650B0000 		.4byte	0xb65
 1843 0482 13       		.uleb128 0x13
 1844 0483 01       		.byte	0x1
 1845 0484 50       		.byte	0x50
 1846 0485 02       		.byte	0x2
 1847 0486 91       		.byte	0x91
 1848 0487 5C       		.sleb128 -36
 1849 0488 00       		.byte	0
 1850 0489 00       		.byte	0
 1851 048a 16       		.uleb128 0x16
 1852 048b 04       		.byte	0x4
 1853 048c BA020000 		.4byte	0x2ba
 1854 0490 1A       		.uleb128 0x1a
 1855 0491 01       		.byte	0x1
 1856 0492 99060000 		.4byte	.LASF59
 1857 0496 01       		.byte	0x1
 1858 0497 1901     		.2byte	0x119
 1859 0499 01       		.byte	0x1
 1860 049a 44010000 		.4byte	.LFB31
 1861 049e 5A010000 		.4byte	.LFE31
 1862 04a2 02       		.byte	0x2
 1863 04a3 7D       		.byte	0x7d
 1864 04a4 00       		.sleb128 0
 1865 04a5 01       		.byte	0x1
 1866 04a6 B9040000 		.4byte	0x4b9
 1867 04aa 1B       		.uleb128 0x1b
 1868 04ab 40060000 		.4byte	.LASF52
 1869 04af 01       		.byte	0x1
 1870 04b0 1901     		.2byte	0x119
 1871 04b2 8A040000 		.4byte	0x48a
 1872 04b6 01       		.byte	0x1
 1873 04b7 50       		.byte	0x50
ARM GAS  /var/folders/lp/0dm50ddn51vc39svyzv_6fp00000gn/T//ccLUgEfv.s 			page 53


 1874 04b8 00       		.byte	0
 1875 04b9 1C       		.uleb128 0x1c
 1876 04ba 01       		.byte	0x1
 1877 04bb 62060000 		.4byte	.LASF60
 1878 04bf 01       		.byte	0x1
 1879 04c0 2E01     		.2byte	0x12e
 1880 04c2 01       		.byte	0x1
 1881 04c3 5A010000 		.4byte	.LFB32
 1882 04c7 7A010000 		.4byte	.LFE32
 1883 04cb 20030000 		.4byte	.LLST10
 1884 04cf 01       		.byte	0x1
 1885 04d0 03050000 		.4byte	0x503
 1886 04d4 1B       		.uleb128 0x1b
 1887 04d5 65040000 		.4byte	.LASF51
 1888 04d9 01       		.byte	0x1
 1889 04da 2E01     		.2byte	0x12e
 1890 04dc E2030000 		.4byte	0x3e2
 1891 04e0 01       		.byte	0x1
 1892 04e1 50       		.byte	0x50
 1893 04e2 1D       		.uleb128 0x1d
 1894 04e3 1C030000 		.4byte	.LASF61
 1895 04e7 01       		.byte	0x1
 1896 04e8 2E01     		.2byte	0x12e
 1897 04ea 03050000 		.4byte	0x503
 1898 04ee 40030000 		.4byte	.LLST11
 1899 04f2 1E       		.uleb128 0x1e
 1900 04f3 37030000 		.4byte	.LASF53
 1901 04f7 01       		.byte	0x1
 1902 04f8 3001     		.2byte	0x130
 1903 04fa A2000000 		.4byte	0xa2
 1904 04fe 61030000 		.4byte	.LLST12
 1905 0502 00       		.byte	0
 1906 0503 16       		.uleb128 0x16
 1907 0504 04       		.byte	0x4
 1908 0505 06030000 		.4byte	0x306
 1909 0509 1A       		.uleb128 0x1a
 1910 050a 01       		.byte	0x1
 1911 050b 4B030000 		.4byte	.LASF62
 1912 050f 01       		.byte	0x1
 1913 0510 4D01     		.2byte	0x14d
 1914 0512 01       		.byte	0x1
 1915 0513 7A010000 		.4byte	.LFB33
 1916 0517 86010000 		.4byte	.LFE33
 1917 051b 02       		.byte	0x2
 1918 051c 7D       		.byte	0x7d
 1919 051d 00       		.sleb128 0
 1920 051e 01       		.byte	0x1
 1921 051f 32050000 		.4byte	0x532
 1922 0523 1B       		.uleb128 0x1b
 1923 0524 1C030000 		.4byte	.LASF61
 1924 0528 01       		.byte	0x1
 1925 0529 4D01     		.2byte	0x14d
 1926 052b 03050000 		.4byte	0x503
 1927 052f 01       		.byte	0x1
 1928 0530 50       		.byte	0x50
 1929 0531 00       		.byte	0
 1930 0532 1A       		.uleb128 0x1a
ARM GAS  /var/folders/lp/0dm50ddn51vc39svyzv_6fp00000gn/T//ccLUgEfv.s 			page 54


 1931 0533 01       		.byte	0x1
 1932 0534 C9010000 		.4byte	.LASF63
 1933 0538 01       		.byte	0x1
 1934 0539 5F01     		.2byte	0x15f
 1935 053b 01       		.byte	0x1
 1936 053c 86010000 		.4byte	.LFB34
 1937 0540 9E010000 		.4byte	.LFE34
 1938 0544 02       		.byte	0x2
 1939 0545 7D       		.byte	0x7d
 1940 0546 00       		.sleb128 0
 1941 0547 01       		.byte	0x1
 1942 0548 69050000 		.4byte	0x569
 1943 054c 1B       		.uleb128 0x1b
 1944 054d 65040000 		.4byte	.LASF51
 1945 0551 01       		.byte	0x1
 1946 0552 5F01     		.2byte	0x15f
 1947 0554 E2030000 		.4byte	0x3e2
 1948 0558 01       		.byte	0x1
 1949 0559 50       		.byte	0x50
 1950 055a 1B       		.uleb128 0x1b
 1951 055b 11020000 		.4byte	.LASF64
 1952 055f 01       		.byte	0x1
 1953 0560 5F01     		.2byte	0x15f
 1954 0562 11010000 		.4byte	0x111
 1955 0566 01       		.byte	0x1
 1956 0567 51       		.byte	0x51
 1957 0568 00       		.byte	0
 1958 0569 1C       		.uleb128 0x1c
 1959 056a 01       		.byte	0x1
 1960 056b 37040000 		.4byte	.LASF65
 1961 056f 01       		.byte	0x1
 1962 0570 8401     		.2byte	0x184
 1963 0572 01       		.byte	0x1
 1964 0573 9E010000 		.4byte	.LFB35
 1965 0577 CE010000 		.4byte	.LFE35
 1966 057b 9B030000 		.4byte	.LLST13
 1967 057f 01       		.byte	0x1
 1968 0580 F1050000 		.4byte	0x5f1
 1969 0584 1D       		.uleb128 0x1d
 1970 0585 65040000 		.4byte	.LASF51
 1971 0589 01       		.byte	0x1
 1972 058a 8401     		.2byte	0x184
 1973 058c E2030000 		.4byte	0x3e2
 1974 0590 BB030000 		.4byte	.LLST14
 1975 0594 1D       		.uleb128 0x1d
 1976 0595 EA010000 		.4byte	.LASF66
 1977 0599 01       		.byte	0x1
 1978 059a 8401     		.2byte	0x184
 1979 059c 97000000 		.4byte	0x97
 1980 05a0 F4030000 		.4byte	.LLST15
 1981 05a4 1B       		.uleb128 0x1b
 1982 05a5 11020000 		.4byte	.LASF64
 1983 05a9 01       		.byte	0x1
 1984 05aa 8401     		.2byte	0x184
 1985 05ac 11010000 		.4byte	0x111
 1986 05b0 01       		.byte	0x1
 1987 05b1 52       		.byte	0x52
ARM GAS  /var/folders/lp/0dm50ddn51vc39svyzv_6fp00000gn/T//ccLUgEfv.s 			page 55


 1988 05b2 1E       		.uleb128 0x1e
 1989 05b3 EB060000 		.4byte	.LASF67
 1990 05b7 01       		.byte	0x1
 1991 05b8 8601     		.2byte	0x186
 1992 05ba A2000000 		.4byte	0xa2
 1993 05be 15040000 		.4byte	.LLST16
 1994 05c2 1E       		.uleb128 0x1e
 1995 05c3 28000000 		.4byte	.LASF68
 1996 05c7 01       		.byte	0x1
 1997 05c8 8601     		.2byte	0x186
 1998 05ca A2000000 		.4byte	0xa2
 1999 05ce 39040000 		.4byte	.LLST17
 2000 05d2 1E       		.uleb128 0x1e
 2001 05d3 C5060000 		.4byte	.LASF69
 2002 05d7 01       		.byte	0x1
 2003 05d8 8601     		.2byte	0x186
 2004 05da A2000000 		.4byte	0xa2
 2005 05de 74040000 		.4byte	.LLST18
 2006 05e2 1F       		.uleb128 0x1f
 2007 05e3 6F030000 		.4byte	.LASF57
 2008 05e7 01       		.byte	0x1
 2009 05e8 8701     		.2byte	0x187
 2010 05ea A2000000 		.4byte	0xa2
 2011 05ee 01       		.byte	0x1
 2012 05ef 50       		.byte	0x50
 2013 05f0 00       		.byte	0
 2014 05f1 1A       		.uleb128 0x1a
 2015 05f2 01       		.byte	0x1
 2016 05f3 1A020000 		.4byte	.LASF70
 2017 05f7 01       		.byte	0x1
 2018 05f8 C001     		.2byte	0x1c0
 2019 05fa 01       		.byte	0x1
 2020 05fb CE010000 		.4byte	.LFB36
 2021 05ff E0010000 		.4byte	.LFE36
 2022 0603 02       		.byte	0x2
 2023 0604 7D       		.byte	0x7d
 2024 0605 00       		.sleb128 0
 2025 0606 01       		.byte	0x1
 2026 0607 38060000 		.4byte	0x638
 2027 060b 1B       		.uleb128 0x1b
 2028 060c 65040000 		.4byte	.LASF51
 2029 0610 01       		.byte	0x1
 2030 0611 C001     		.2byte	0x1c0
 2031 0613 E2030000 		.4byte	0x3e2
 2032 0617 01       		.byte	0x1
 2033 0618 50       		.byte	0x50
 2034 0619 1D       		.uleb128 0x1d
 2035 061a 58040000 		.4byte	.LASF71
 2036 061e 01       		.byte	0x1
 2037 061f C001     		.2byte	0x1c0
 2038 0621 97000000 		.4byte	0x97
 2039 0625 9E040000 		.4byte	.LLST19
 2040 0629 1B       		.uleb128 0x1b
 2041 062a 11020000 		.4byte	.LASF64
 2042 062e 01       		.byte	0x1
 2043 062f C001     		.2byte	0x1c0
 2044 0631 11010000 		.4byte	0x111
ARM GAS  /var/folders/lp/0dm50ddn51vc39svyzv_6fp00000gn/T//ccLUgEfv.s 			page 56


 2045 0635 01       		.byte	0x1
 2046 0636 52       		.byte	0x52
 2047 0637 00       		.byte	0
 2048 0638 1A       		.uleb128 0x1a
 2049 0639 01       		.byte	0x1
 2050 063a 8A030000 		.4byte	.LASF72
 2051 063e 01       		.byte	0x1
 2052 063f DC01     		.2byte	0x1dc
 2053 0641 01       		.byte	0x1
 2054 0642 E0010000 		.4byte	.LFB37
 2055 0646 F6010000 		.4byte	.LFE37
 2056 064a 02       		.byte	0x2
 2057 064b 7D       		.byte	0x7d
 2058 064c 00       		.sleb128 0
 2059 064d 01       		.byte	0x1
 2060 064e 71060000 		.4byte	0x671
 2061 0652 1B       		.uleb128 0x1b
 2062 0653 65040000 		.4byte	.LASF51
 2063 0657 01       		.byte	0x1
 2064 0658 DC01     		.2byte	0x1dc
 2065 065a E2030000 		.4byte	0x3e2
 2066 065e 01       		.byte	0x1
 2067 065f 50       		.byte	0x50
 2068 0660 1D       		.uleb128 0x1d
 2069 0661 BA040000 		.4byte	.LASF73
 2070 0665 01       		.byte	0x1
 2071 0666 DC01     		.2byte	0x1dc
 2072 0668 8C000000 		.4byte	0x8c
 2073 066c D8040000 		.4byte	.LLST20
 2074 0670 00       		.byte	0
 2075 0671 1A       		.uleb128 0x1a
 2076 0672 01       		.byte	0x1
 2077 0673 72060000 		.4byte	.LASF74
 2078 0677 01       		.byte	0x1
 2079 0678 F301     		.2byte	0x1f3
 2080 067a 01       		.byte	0x1
 2081 067b F6010000 		.4byte	.LFB38
 2082 067f 0C020000 		.4byte	.LFE38
 2083 0683 02       		.byte	0x2
 2084 0684 7D       		.byte	0x7d
 2085 0685 00       		.sleb128 0
 2086 0686 01       		.byte	0x1
 2087 0687 AA060000 		.4byte	0x6aa
 2088 068b 1B       		.uleb128 0x1b
 2089 068c 65040000 		.4byte	.LASF51
 2090 0690 01       		.byte	0x1
 2091 0691 F301     		.2byte	0x1f3
 2092 0693 E2030000 		.4byte	0x3e2
 2093 0697 01       		.byte	0x1
 2094 0698 50       		.byte	0x50
 2095 0699 1D       		.uleb128 0x1d
 2096 069a F3010000 		.4byte	.LASF75
 2097 069e 01       		.byte	0x1
 2098 069f F301     		.2byte	0x1f3
 2099 06a1 97000000 		.4byte	0x97
 2100 06a5 F9040000 		.4byte	.LLST21
 2101 06a9 00       		.byte	0
ARM GAS  /var/folders/lp/0dm50ddn51vc39svyzv_6fp00000gn/T//ccLUgEfv.s 			page 57


 2102 06aa 1A       		.uleb128 0x1a
 2103 06ab 01       		.byte	0x1
 2104 06ac 2E000000 		.4byte	.LASF76
 2105 06b0 01       		.byte	0x1
 2106 06b1 0602     		.2byte	0x206
 2107 06b3 01       		.byte	0x1
 2108 06b4 0C020000 		.4byte	.LFB39
 2109 06b8 24020000 		.4byte	.LFE39
 2110 06bc 02       		.byte	0x2
 2111 06bd 7D       		.byte	0x7d
 2112 06be 00       		.sleb128 0
 2113 06bf 01       		.byte	0x1
 2114 06c0 E1060000 		.4byte	0x6e1
 2115 06c4 1B       		.uleb128 0x1b
 2116 06c5 65040000 		.4byte	.LASF51
 2117 06c9 01       		.byte	0x1
 2118 06ca 0602     		.2byte	0x206
 2119 06cc E2030000 		.4byte	0x3e2
 2120 06d0 01       		.byte	0x1
 2121 06d1 50       		.byte	0x50
 2122 06d2 1B       		.uleb128 0x1b
 2123 06d3 11020000 		.4byte	.LASF64
 2124 06d7 01       		.byte	0x1
 2125 06d8 0602     		.2byte	0x206
 2126 06da 11010000 		.4byte	0x111
 2127 06de 01       		.byte	0x1
 2128 06df 51       		.byte	0x51
 2129 06e0 00       		.byte	0
 2130 06e1 1A       		.uleb128 0x1a
 2131 06e2 01       		.byte	0x1
 2132 06e3 D9020000 		.4byte	.LASF77
 2133 06e7 01       		.byte	0x1
 2134 06e8 2302     		.2byte	0x223
 2135 06ea 01       		.byte	0x1
 2136 06eb 24020000 		.4byte	.LFB40
 2137 06ef 3A020000 		.4byte	.LFE40
 2138 06f3 02       		.byte	0x2
 2139 06f4 7D       		.byte	0x7d
 2140 06f5 00       		.sleb128 0
 2141 06f6 01       		.byte	0x1
 2142 06f7 1A070000 		.4byte	0x71a
 2143 06fb 1B       		.uleb128 0x1b
 2144 06fc 65040000 		.4byte	.LASF51
 2145 0700 01       		.byte	0x1
 2146 0701 2302     		.2byte	0x223
 2147 0703 E2030000 		.4byte	0x3e2
 2148 0707 01       		.byte	0x1
 2149 0708 50       		.byte	0x50
 2150 0709 1D       		.uleb128 0x1d
 2151 070a 8D000000 		.4byte	.LASF78
 2152 070e 01       		.byte	0x1
 2153 070f 2302     		.2byte	0x223
 2154 0711 97000000 		.4byte	0x97
 2155 0715 1A050000 		.4byte	.LLST22
 2156 0719 00       		.byte	0
 2157 071a 1A       		.uleb128 0x1a
 2158 071b 01       		.byte	0x1
ARM GAS  /var/folders/lp/0dm50ddn51vc39svyzv_6fp00000gn/T//ccLUgEfv.s 			page 58


 2159 071c 3D050000 		.4byte	.LASF79
 2160 0720 01       		.byte	0x1
 2161 0721 3602     		.2byte	0x236
 2162 0723 01       		.byte	0x1
 2163 0724 3A020000 		.4byte	.LFB41
 2164 0728 52020000 		.4byte	.LFE41
 2165 072c 02       		.byte	0x2
 2166 072d 7D       		.byte	0x7d
 2167 072e 00       		.sleb128 0
 2168 072f 01       		.byte	0x1
 2169 0730 51070000 		.4byte	0x751
 2170 0734 1B       		.uleb128 0x1b
 2171 0735 65040000 		.4byte	.LASF51
 2172 0739 01       		.byte	0x1
 2173 073a 3602     		.2byte	0x236
 2174 073c E2030000 		.4byte	0x3e2
 2175 0740 01       		.byte	0x1
 2176 0741 50       		.byte	0x50
 2177 0742 1B       		.uleb128 0x1b
 2178 0743 11020000 		.4byte	.LASF64
 2179 0747 01       		.byte	0x1
 2180 0748 3602     		.2byte	0x236
 2181 074a 11010000 		.4byte	0x111
 2182 074e 01       		.byte	0x1
 2183 074f 51       		.byte	0x51
 2184 0750 00       		.byte	0
 2185 0751 1A       		.uleb128 0x1a
 2186 0752 01       		.byte	0x1
 2187 0753 D3010000 		.4byte	.LASF80
 2188 0757 01       		.byte	0x1
 2189 0758 5002     		.2byte	0x250
 2190 075a 01       		.byte	0x1
 2191 075b 52020000 		.4byte	.LFB42
 2192 075f 5A020000 		.4byte	.LFE42
 2193 0763 02       		.byte	0x2
 2194 0764 7D       		.byte	0x7d
 2195 0765 00       		.sleb128 0
 2196 0766 01       		.byte	0x1
 2197 0767 8A070000 		.4byte	0x78a
 2198 076b 1B       		.uleb128 0x1b
 2199 076c 65040000 		.4byte	.LASF51
 2200 0770 01       		.byte	0x1
 2201 0771 5002     		.2byte	0x250
 2202 0773 E2030000 		.4byte	0x3e2
 2203 0777 01       		.byte	0x1
 2204 0778 50       		.byte	0x50
 2205 0779 1D       		.uleb128 0x1d
 2206 077a 32030000 		.4byte	.LASF81
 2207 077e 01       		.byte	0x1
 2208 077f 5002     		.2byte	0x250
 2209 0781 97000000 		.4byte	0x97
 2210 0785 3B050000 		.4byte	.LLST23
 2211 0789 00       		.byte	0
 2212 078a 20       		.uleb128 0x20
 2213 078b 01       		.byte	0x1
 2214 078c D9060000 		.4byte	.LASF95
 2215 0790 01       		.byte	0x1
ARM GAS  /var/folders/lp/0dm50ddn51vc39svyzv_6fp00000gn/T//ccLUgEfv.s 			page 59


 2216 0791 6102     		.2byte	0x261
 2217 0793 01       		.byte	0x1
 2218 0794 97000000 		.4byte	0x97
 2219 0798 5A020000 		.4byte	.LFB43
 2220 079c 62020000 		.4byte	.LFE43
 2221 07a0 02       		.byte	0x2
 2222 07a1 7D       		.byte	0x7d
 2223 07a2 00       		.sleb128 0
 2224 07a3 01       		.byte	0x1
 2225 07a4 B9070000 		.4byte	0x7b9
 2226 07a8 1D       		.uleb128 0x1d
 2227 07a9 65040000 		.4byte	.LASF51
 2228 07ad 01       		.byte	0x1
 2229 07ae 6102     		.2byte	0x261
 2230 07b0 E2030000 		.4byte	0x3e2
 2231 07b4 5C050000 		.4byte	.LLST24
 2232 07b8 00       		.byte	0
 2233 07b9 1A       		.uleb128 0x1a
 2234 07ba 01       		.byte	0x1
 2235 07bb FE030000 		.4byte	.LASF82
 2236 07bf 01       		.byte	0x1
 2237 07c0 7102     		.2byte	0x271
 2238 07c2 01       		.byte	0x1
 2239 07c3 62020000 		.4byte	.LFB44
 2240 07c7 6E020000 		.4byte	.LFE44
 2241 07cb 02       		.byte	0x2
 2242 07cc 7D       		.byte	0x7d
 2243 07cd 00       		.sleb128 0
 2244 07ce 01       		.byte	0x1
 2245 07cf E2070000 		.4byte	0x7e2
 2246 07d3 1B       		.uleb128 0x1b
 2247 07d4 65040000 		.4byte	.LASF51
 2248 07d8 01       		.byte	0x1
 2249 07d9 7102     		.2byte	0x271
 2250 07db E2030000 		.4byte	0x3e2
 2251 07df 01       		.byte	0x1
 2252 07e0 50       		.byte	0x50
 2253 07e1 00       		.byte	0
 2254 07e2 1A       		.uleb128 0x1a
 2255 07e3 01       		.byte	0x1
 2256 07e4 C3030000 		.4byte	.LASF83
 2257 07e8 01       		.byte	0x1
 2258 07e9 8102     		.2byte	0x281
 2259 07eb 01       		.byte	0x1
 2260 07ec 6E020000 		.4byte	.LFB45
 2261 07f0 80020000 		.4byte	.LFE45
 2262 07f4 02       		.byte	0x2
 2263 07f5 7D       		.byte	0x7d
 2264 07f6 00       		.sleb128 0
 2265 07f7 01       		.byte	0x1
 2266 07f8 1B080000 		.4byte	0x81b
 2267 07fc 1B       		.uleb128 0x1b
 2268 07fd 65040000 		.4byte	.LASF51
 2269 0801 01       		.byte	0x1
 2270 0802 8102     		.2byte	0x281
 2271 0804 E2030000 		.4byte	0x3e2
 2272 0808 01       		.byte	0x1
ARM GAS  /var/folders/lp/0dm50ddn51vc39svyzv_6fp00000gn/T//ccLUgEfv.s 			page 60


 2273 0809 50       		.byte	0x50
 2274 080a 1D       		.uleb128 0x1d
 2275 080b BF020000 		.4byte	.LASF84
 2276 080f 01       		.byte	0x1
 2277 0810 8102     		.2byte	0x281
 2278 0812 8C000000 		.4byte	0x8c
 2279 0816 7D050000 		.4byte	.LLST25
 2280 081a 00       		.byte	0
 2281 081b 1A       		.uleb128 0x1a
 2282 081c 01       		.byte	0x1
 2283 081d 57000000 		.4byte	.LASF85
 2284 0821 01       		.byte	0x1
 2285 0822 9502     		.2byte	0x295
 2286 0824 01       		.byte	0x1
 2287 0825 80020000 		.4byte	.LFB46
 2288 0829 92020000 		.4byte	.LFE46
 2289 082d 02       		.byte	0x2
 2290 082e 7D       		.byte	0x7d
 2291 082f 00       		.sleb128 0
 2292 0830 01       		.byte	0x1
 2293 0831 54080000 		.4byte	0x854
 2294 0835 1B       		.uleb128 0x1b
 2295 0836 65040000 		.4byte	.LASF51
 2296 083a 01       		.byte	0x1
 2297 083b 9502     		.2byte	0x295
 2298 083d E2030000 		.4byte	0x3e2
 2299 0841 01       		.byte	0x1
 2300 0842 50       		.byte	0x50
 2301 0843 1D       		.uleb128 0x1d
 2302 0844 AA060000 		.4byte	.LASF86
 2303 0848 01       		.byte	0x1
 2304 0849 9502     		.2byte	0x295
 2305 084b 8C000000 		.4byte	0x8c
 2306 084f 9E050000 		.4byte	.LLST26
 2307 0853 00       		.byte	0
 2308 0854 1A       		.uleb128 0x1a
 2309 0855 01       		.byte	0x1
 2310 0856 9C040000 		.4byte	.LASF87
 2311 085a 01       		.byte	0x1
 2312 085b A802     		.2byte	0x2a8
 2313 085d 01       		.byte	0x1
 2314 085e 92020000 		.4byte	.LFB47
 2315 0862 AA020000 		.4byte	.LFE47
 2316 0866 02       		.byte	0x2
 2317 0867 7D       		.byte	0x7d
 2318 0868 00       		.sleb128 0
 2319 0869 01       		.byte	0x1
 2320 086a 8B080000 		.4byte	0x88b
 2321 086e 1B       		.uleb128 0x1b
 2322 086f 65040000 		.4byte	.LASF51
 2323 0873 01       		.byte	0x1
 2324 0874 A802     		.2byte	0x2a8
 2325 0876 E2030000 		.4byte	0x3e2
 2326 087a 01       		.byte	0x1
 2327 087b 50       		.byte	0x50
 2328 087c 1B       		.uleb128 0x1b
 2329 087d 11020000 		.4byte	.LASF64
ARM GAS  /var/folders/lp/0dm50ddn51vc39svyzv_6fp00000gn/T//ccLUgEfv.s 			page 61


 2330 0881 01       		.byte	0x1
 2331 0882 A802     		.2byte	0x2a8
 2332 0884 11010000 		.4byte	0x111
 2333 0888 01       		.byte	0x1
 2334 0889 51       		.byte	0x51
 2335 088a 00       		.byte	0
 2336 088b 1A       		.uleb128 0x1a
 2337 088c 01       		.byte	0x1
 2338 088d F3050000 		.4byte	.LASF88
 2339 0891 01       		.byte	0x1
 2340 0892 C102     		.2byte	0x2c1
 2341 0894 01       		.byte	0x1
 2342 0895 AA020000 		.4byte	.LFB48
 2343 0899 C2020000 		.4byte	.LFE48
 2344 089d 02       		.byte	0x2
 2345 089e 7D       		.byte	0x7d
 2346 089f 00       		.sleb128 0
 2347 08a0 01       		.byte	0x1
 2348 08a1 C2080000 		.4byte	0x8c2
 2349 08a5 1B       		.uleb128 0x1b
 2350 08a6 65040000 		.4byte	.LASF51
 2351 08aa 01       		.byte	0x1
 2352 08ab C102     		.2byte	0x2c1
 2353 08ad E2030000 		.4byte	0x3e2
 2354 08b1 01       		.byte	0x1
 2355 08b2 50       		.byte	0x50
 2356 08b3 1B       		.uleb128 0x1b
 2357 08b4 11020000 		.4byte	.LASF64
 2358 08b8 01       		.byte	0x1
 2359 08b9 C102     		.2byte	0x2c1
 2360 08bb 11010000 		.4byte	0x111
 2361 08bf 01       		.byte	0x1
 2362 08c0 51       		.byte	0x51
 2363 08c1 00       		.byte	0
 2364 08c2 1A       		.uleb128 0x1a
 2365 08c3 01       		.byte	0x1
 2366 08c4 85060000 		.4byte	.LASF89
 2367 08c8 01       		.byte	0x1
 2368 08c9 DB02     		.2byte	0x2db
 2369 08cb 01       		.byte	0x1
 2370 08cc C2020000 		.4byte	.LFB49
 2371 08d0 DA020000 		.4byte	.LFE49
 2372 08d4 02       		.byte	0x2
 2373 08d5 7D       		.byte	0x7d
 2374 08d6 00       		.sleb128 0
 2375 08d7 01       		.byte	0x1
 2376 08d8 F9080000 		.4byte	0x8f9
 2377 08dc 1B       		.uleb128 0x1b
 2378 08dd 65040000 		.4byte	.LASF51
 2379 08e1 01       		.byte	0x1
 2380 08e2 DB02     		.2byte	0x2db
 2381 08e4 E2030000 		.4byte	0x3e2
 2382 08e8 01       		.byte	0x1
 2383 08e9 50       		.byte	0x50
 2384 08ea 1B       		.uleb128 0x1b
 2385 08eb 11020000 		.4byte	.LASF64
 2386 08ef 01       		.byte	0x1
ARM GAS  /var/folders/lp/0dm50ddn51vc39svyzv_6fp00000gn/T//ccLUgEfv.s 			page 62


 2387 08f0 DB02     		.2byte	0x2db
 2388 08f2 11010000 		.4byte	0x111
 2389 08f6 01       		.byte	0x1
 2390 08f7 51       		.byte	0x51
 2391 08f8 00       		.byte	0
 2392 08f9 1A       		.uleb128 0x1a
 2393 08fa 01       		.byte	0x1
 2394 08fb CF040000 		.4byte	.LASF90
 2395 08ff 01       		.byte	0x1
 2396 0900 FA02     		.2byte	0x2fa
 2397 0902 01       		.byte	0x1
 2398 0903 DA020000 		.4byte	.LFB50
 2399 0907 F2020000 		.4byte	.LFE50
 2400 090b 02       		.byte	0x2
 2401 090c 7D       		.byte	0x7d
 2402 090d 00       		.sleb128 0
 2403 090e 01       		.byte	0x1
 2404 090f 30090000 		.4byte	0x930
 2405 0913 1B       		.uleb128 0x1b
 2406 0914 65040000 		.4byte	.LASF51
 2407 0918 01       		.byte	0x1
 2408 0919 FA02     		.2byte	0x2fa
 2409 091b E2030000 		.4byte	0x3e2
 2410 091f 01       		.byte	0x1
 2411 0920 50       		.byte	0x50
 2412 0921 1B       		.uleb128 0x1b
 2413 0922 11020000 		.4byte	.LASF64
 2414 0926 01       		.byte	0x1
 2415 0927 FA02     		.2byte	0x2fa
 2416 0929 11010000 		.4byte	0x111
 2417 092d 01       		.byte	0x1
 2418 092e 51       		.byte	0x51
 2419 092f 00       		.byte	0
 2420 0930 1A       		.uleb128 0x1a
 2421 0931 01       		.byte	0x1
 2422 0932 6C040000 		.4byte	.LASF91
 2423 0936 01       		.byte	0x1
 2424 0937 1503     		.2byte	0x315
 2425 0939 01       		.byte	0x1
 2426 093a F2020000 		.4byte	.LFB51
 2427 093e 0A030000 		.4byte	.LFE51
 2428 0942 02       		.byte	0x2
 2429 0943 7D       		.byte	0x7d
 2430 0944 00       		.sleb128 0
 2431 0945 01       		.byte	0x1
 2432 0946 67090000 		.4byte	0x967
 2433 094a 1B       		.uleb128 0x1b
 2434 094b 65040000 		.4byte	.LASF51
 2435 094f 01       		.byte	0x1
 2436 0950 1503     		.2byte	0x315
 2437 0952 E2030000 		.4byte	0x3e2
 2438 0956 01       		.byte	0x1
 2439 0957 50       		.byte	0x50
 2440 0958 1B       		.uleb128 0x1b
 2441 0959 11020000 		.4byte	.LASF64
 2442 095d 01       		.byte	0x1
 2443 095e 1503     		.2byte	0x315
ARM GAS  /var/folders/lp/0dm50ddn51vc39svyzv_6fp00000gn/T//ccLUgEfv.s 			page 63


 2444 0960 11010000 		.4byte	0x111
 2445 0964 01       		.byte	0x1
 2446 0965 51       		.byte	0x51
 2447 0966 00       		.byte	0
 2448 0967 1A       		.uleb128 0x1a
 2449 0968 01       		.byte	0x1
 2450 0969 4A050000 		.4byte	.LASF92
 2451 096d 01       		.byte	0x1
 2452 096e 3203     		.2byte	0x332
 2453 0970 01       		.byte	0x1
 2454 0971 0A030000 		.4byte	.LFB52
 2455 0975 20030000 		.4byte	.LFE52
 2456 0979 02       		.byte	0x2
 2457 097a 7D       		.byte	0x7d
 2458 097b 00       		.sleb128 0
 2459 097c 01       		.byte	0x1
 2460 097d A0090000 		.4byte	0x9a0
 2461 0981 1B       		.uleb128 0x1b
 2462 0982 65040000 		.4byte	.LASF51
 2463 0986 01       		.byte	0x1
 2464 0987 3203     		.2byte	0x332
 2465 0989 E2030000 		.4byte	0x3e2
 2466 098d 01       		.byte	0x1
 2467 098e 50       		.byte	0x50
 2468 098f 1D       		.uleb128 0x1d
 2469 0990 58020000 		.4byte	.LASF93
 2470 0994 01       		.byte	0x1
 2471 0995 3203     		.2byte	0x332
 2472 0997 97000000 		.4byte	0x97
 2473 099b BF050000 		.4byte	.LLST27
 2474 099f 00       		.byte	0
 2475 09a0 1A       		.uleb128 0x1a
 2476 09a1 01       		.byte	0x1
 2477 09a2 C3050000 		.4byte	.LASF94
 2478 09a6 01       		.byte	0x1
 2479 09a7 4503     		.2byte	0x345
 2480 09a9 01       		.byte	0x1
 2481 09aa 20030000 		.4byte	.LFB53
 2482 09ae 38030000 		.4byte	.LFE53
 2483 09b2 02       		.byte	0x2
 2484 09b3 7D       		.byte	0x7d
 2485 09b4 00       		.sleb128 0
 2486 09b5 01       		.byte	0x1
 2487 09b6 D7090000 		.4byte	0x9d7
 2488 09ba 1B       		.uleb128 0x1b
 2489 09bb 65040000 		.4byte	.LASF51
 2490 09bf 01       		.byte	0x1
 2491 09c0 4503     		.2byte	0x345
 2492 09c2 E2030000 		.4byte	0x3e2
 2493 09c6 01       		.byte	0x1
 2494 09c7 50       		.byte	0x50
 2495 09c8 1B       		.uleb128 0x1b
 2496 09c9 11020000 		.4byte	.LASF64
 2497 09cd 01       		.byte	0x1
 2498 09ce 4503     		.2byte	0x345
 2499 09d0 11010000 		.4byte	0x111
 2500 09d4 01       		.byte	0x1
ARM GAS  /var/folders/lp/0dm50ddn51vc39svyzv_6fp00000gn/T//ccLUgEfv.s 			page 64


 2501 09d5 51       		.byte	0x51
 2502 09d6 00       		.byte	0
 2503 09d7 20       		.uleb128 0x20
 2504 09d8 01       		.byte	0x1
 2505 09d9 1A060000 		.4byte	.LASF96
 2506 09dd 01       		.byte	0x1
 2507 09de 6A03     		.2byte	0x36a
 2508 09e0 01       		.byte	0x1
 2509 09e1 DF000000 		.4byte	0xdf
 2510 09e5 38030000 		.4byte	.LFB54
 2511 09e9 44030000 		.4byte	.LFE54
 2512 09ed 02       		.byte	0x2
 2513 09ee 7D       		.byte	0x7d
 2514 09ef 00       		.sleb128 0
 2515 09f0 01       		.byte	0x1
 2516 09f1 240A0000 		.4byte	0xa24
 2517 09f5 1D       		.uleb128 0x1d
 2518 09f6 65040000 		.4byte	.LASF51
 2519 09fa 01       		.byte	0x1
 2520 09fb 6A03     		.2byte	0x36a
 2521 09fd E2030000 		.4byte	0x3e2
 2522 0a01 E0050000 		.4byte	.LLST28
 2523 0a05 1B       		.uleb128 0x1b
 2524 0a06 04030000 		.4byte	.LASF97
 2525 0a0a 01       		.byte	0x1
 2526 0a0b 6A03     		.2byte	0x36a
 2527 0a0d 97000000 		.4byte	0x97
 2528 0a11 01       		.byte	0x1
 2529 0a12 51       		.byte	0x51
 2530 0a13 1E       		.uleb128 0x1e
 2531 0a14 21010000 		.4byte	.LASF98
 2532 0a18 01       		.byte	0x1
 2533 0a19 6C03     		.2byte	0x36c
 2534 0a1b DF000000 		.4byte	0xdf
 2535 0a1f 01060000 		.4byte	.LLST29
 2536 0a23 00       		.byte	0
 2537 0a24 1A       		.uleb128 0x1a
 2538 0a25 01       		.byte	0x1
 2539 0a26 7A030000 		.4byte	.LASF99
 2540 0a2a 01       		.byte	0x1
 2541 0a2b 9B03     		.2byte	0x39b
 2542 0a2d 01       		.byte	0x1
 2543 0a2e 44030000 		.4byte	.LFB55
 2544 0a32 4C030000 		.4byte	.LFE55
 2545 0a36 02       		.byte	0x2
 2546 0a37 7D       		.byte	0x7d
 2547 0a38 00       		.sleb128 0
 2548 0a39 01       		.byte	0x1
 2549 0a3a 5D0A0000 		.4byte	0xa5d
 2550 0a3e 1B       		.uleb128 0x1b
 2551 0a3f 65040000 		.4byte	.LASF51
 2552 0a43 01       		.byte	0x1
 2553 0a44 9B03     		.2byte	0x39b
 2554 0a46 E2030000 		.4byte	0x3e2
 2555 0a4a 01       		.byte	0x1
 2556 0a4b 50       		.byte	0x50
 2557 0a4c 1D       		.uleb128 0x1d
ARM GAS  /var/folders/lp/0dm50ddn51vc39svyzv_6fp00000gn/T//ccLUgEfv.s 			page 65


 2558 0a4d 04030000 		.4byte	.LASF97
 2559 0a51 01       		.byte	0x1
 2560 0a52 9B03     		.2byte	0x39b
 2561 0a54 97000000 		.4byte	0x97
 2562 0a58 29060000 		.4byte	.LLST30
 2563 0a5c 00       		.byte	0
 2564 0a5d 21       		.uleb128 0x21
 2565 0a5e 01       		.byte	0x1
 2566 0a5f 2B050000 		.4byte	.LASF100
 2567 0a63 01       		.byte	0x1
 2568 0a64 BC03     		.2byte	0x3bc
 2569 0a66 01       		.byte	0x1
 2570 0a67 EB000000 		.4byte	0xeb
 2571 0a6b 4C030000 		.4byte	.LFB56
 2572 0a6f 8C030000 		.4byte	.LFE56
 2573 0a73 4A060000 		.4byte	.LLST31
 2574 0a77 01       		.byte	0x1
 2575 0a78 DD0A0000 		.4byte	0xadd
 2576 0a7c 1D       		.uleb128 0x1d
 2577 0a7d 65040000 		.4byte	.LASF51
 2578 0a81 01       		.byte	0x1
 2579 0a82 BC03     		.2byte	0x3bc
 2580 0a84 E2030000 		.4byte	0x3e2
 2581 0a88 6A060000 		.4byte	.LLST32
 2582 0a8c 1D       		.uleb128 0x1d
 2583 0a8d EA010000 		.4byte	.LASF66
 2584 0a91 01       		.byte	0x1
 2585 0a92 BC03     		.2byte	0x3bc
 2586 0a94 97000000 		.4byte	0x97
 2587 0a98 A4060000 		.4byte	.LLST33
 2588 0a9c 1E       		.uleb128 0x1e
 2589 0a9d C8040000 		.4byte	.LASF101
 2590 0aa1 01       		.byte	0x1
 2591 0aa2 BE03     		.2byte	0x3be
 2592 0aa4 A2000000 		.4byte	0xa2
 2593 0aa8 D0060000 		.4byte	.LLST34
 2594 0aac 1E       		.uleb128 0x1e
 2595 0aad C5060000 		.4byte	.LASF69
 2596 0ab1 01       		.byte	0x1
 2597 0ab2 BE03     		.2byte	0x3be
 2598 0ab4 A2000000 		.4byte	0xa2
 2599 0ab8 4E070000 		.4byte	.LLST35
 2600 0abc 1E       		.uleb128 0x1e
 2601 0abd EB060000 		.4byte	.LASF67
 2602 0ac1 01       		.byte	0x1
 2603 0ac2 BE03     		.2byte	0x3be
 2604 0ac4 A2000000 		.4byte	0xa2
 2605 0ac8 83070000 		.4byte	.LLST36
 2606 0acc 1E       		.uleb128 0x1e
 2607 0acd 21010000 		.4byte	.LASF98
 2608 0ad1 01       		.byte	0x1
 2609 0ad2 BF03     		.2byte	0x3bf
 2610 0ad4 EB000000 		.4byte	0xeb
 2611 0ad8 A7070000 		.4byte	.LLST37
 2612 0adc 00       		.byte	0
 2613 0add 1A       		.uleb128 0x1a
 2614 0ade 01       		.byte	0x1
ARM GAS  /var/folders/lp/0dm50ddn51vc39svyzv_6fp00000gn/T//ccLUgEfv.s 			page 66


 2615 0adf A7020000 		.4byte	.LASF102
 2616 0ae3 01       		.byte	0x1
 2617 0ae4 0604     		.2byte	0x406
 2618 0ae6 01       		.byte	0x1
 2619 0ae7 8C030000 		.4byte	.LFB57
 2620 0aeb 9C030000 		.4byte	.LFE57
 2621 0aef 02       		.byte	0x2
 2622 0af0 7D       		.byte	0x7d
 2623 0af1 00       		.sleb128 0
 2624 0af2 01       		.byte	0x1
 2625 0af3 360B0000 		.4byte	0xb36
 2626 0af7 1B       		.uleb128 0x1b
 2627 0af8 65040000 		.4byte	.LASF51
 2628 0afc 01       		.byte	0x1
 2629 0afd 0604     		.2byte	0x406
 2630 0aff E2030000 		.4byte	0x3e2
 2631 0b03 01       		.byte	0x1
 2632 0b04 50       		.byte	0x50
 2633 0b05 1D       		.uleb128 0x1d
 2634 0b06 EA010000 		.4byte	.LASF66
 2635 0b0a 01       		.byte	0x1
 2636 0b0b 0604     		.2byte	0x406
 2637 0b0d 97000000 		.4byte	0x97
 2638 0b11 C6070000 		.4byte	.LLST38
 2639 0b15 1E       		.uleb128 0x1e
 2640 0b16 C8040000 		.4byte	.LASF101
 2641 0b1a 01       		.byte	0x1
 2642 0b1b 0804     		.2byte	0x408
 2643 0b1d 97000000 		.4byte	0x97
 2644 0b21 E7070000 		.4byte	.LLST39
 2645 0b25 1E       		.uleb128 0x1e
 2646 0b26 C5060000 		.4byte	.LASF69
 2647 0b2a 01       		.byte	0x1
 2648 0b2b 0804     		.2byte	0x408
 2649 0b2d 97000000 		.4byte	0x97
 2650 0b31 0E080000 		.4byte	.LLST40
 2651 0b35 00       		.byte	0
 2652 0b36 22       		.uleb128 0x22
 2653 0b37 CC060000 		.4byte	.LASF109
 2654 0b3b 07       		.byte	0x7
 2655 0b3c CE06     		.2byte	0x6ce
 2656 0b3e 440B0000 		.4byte	0xb44
 2657 0b42 01       		.byte	0x1
 2658 0b43 01       		.byte	0x1
 2659 0b44 05       		.uleb128 0x5
 2660 0b45 85000000 		.4byte	0x85
 2661 0b49 23       		.uleb128 0x23
 2662 0b4a 01       		.byte	0x1
 2663 0b4b 01       		.byte	0x1
 2664 0b4c 20040000 		.4byte	.LASF103
 2665 0b50 20040000 		.4byte	.LASF103
 2666 0b54 05       		.byte	0x5
 2667 0b55 BC02     		.2byte	0x2bc
 2668 0b57 23       		.uleb128 0x23
 2669 0b58 01       		.byte	0x1
 2670 0b59 01       		.byte	0x1
 2671 0b5a 7E020000 		.4byte	.LASF104
ARM GAS  /var/folders/lp/0dm50ddn51vc39svyzv_6fp00000gn/T//ccLUgEfv.s 			page 67


 2672 0b5e 7E020000 		.4byte	.LASF104
 2673 0b62 05       		.byte	0x5
 2674 0b63 BD02     		.2byte	0x2bd
 2675 0b65 23       		.uleb128 0x23
 2676 0b66 01       		.byte	0x1
 2677 0b67 01       		.byte	0x1
 2678 0b68 2E060000 		.4byte	.LASF105
 2679 0b6c 2E060000 		.4byte	.LASF105
 2680 0b70 05       		.byte	0x5
 2681 0b71 B302     		.2byte	0x2b3
 2682 0b73 00       		.byte	0
 2683              		.section	.debug_abbrev,"",%progbits
 2684              	.Ldebug_abbrev0:
 2685 0000 01       		.uleb128 0x1
 2686 0001 11       		.uleb128 0x11
 2687 0002 01       		.byte	0x1
 2688 0003 25       		.uleb128 0x25
 2689 0004 0E       		.uleb128 0xe
 2690 0005 13       		.uleb128 0x13
 2691 0006 0B       		.uleb128 0xb
 2692 0007 03       		.uleb128 0x3
 2693 0008 0E       		.uleb128 0xe
 2694 0009 1B       		.uleb128 0x1b
 2695 000a 0E       		.uleb128 0xe
 2696 000b 11       		.uleb128 0x11
 2697 000c 01       		.uleb128 0x1
 2698 000d 12       		.uleb128 0x12
 2699 000e 01       		.uleb128 0x1
 2700 000f 10       		.uleb128 0x10
 2701 0010 06       		.uleb128 0x6
 2702 0011 00       		.byte	0
 2703 0012 00       		.byte	0
 2704 0013 02       		.uleb128 0x2
 2705 0014 24       		.uleb128 0x24
 2706 0015 00       		.byte	0
 2707 0016 0B       		.uleb128 0xb
 2708 0017 0B       		.uleb128 0xb
 2709 0018 3E       		.uleb128 0x3e
 2710 0019 0B       		.uleb128 0xb
 2711 001a 03       		.uleb128 0x3
 2712 001b 0E       		.uleb128 0xe
 2713 001c 00       		.byte	0
 2714 001d 00       		.byte	0
 2715 001e 03       		.uleb128 0x3
 2716 001f 16       		.uleb128 0x16
 2717 0020 00       		.byte	0
 2718 0021 03       		.uleb128 0x3
 2719 0022 0E       		.uleb128 0xe
 2720 0023 3A       		.uleb128 0x3a
 2721 0024 0B       		.uleb128 0xb
 2722 0025 3B       		.uleb128 0x3b
 2723 0026 0B       		.uleb128 0xb
 2724 0027 49       		.uleb128 0x49
 2725 0028 13       		.uleb128 0x13
 2726 0029 00       		.byte	0
 2727 002a 00       		.byte	0
 2728 002b 04       		.uleb128 0x4
ARM GAS  /var/folders/lp/0dm50ddn51vc39svyzv_6fp00000gn/T//ccLUgEfv.s 			page 68


 2729 002c 24       		.uleb128 0x24
 2730 002d 00       		.byte	0
 2731 002e 0B       		.uleb128 0xb
 2732 002f 0B       		.uleb128 0xb
 2733 0030 3E       		.uleb128 0x3e
 2734 0031 0B       		.uleb128 0xb
 2735 0032 03       		.uleb128 0x3
 2736 0033 08       		.uleb128 0x8
 2737 0034 00       		.byte	0
 2738 0035 00       		.byte	0
 2739 0036 05       		.uleb128 0x5
 2740 0037 35       		.uleb128 0x35
 2741 0038 00       		.byte	0
 2742 0039 49       		.uleb128 0x49
 2743 003a 13       		.uleb128 0x13
 2744 003b 00       		.byte	0
 2745 003c 00       		.byte	0
 2746 003d 06       		.uleb128 0x6
 2747 003e 16       		.uleb128 0x16
 2748 003f 00       		.byte	0
 2749 0040 03       		.uleb128 0x3
 2750 0041 08       		.uleb128 0x8
 2751 0042 3A       		.uleb128 0x3a
 2752 0043 0B       		.uleb128 0xb
 2753 0044 3B       		.uleb128 0x3b
 2754 0045 05       		.uleb128 0x5
 2755 0046 49       		.uleb128 0x49
 2756 0047 13       		.uleb128 0x13
 2757 0048 00       		.byte	0
 2758 0049 00       		.byte	0
 2759 004a 07       		.uleb128 0x7
 2760 004b 04       		.uleb128 0x4
 2761 004c 01       		.byte	0x1
 2762 004d 0B       		.uleb128 0xb
 2763 004e 0B       		.uleb128 0xb
 2764 004f 49       		.uleb128 0x49
 2765 0050 13       		.uleb128 0x13
 2766 0051 3A       		.uleb128 0x3a
 2767 0052 0B       		.uleb128 0xb
 2768 0053 3B       		.uleb128 0x3b
 2769 0054 05       		.uleb128 0x5
 2770 0055 01       		.uleb128 0x1
 2771 0056 13       		.uleb128 0x13
 2772 0057 00       		.byte	0
 2773 0058 00       		.byte	0
 2774 0059 08       		.uleb128 0x8
 2775 005a 28       		.uleb128 0x28
 2776 005b 00       		.byte	0
 2777 005c 03       		.uleb128 0x3
 2778 005d 0E       		.uleb128 0xe
 2779 005e 1C       		.uleb128 0x1c
 2780 005f 0B       		.uleb128 0xb
 2781 0060 00       		.byte	0
 2782 0061 00       		.byte	0
 2783 0062 09       		.uleb128 0x9
 2784 0063 28       		.uleb128 0x28
 2785 0064 00       		.byte	0
ARM GAS  /var/folders/lp/0dm50ddn51vc39svyzv_6fp00000gn/T//ccLUgEfv.s 			page 69


 2786 0065 03       		.uleb128 0x3
 2787 0066 08       		.uleb128 0x8
 2788 0067 1C       		.uleb128 0x1c
 2789 0068 0B       		.uleb128 0xb
 2790 0069 00       		.byte	0
 2791 006a 00       		.byte	0
 2792 006b 0A       		.uleb128 0xa
 2793 006c 16       		.uleb128 0x16
 2794 006d 00       		.byte	0
 2795 006e 03       		.uleb128 0x3
 2796 006f 0E       		.uleb128 0xe
 2797 0070 3A       		.uleb128 0x3a
 2798 0071 0B       		.uleb128 0xb
 2799 0072 3B       		.uleb128 0x3b
 2800 0073 05       		.uleb128 0x5
 2801 0074 49       		.uleb128 0x49
 2802 0075 13       		.uleb128 0x13
 2803 0076 00       		.byte	0
 2804 0077 00       		.byte	0
 2805 0078 0B       		.uleb128 0xb
 2806 0079 13       		.uleb128 0x13
 2807 007a 01       		.byte	0x1
 2808 007b 0B       		.uleb128 0xb
 2809 007c 0B       		.uleb128 0xb
 2810 007d 3A       		.uleb128 0x3a
 2811 007e 0B       		.uleb128 0xb
 2812 007f 3B       		.uleb128 0x3b
 2813 0080 05       		.uleb128 0x5
 2814 0081 01       		.uleb128 0x1
 2815 0082 13       		.uleb128 0x13
 2816 0083 00       		.byte	0
 2817 0084 00       		.byte	0
 2818 0085 0C       		.uleb128 0xc
 2819 0086 0D       		.uleb128 0xd
 2820 0087 00       		.byte	0
 2821 0088 03       		.uleb128 0x3
 2822 0089 08       		.uleb128 0x8
 2823 008a 3A       		.uleb128 0x3a
 2824 008b 0B       		.uleb128 0xb
 2825 008c 3B       		.uleb128 0x3b
 2826 008d 05       		.uleb128 0x5
 2827 008e 49       		.uleb128 0x49
 2828 008f 13       		.uleb128 0x13
 2829 0090 38       		.uleb128 0x38
 2830 0091 0A       		.uleb128 0xa
 2831 0092 00       		.byte	0
 2832 0093 00       		.byte	0
 2833 0094 0D       		.uleb128 0xd
 2834 0095 0D       		.uleb128 0xd
 2835 0096 00       		.byte	0
 2836 0097 03       		.uleb128 0x3
 2837 0098 0E       		.uleb128 0xe
 2838 0099 3A       		.uleb128 0x3a
 2839 009a 0B       		.uleb128 0xb
 2840 009b 3B       		.uleb128 0x3b
 2841 009c 05       		.uleb128 0x5
 2842 009d 49       		.uleb128 0x49
ARM GAS  /var/folders/lp/0dm50ddn51vc39svyzv_6fp00000gn/T//ccLUgEfv.s 			page 70


 2843 009e 13       		.uleb128 0x13
 2844 009f 38       		.uleb128 0x38
 2845 00a0 0A       		.uleb128 0xa
 2846 00a1 00       		.byte	0
 2847 00a2 00       		.byte	0
 2848 00a3 0E       		.uleb128 0xe
 2849 00a4 13       		.uleb128 0x13
 2850 00a5 01       		.byte	0x1
 2851 00a6 0B       		.uleb128 0xb
 2852 00a7 0B       		.uleb128 0xb
 2853 00a8 3A       		.uleb128 0x3a
 2854 00a9 0B       		.uleb128 0xb
 2855 00aa 3B       		.uleb128 0x3b
 2856 00ab 0B       		.uleb128 0xb
 2857 00ac 01       		.uleb128 0x1
 2858 00ad 13       		.uleb128 0x13
 2859 00ae 00       		.byte	0
 2860 00af 00       		.byte	0
 2861 00b0 0F       		.uleb128 0xf
 2862 00b1 0D       		.uleb128 0xd
 2863 00b2 00       		.byte	0
 2864 00b3 03       		.uleb128 0x3
 2865 00b4 0E       		.uleb128 0xe
 2866 00b5 3A       		.uleb128 0x3a
 2867 00b6 0B       		.uleb128 0xb
 2868 00b7 3B       		.uleb128 0x3b
 2869 00b8 0B       		.uleb128 0xb
 2870 00b9 49       		.uleb128 0x49
 2871 00ba 13       		.uleb128 0x13
 2872 00bb 38       		.uleb128 0x38
 2873 00bc 0A       		.uleb128 0xa
 2874 00bd 00       		.byte	0
 2875 00be 00       		.byte	0
 2876 00bf 10       		.uleb128 0x10
 2877 00c0 2E       		.uleb128 0x2e
 2878 00c1 01       		.byte	0x1
 2879 00c2 3F       		.uleb128 0x3f
 2880 00c3 0C       		.uleb128 0xc
 2881 00c4 03       		.uleb128 0x3
 2882 00c5 0E       		.uleb128 0xe
 2883 00c6 3A       		.uleb128 0x3a
 2884 00c7 0B       		.uleb128 0xb
 2885 00c8 3B       		.uleb128 0x3b
 2886 00c9 0B       		.uleb128 0xb
 2887 00ca 27       		.uleb128 0x27
 2888 00cb 0C       		.uleb128 0xc
 2889 00cc 11       		.uleb128 0x11
 2890 00cd 01       		.uleb128 0x1
 2891 00ce 12       		.uleb128 0x12
 2892 00cf 01       		.uleb128 0x1
 2893 00d0 40       		.uleb128 0x40
 2894 00d1 06       		.uleb128 0x6
 2895 00d2 9742     		.uleb128 0x2117
 2896 00d4 0C       		.uleb128 0xc
 2897 00d5 01       		.uleb128 0x1
 2898 00d6 13       		.uleb128 0x13
 2899 00d7 00       		.byte	0
ARM GAS  /var/folders/lp/0dm50ddn51vc39svyzv_6fp00000gn/T//ccLUgEfv.s 			page 71


 2900 00d8 00       		.byte	0
 2901 00d9 11       		.uleb128 0x11
 2902 00da 05       		.uleb128 0x5
 2903 00db 00       		.byte	0
 2904 00dc 03       		.uleb128 0x3
 2905 00dd 0E       		.uleb128 0xe
 2906 00de 3A       		.uleb128 0x3a
 2907 00df 0B       		.uleb128 0xb
 2908 00e0 3B       		.uleb128 0x3b
 2909 00e1 0B       		.uleb128 0xb
 2910 00e2 49       		.uleb128 0x49
 2911 00e3 13       		.uleb128 0x13
 2912 00e4 02       		.uleb128 0x2
 2913 00e5 06       		.uleb128 0x6
 2914 00e6 00       		.byte	0
 2915 00e7 00       		.byte	0
 2916 00e8 12       		.uleb128 0x12
 2917 00e9 898201   		.uleb128 0x4109
 2918 00ec 01       		.byte	0x1
 2919 00ed 11       		.uleb128 0x11
 2920 00ee 01       		.uleb128 0x1
 2921 00ef 31       		.uleb128 0x31
 2922 00f0 13       		.uleb128 0x13
 2923 00f1 01       		.uleb128 0x1
 2924 00f2 13       		.uleb128 0x13
 2925 00f3 00       		.byte	0
 2926 00f4 00       		.byte	0
 2927 00f5 13       		.uleb128 0x13
 2928 00f6 8A8201   		.uleb128 0x410a
 2929 00f9 00       		.byte	0
 2930 00fa 02       		.uleb128 0x2
 2931 00fb 0A       		.uleb128 0xa
 2932 00fc 9142     		.uleb128 0x2111
 2933 00fe 0A       		.uleb128 0xa
 2934 00ff 00       		.byte	0
 2935 0100 00       		.byte	0
 2936 0101 14       		.uleb128 0x14
 2937 0102 898201   		.uleb128 0x4109
 2938 0105 01       		.byte	0x1
 2939 0106 11       		.uleb128 0x11
 2940 0107 01       		.uleb128 0x1
 2941 0108 9542     		.uleb128 0x2115
 2942 010a 0C       		.uleb128 0xc
 2943 010b 31       		.uleb128 0x31
 2944 010c 13       		.uleb128 0x13
 2945 010d 01       		.uleb128 0x1
 2946 010e 13       		.uleb128 0x13
 2947 010f 00       		.byte	0
 2948 0110 00       		.byte	0
 2949 0111 15       		.uleb128 0x15
 2950 0112 898201   		.uleb128 0x4109
 2951 0115 00       		.byte	0
 2952 0116 11       		.uleb128 0x11
 2953 0117 01       		.uleb128 0x1
 2954 0118 9542     		.uleb128 0x2115
 2955 011a 0C       		.uleb128 0xc
 2956 011b 31       		.uleb128 0x31
ARM GAS  /var/folders/lp/0dm50ddn51vc39svyzv_6fp00000gn/T//ccLUgEfv.s 			page 72


 2957 011c 13       		.uleb128 0x13
 2958 011d 00       		.byte	0
 2959 011e 00       		.byte	0
 2960 011f 16       		.uleb128 0x16
 2961 0120 0F       		.uleb128 0xf
 2962 0121 00       		.byte	0
 2963 0122 0B       		.uleb128 0xb
 2964 0123 0B       		.uleb128 0xb
 2965 0124 49       		.uleb128 0x49
 2966 0125 13       		.uleb128 0x13
 2967 0126 00       		.byte	0
 2968 0127 00       		.byte	0
 2969 0128 17       		.uleb128 0x17
 2970 0129 34       		.uleb128 0x34
 2971 012a 00       		.byte	0
 2972 012b 03       		.uleb128 0x3
 2973 012c 0E       		.uleb128 0xe
 2974 012d 3A       		.uleb128 0x3a
 2975 012e 0B       		.uleb128 0xb
 2976 012f 3B       		.uleb128 0x3b
 2977 0130 0B       		.uleb128 0xb
 2978 0131 49       		.uleb128 0x49
 2979 0132 13       		.uleb128 0x13
 2980 0133 02       		.uleb128 0x2
 2981 0134 06       		.uleb128 0x6
 2982 0135 00       		.byte	0
 2983 0136 00       		.byte	0
 2984 0137 18       		.uleb128 0x18
 2985 0138 34       		.uleb128 0x34
 2986 0139 00       		.byte	0
 2987 013a 03       		.uleb128 0x3
 2988 013b 0E       		.uleb128 0xe
 2989 013c 3A       		.uleb128 0x3a
 2990 013d 0B       		.uleb128 0xb
 2991 013e 3B       		.uleb128 0x3b
 2992 013f 0B       		.uleb128 0xb
 2993 0140 49       		.uleb128 0x49
 2994 0141 13       		.uleb128 0x13
 2995 0142 02       		.uleb128 0x2
 2996 0143 0A       		.uleb128 0xa
 2997 0144 00       		.byte	0
 2998 0145 00       		.byte	0
 2999 0146 19       		.uleb128 0x19
 3000 0147 898201   		.uleb128 0x4109
 3001 014a 01       		.byte	0x1
 3002 014b 11       		.uleb128 0x11
 3003 014c 01       		.uleb128 0x1
 3004 014d 31       		.uleb128 0x31
 3005 014e 13       		.uleb128 0x13
 3006 014f 00       		.byte	0
 3007 0150 00       		.byte	0
 3008 0151 1A       		.uleb128 0x1a
 3009 0152 2E       		.uleb128 0x2e
 3010 0153 01       		.byte	0x1
 3011 0154 3F       		.uleb128 0x3f
 3012 0155 0C       		.uleb128 0xc
 3013 0156 03       		.uleb128 0x3
ARM GAS  /var/folders/lp/0dm50ddn51vc39svyzv_6fp00000gn/T//ccLUgEfv.s 			page 73


 3014 0157 0E       		.uleb128 0xe
 3015 0158 3A       		.uleb128 0x3a
 3016 0159 0B       		.uleb128 0xb
 3017 015a 3B       		.uleb128 0x3b
 3018 015b 05       		.uleb128 0x5
 3019 015c 27       		.uleb128 0x27
 3020 015d 0C       		.uleb128 0xc
 3021 015e 11       		.uleb128 0x11
 3022 015f 01       		.uleb128 0x1
 3023 0160 12       		.uleb128 0x12
 3024 0161 01       		.uleb128 0x1
 3025 0162 40       		.uleb128 0x40
 3026 0163 0A       		.uleb128 0xa
 3027 0164 9742     		.uleb128 0x2117
 3028 0166 0C       		.uleb128 0xc
 3029 0167 01       		.uleb128 0x1
 3030 0168 13       		.uleb128 0x13
 3031 0169 00       		.byte	0
 3032 016a 00       		.byte	0
 3033 016b 1B       		.uleb128 0x1b
 3034 016c 05       		.uleb128 0x5
 3035 016d 00       		.byte	0
 3036 016e 03       		.uleb128 0x3
 3037 016f 0E       		.uleb128 0xe
 3038 0170 3A       		.uleb128 0x3a
 3039 0171 0B       		.uleb128 0xb
 3040 0172 3B       		.uleb128 0x3b
 3041 0173 05       		.uleb128 0x5
 3042 0174 49       		.uleb128 0x49
 3043 0175 13       		.uleb128 0x13
 3044 0176 02       		.uleb128 0x2
 3045 0177 0A       		.uleb128 0xa
 3046 0178 00       		.byte	0
 3047 0179 00       		.byte	0
 3048 017a 1C       		.uleb128 0x1c
 3049 017b 2E       		.uleb128 0x2e
 3050 017c 01       		.byte	0x1
 3051 017d 3F       		.uleb128 0x3f
 3052 017e 0C       		.uleb128 0xc
 3053 017f 03       		.uleb128 0x3
 3054 0180 0E       		.uleb128 0xe
 3055 0181 3A       		.uleb128 0x3a
 3056 0182 0B       		.uleb128 0xb
 3057 0183 3B       		.uleb128 0x3b
 3058 0184 05       		.uleb128 0x5
 3059 0185 27       		.uleb128 0x27
 3060 0186 0C       		.uleb128 0xc
 3061 0187 11       		.uleb128 0x11
 3062 0188 01       		.uleb128 0x1
 3063 0189 12       		.uleb128 0x12
 3064 018a 01       		.uleb128 0x1
 3065 018b 40       		.uleb128 0x40
 3066 018c 06       		.uleb128 0x6
 3067 018d 9742     		.uleb128 0x2117
 3068 018f 0C       		.uleb128 0xc
 3069 0190 01       		.uleb128 0x1
 3070 0191 13       		.uleb128 0x13
ARM GAS  /var/folders/lp/0dm50ddn51vc39svyzv_6fp00000gn/T//ccLUgEfv.s 			page 74


 3071 0192 00       		.byte	0
 3072 0193 00       		.byte	0
 3073 0194 1D       		.uleb128 0x1d
 3074 0195 05       		.uleb128 0x5
 3075 0196 00       		.byte	0
 3076 0197 03       		.uleb128 0x3
 3077 0198 0E       		.uleb128 0xe
 3078 0199 3A       		.uleb128 0x3a
 3079 019a 0B       		.uleb128 0xb
 3080 019b 3B       		.uleb128 0x3b
 3081 019c 05       		.uleb128 0x5
 3082 019d 49       		.uleb128 0x49
 3083 019e 13       		.uleb128 0x13
 3084 019f 02       		.uleb128 0x2
 3085 01a0 06       		.uleb128 0x6
 3086 01a1 00       		.byte	0
 3087 01a2 00       		.byte	0
 3088 01a3 1E       		.uleb128 0x1e
 3089 01a4 34       		.uleb128 0x34
 3090 01a5 00       		.byte	0
 3091 01a6 03       		.uleb128 0x3
 3092 01a7 0E       		.uleb128 0xe
 3093 01a8 3A       		.uleb128 0x3a
 3094 01a9 0B       		.uleb128 0xb
 3095 01aa 3B       		.uleb128 0x3b
 3096 01ab 05       		.uleb128 0x5
 3097 01ac 49       		.uleb128 0x49
 3098 01ad 13       		.uleb128 0x13
 3099 01ae 02       		.uleb128 0x2
 3100 01af 06       		.uleb128 0x6
 3101 01b0 00       		.byte	0
 3102 01b1 00       		.byte	0
 3103 01b2 1F       		.uleb128 0x1f
 3104 01b3 34       		.uleb128 0x34
 3105 01b4 00       		.byte	0
 3106 01b5 03       		.uleb128 0x3
 3107 01b6 0E       		.uleb128 0xe
 3108 01b7 3A       		.uleb128 0x3a
 3109 01b8 0B       		.uleb128 0xb
 3110 01b9 3B       		.uleb128 0x3b
 3111 01ba 05       		.uleb128 0x5
 3112 01bb 49       		.uleb128 0x49
 3113 01bc 13       		.uleb128 0x13
 3114 01bd 02       		.uleb128 0x2
 3115 01be 0A       		.uleb128 0xa
 3116 01bf 00       		.byte	0
 3117 01c0 00       		.byte	0
 3118 01c1 20       		.uleb128 0x20
 3119 01c2 2E       		.uleb128 0x2e
 3120 01c3 01       		.byte	0x1
 3121 01c4 3F       		.uleb128 0x3f
 3122 01c5 0C       		.uleb128 0xc
 3123 01c6 03       		.uleb128 0x3
 3124 01c7 0E       		.uleb128 0xe
 3125 01c8 3A       		.uleb128 0x3a
 3126 01c9 0B       		.uleb128 0xb
 3127 01ca 3B       		.uleb128 0x3b
ARM GAS  /var/folders/lp/0dm50ddn51vc39svyzv_6fp00000gn/T//ccLUgEfv.s 			page 75


 3128 01cb 05       		.uleb128 0x5
 3129 01cc 27       		.uleb128 0x27
 3130 01cd 0C       		.uleb128 0xc
 3131 01ce 49       		.uleb128 0x49
 3132 01cf 13       		.uleb128 0x13
 3133 01d0 11       		.uleb128 0x11
 3134 01d1 01       		.uleb128 0x1
 3135 01d2 12       		.uleb128 0x12
 3136 01d3 01       		.uleb128 0x1
 3137 01d4 40       		.uleb128 0x40
 3138 01d5 0A       		.uleb128 0xa
 3139 01d6 9742     		.uleb128 0x2117
 3140 01d8 0C       		.uleb128 0xc
 3141 01d9 01       		.uleb128 0x1
 3142 01da 13       		.uleb128 0x13
 3143 01db 00       		.byte	0
 3144 01dc 00       		.byte	0
 3145 01dd 21       		.uleb128 0x21
 3146 01de 2E       		.uleb128 0x2e
 3147 01df 01       		.byte	0x1
 3148 01e0 3F       		.uleb128 0x3f
 3149 01e1 0C       		.uleb128 0xc
 3150 01e2 03       		.uleb128 0x3
 3151 01e3 0E       		.uleb128 0xe
 3152 01e4 3A       		.uleb128 0x3a
 3153 01e5 0B       		.uleb128 0xb
 3154 01e6 3B       		.uleb128 0x3b
 3155 01e7 05       		.uleb128 0x5
 3156 01e8 27       		.uleb128 0x27
 3157 01e9 0C       		.uleb128 0xc
 3158 01ea 49       		.uleb128 0x49
 3159 01eb 13       		.uleb128 0x13
 3160 01ec 11       		.uleb128 0x11
 3161 01ed 01       		.uleb128 0x1
 3162 01ee 12       		.uleb128 0x12
 3163 01ef 01       		.uleb128 0x1
 3164 01f0 40       		.uleb128 0x40
 3165 01f1 06       		.uleb128 0x6
 3166 01f2 9742     		.uleb128 0x2117
 3167 01f4 0C       		.uleb128 0xc
 3168 01f5 01       		.uleb128 0x1
 3169 01f6 13       		.uleb128 0x13
 3170 01f7 00       		.byte	0
 3171 01f8 00       		.byte	0
 3172 01f9 22       		.uleb128 0x22
 3173 01fa 34       		.uleb128 0x34
 3174 01fb 00       		.byte	0
 3175 01fc 03       		.uleb128 0x3
 3176 01fd 0E       		.uleb128 0xe
 3177 01fe 3A       		.uleb128 0x3a
 3178 01ff 0B       		.uleb128 0xb
 3179 0200 3B       		.uleb128 0x3b
 3180 0201 05       		.uleb128 0x5
 3181 0202 49       		.uleb128 0x49
 3182 0203 13       		.uleb128 0x13
 3183 0204 3F       		.uleb128 0x3f
 3184 0205 0C       		.uleb128 0xc
ARM GAS  /var/folders/lp/0dm50ddn51vc39svyzv_6fp00000gn/T//ccLUgEfv.s 			page 76


 3185 0206 3C       		.uleb128 0x3c
 3186 0207 0C       		.uleb128 0xc
 3187 0208 00       		.byte	0
 3188 0209 00       		.byte	0
 3189 020a 23       		.uleb128 0x23
 3190 020b 2E       		.uleb128 0x2e
 3191 020c 00       		.byte	0
 3192 020d 3F       		.uleb128 0x3f
 3193 020e 0C       		.uleb128 0xc
 3194 020f 3C       		.uleb128 0x3c
 3195 0210 0C       		.uleb128 0xc
 3196 0211 8740     		.uleb128 0x2007
 3197 0213 0E       		.uleb128 0xe
 3198 0214 03       		.uleb128 0x3
 3199 0215 0E       		.uleb128 0xe
 3200 0216 3A       		.uleb128 0x3a
 3201 0217 0B       		.uleb128 0xb
 3202 0218 3B       		.uleb128 0x3b
 3203 0219 05       		.uleb128 0x5
 3204 021a 00       		.byte	0
 3205 021b 00       		.byte	0
 3206 021c 00       		.byte	0
 3207              		.section	.debug_loc,"",%progbits
 3208              	.Ldebug_loc0:
 3209              	.LLST0:
 3210 0000 00000000 		.4byte	.LFB29-.Ltext0
 3211 0004 02000000 		.4byte	.LCFI0-.Ltext0
 3212 0008 0200     		.2byte	0x2
 3213 000a 7D       		.byte	0x7d
 3214 000b 00       		.sleb128 0
 3215 000c 02000000 		.4byte	.LCFI0-.Ltext0
 3216 0010 16000000 		.4byte	.LCFI1-.Ltext0
 3217 0014 0200     		.2byte	0x2
 3218 0016 7D       		.byte	0x7d
 3219 0017 08       		.sleb128 8
 3220 0018 16000000 		.4byte	.LCFI1-.Ltext0
 3221 001c 20000000 		.4byte	.LCFI2-.Ltext0
 3222 0020 0200     		.2byte	0x2
 3223 0022 7D       		.byte	0x7d
 3224 0023 00       		.sleb128 0
 3225 0024 20000000 		.4byte	.LCFI2-.Ltext0
 3226 0028 82000000 		.4byte	.LCFI3-.Ltext0
 3227 002c 0200     		.2byte	0x2
 3228 002e 7D       		.byte	0x7d
 3229 002f 08       		.sleb128 8
 3230 0030 82000000 		.4byte	.LCFI3-.Ltext0
 3231 0034 86000000 		.4byte	.LCFI4-.Ltext0
 3232 0038 0200     		.2byte	0x2
 3233 003a 7D       		.byte	0x7d
 3234 003b 00       		.sleb128 0
 3235 003c 86000000 		.4byte	.LCFI4-.Ltext0
 3236 0040 9C000000 		.4byte	.LFE29-.Ltext0
 3237 0044 0200     		.2byte	0x2
 3238 0046 7D       		.byte	0x7d
 3239 0047 08       		.sleb128 8
 3240 0048 00000000 		.4byte	0
 3241 004c 00000000 		.4byte	0
ARM GAS  /var/folders/lp/0dm50ddn51vc39svyzv_6fp00000gn/T//ccLUgEfv.s 			page 77


 3242              	.LLST1:
 3243 0050 00000000 		.4byte	.LVL0-.Ltext0
 3244 0054 0E000000 		.4byte	.LVL1-.Ltext0
 3245 0058 0100     		.2byte	0x1
 3246 005a 50       		.byte	0x50
 3247 005b 0E000000 		.4byte	.LVL1-.Ltext0
 3248 005f 20000000 		.4byte	.LVL3-.Ltext0
 3249 0063 0400     		.2byte	0x4
 3250 0065 F3       		.byte	0xf3
 3251 0066 01       		.uleb128 0x1
 3252 0067 50       		.byte	0x50
 3253 0068 9F       		.byte	0x9f
 3254 0069 20000000 		.4byte	.LVL3-.Ltext0
 3255 006d 2C000000 		.4byte	.LVL4-.Ltext0
 3256 0071 0100     		.2byte	0x1
 3257 0073 50       		.byte	0x50
 3258 0074 2C000000 		.4byte	.LVL4-.Ltext0
 3259 0078 38000000 		.4byte	.LVL6-.Ltext0
 3260 007c 0400     		.2byte	0x4
 3261 007e F3       		.byte	0xf3
 3262 007f 01       		.uleb128 0x1
 3263 0080 50       		.byte	0x50
 3264 0081 9F       		.byte	0x9f
 3265 0082 38000000 		.4byte	.LVL6-.Ltext0
 3266 0086 44000000 		.4byte	.LVL7-.Ltext0
 3267 008a 0100     		.2byte	0x1
 3268 008c 50       		.byte	0x50
 3269 008d 44000000 		.4byte	.LVL7-.Ltext0
 3270 0091 50000000 		.4byte	.LVL9-.Ltext0
 3271 0095 0400     		.2byte	0x4
 3272 0097 F3       		.byte	0xf3
 3273 0098 01       		.uleb128 0x1
 3274 0099 50       		.byte	0x50
 3275 009a 9F       		.byte	0x9f
 3276 009b 50000000 		.4byte	.LVL9-.Ltext0
 3277 009f 5C000000 		.4byte	.LVL10-.Ltext0
 3278 00a3 0100     		.2byte	0x1
 3279 00a5 50       		.byte	0x50
 3280 00a6 5C000000 		.4byte	.LVL10-.Ltext0
 3281 00aa 68000000 		.4byte	.LVL12-.Ltext0
 3282 00ae 0400     		.2byte	0x4
 3283 00b0 F3       		.byte	0xf3
 3284 00b1 01       		.uleb128 0x1
 3285 00b2 50       		.byte	0x50
 3286 00b3 9F       		.byte	0x9f
 3287 00b4 68000000 		.4byte	.LVL12-.Ltext0
 3288 00b8 74000000 		.4byte	.LVL13-.Ltext0
 3289 00bc 0100     		.2byte	0x1
 3290 00be 50       		.byte	0x50
 3291 00bf 74000000 		.4byte	.LVL13-.Ltext0
 3292 00c3 86000000 		.4byte	.LVL15-.Ltext0
 3293 00c7 0400     		.2byte	0x4
 3294 00c9 F3       		.byte	0xf3
 3295 00ca 01       		.uleb128 0x1
 3296 00cb 50       		.byte	0x50
 3297 00cc 9F       		.byte	0x9f
 3298 00cd 86000000 		.4byte	.LVL15-.Ltext0
ARM GAS  /var/folders/lp/0dm50ddn51vc39svyzv_6fp00000gn/T//ccLUgEfv.s 			page 78


 3299 00d1 9C000000 		.4byte	.LFE29-.Ltext0
 3300 00d5 0100     		.2byte	0x1
 3301 00d7 50       		.byte	0x50
 3302 00d8 00000000 		.4byte	0
 3303 00dc 00000000 		.4byte	0
 3304              	.LLST2:
 3305 00e0 9C000000 		.4byte	.LFB30-.Ltext0
 3306 00e4 9E000000 		.4byte	.LCFI5-.Ltext0
 3307 00e8 0200     		.2byte	0x2
 3308 00ea 7D       		.byte	0x7d
 3309 00eb 00       		.sleb128 0
 3310 00ec 9E000000 		.4byte	.LCFI5-.Ltext0
 3311 00f0 D8000000 		.4byte	.LCFI6-.Ltext0
 3312 00f4 0200     		.2byte	0x2
 3313 00f6 7D       		.byte	0x7d
 3314 00f7 10       		.sleb128 16
 3315 00f8 D8000000 		.4byte	.LCFI6-.Ltext0
 3316 00fc 3C010000 		.4byte	.LCFI7-.Ltext0
 3317 0100 0200     		.2byte	0x2
 3318 0102 7D       		.byte	0x7d
 3319 0103 28       		.sleb128 40
 3320 0104 3C010000 		.4byte	.LCFI7-.Ltext0
 3321 0108 44010000 		.4byte	.LFE30-.Ltext0
 3322 010c 0200     		.2byte	0x2
 3323 010e 7D       		.byte	0x7d
 3324 010f 10       		.sleb128 16
 3325 0110 00000000 		.4byte	0
 3326 0114 00000000 		.4byte	0
 3327              	.LLST3:
 3328 0118 9C000000 		.4byte	.LVL16-.Ltext0
 3329 011c DE000000 		.4byte	.LVL29-.Ltext0
 3330 0120 0100     		.2byte	0x1
 3331 0122 50       		.byte	0x50
 3332 0123 DE000000 		.4byte	.LVL29-.Ltext0
 3333 0127 3E010000 		.4byte	.LVL41-.Ltext0
 3334 012b 0100     		.2byte	0x1
 3335 012d 54       		.byte	0x54
 3336 012e 3E010000 		.4byte	.LVL41-.Ltext0
 3337 0132 44010000 		.4byte	.LFE30-.Ltext0
 3338 0136 0400     		.2byte	0x4
 3339 0138 F3       		.byte	0xf3
 3340 0139 01       		.uleb128 0x1
 3341 013a 50       		.byte	0x50
 3342 013b 9F       		.byte	0x9f
 3343 013c 00000000 		.4byte	0
 3344 0140 00000000 		.4byte	0
 3345              	.LLST4:
 3346 0144 9C000000 		.4byte	.LVL16-.Ltext0
 3347 0148 B4000000 		.4byte	.LVL20-.Ltext0
 3348 014c 0100     		.2byte	0x1
 3349 014e 51       		.byte	0x51
 3350 014f B4000000 		.4byte	.LVL20-.Ltext0
 3351 0153 F8000000 		.4byte	.LVL32-.Ltext0
 3352 0157 0100     		.2byte	0x1
 3353 0159 56       		.byte	0x56
 3354 015a F8000000 		.4byte	.LVL32-.Ltext0
 3355 015e 44010000 		.4byte	.LFE30-.Ltext0
ARM GAS  /var/folders/lp/0dm50ddn51vc39svyzv_6fp00000gn/T//ccLUgEfv.s 			page 79


 3356 0162 0400     		.2byte	0x4
 3357 0164 F3       		.byte	0xf3
 3358 0165 01       		.uleb128 0x1
 3359 0166 51       		.byte	0x51
 3360 0167 9F       		.byte	0x9f
 3361 0168 00000000 		.4byte	0
 3362 016c 00000000 		.4byte	0
 3363              	.LLST5:
 3364 0170 9C000000 		.4byte	.LVL16-.Ltext0
 3365 0174 A8000000 		.4byte	.LVL17-.Ltext0
 3366 0178 0200     		.2byte	0x2
 3367 017a 30       		.byte	0x30
 3368 017b 9F       		.byte	0x9f
 3369 017c A8000000 		.4byte	.LVL17-.Ltext0
 3370 0180 AC000000 		.4byte	.LVL18-.Ltext0
 3371 0184 0B00     		.2byte	0xb
 3372 0186 73       		.byte	0x73
 3373 0187 00       		.sleb128 0
 3374 0188 0B       		.byte	0xb
 3375 0189 FFCF     		.2byte	0xcfff
 3376 018b 1A       		.byte	0x1a
 3377 018c 0A       		.byte	0xa
 3378 018d FFFF     		.2byte	0xffff
 3379 018f 1A       		.byte	0x1a
 3380 0190 9F       		.byte	0x9f
 3381 0191 AE000000 		.4byte	.LVL19-.Ltext0
 3382 0195 B6000000 		.4byte	.LVL21-.Ltext0
 3383 0199 0700     		.2byte	0x7
 3384 019b 73       		.byte	0x73
 3385 019c 00       		.sleb128 0
 3386 019d 0A       		.byte	0xa
 3387 019e FFFF     		.2byte	0xffff
 3388 01a0 1A       		.byte	0x1a
 3389 01a1 9F       		.byte	0x9f
 3390 01a2 B6000000 		.4byte	.LVL21-.Ltext0
 3391 01a6 B8000000 		.4byte	.LVL22-.Ltext0
 3392 01aa 0900     		.2byte	0x9
 3393 01ac 70       		.byte	0x70
 3394 01ad 10       		.sleb128 16
 3395 01ae 94       		.byte	0x94
 3396 01af 02       		.byte	0x2
 3397 01b0 0A       		.byte	0xa
 3398 01b1 FFFF     		.2byte	0xffff
 3399 01b3 1A       		.byte	0x1a
 3400 01b4 9F       		.byte	0x9f
 3401 01b5 B8000000 		.4byte	.LVL22-.Ltext0
 3402 01b9 C0000000 		.4byte	.LVL23-.Ltext0
 3403 01bd 0B00     		.2byte	0xb
 3404 01bf 72       		.byte	0x72
 3405 01c0 00       		.sleb128 0
 3406 01c1 0B       		.byte	0xb
 3407 01c2 F3E9     		.2byte	0xe9f3
 3408 01c4 1A       		.byte	0x1a
 3409 01c5 0A       		.byte	0xa
 3410 01c6 FFFF     		.2byte	0xffff
 3411 01c8 1A       		.byte	0x1a
 3412 01c9 9F       		.byte	0x9f
ARM GAS  /var/folders/lp/0dm50ddn51vc39svyzv_6fp00000gn/T//ccLUgEfv.s 			page 80


 3413 01ca CA000000 		.4byte	.LVL24-.Ltext0
 3414 01ce CE000000 		.4byte	.LVL25-.Ltext0
 3415 01d2 0700     		.2byte	0x7
 3416 01d4 73       		.byte	0x73
 3417 01d5 00       		.sleb128 0
 3418 01d6 0A       		.byte	0xa
 3419 01d7 FFFF     		.2byte	0xffff
 3420 01d9 1A       		.byte	0x1a
 3421 01da 9F       		.byte	0x9f
 3422 01db CE000000 		.4byte	.LVL25-.Ltext0
 3423 01df D2000000 		.4byte	.LVL26-.Ltext0
 3424 01e3 0900     		.2byte	0x9
 3425 01e5 70       		.byte	0x70
 3426 01e6 0C       		.sleb128 12
 3427 01e7 94       		.byte	0x94
 3428 01e8 02       		.byte	0x2
 3429 01e9 0A       		.byte	0xa
 3430 01ea FFFF     		.2byte	0xffff
 3431 01ec 1A       		.byte	0x1a
 3432 01ed 9F       		.byte	0x9f
 3433 01ee D2000000 		.4byte	.LVL26-.Ltext0
 3434 01f2 D6000000 		.4byte	.LVL27-.Ltext0
 3435 01f6 0B00     		.2byte	0xb
 3436 01f8 73       		.byte	0x73
 3437 01f9 00       		.sleb128 0
 3438 01fa 0B       		.byte	0xb
 3439 01fb FFFC     		.2byte	0xfcff
 3440 01fd 1A       		.byte	0x1a
 3441 01fe 0A       		.byte	0xa
 3442 01ff FFFF     		.2byte	0xffff
 3443 0201 1A       		.byte	0x1a
 3444 0202 9F       		.byte	0x9f
 3445 0203 DA000000 		.4byte	.LVL28-.Ltext0
 3446 0207 E1000000 		.4byte	.LVL30-1-.Ltext0
 3447 020b 0700     		.2byte	0x7
 3448 020d 73       		.byte	0x73
 3449 020e 00       		.sleb128 0
 3450 020f 0A       		.byte	0xa
 3451 0210 FFFF     		.2byte	0xffff
 3452 0212 1A       		.byte	0x1a
 3453 0213 9F       		.byte	0x9f
 3454 0214 0E010000 		.4byte	.LVL35-.Ltext0
 3455 0218 38010000 		.4byte	.LVL40-.Ltext0
 3456 021c 0100     		.2byte	0x1
 3457 021e 50       		.byte	0x50
 3458 021f 00000000 		.4byte	0
 3459 0223 00000000 		.4byte	0
 3460              	.LLST6:
 3461 0227 9C000000 		.4byte	.LVL16-.Ltext0
 3462 022b F0000000 		.4byte	.LVL31-.Ltext0
 3463 022f 0200     		.2byte	0x2
 3464 0231 30       		.byte	0x30
 3465 0232 9F       		.byte	0x9f
 3466 0233 F0000000 		.4byte	.LVL31-.Ltext0
 3467 0237 00010000 		.4byte	.LVL33-.Ltext0
 3468 023b 0100     		.2byte	0x1
 3469 023d 55       		.byte	0x55
ARM GAS  /var/folders/lp/0dm50ddn51vc39svyzv_6fp00000gn/T//ccLUgEfv.s 			page 81


 3470 023e 00010000 		.4byte	.LVL33-.Ltext0
 3471 0242 3E010000 		.4byte	.LVL41-.Ltext0
 3472 0246 1400     		.2byte	0x14
 3473 0248 91       		.byte	0x91
 3474 0249 68       		.sleb128 -24
 3475 024a 06       		.byte	0x6
 3476 024b 91       		.byte	0x91
 3477 024c 64       		.sleb128 -28
 3478 024d 06       		.byte	0x6
 3479 024e 74       		.byte	0x74
 3480 024f 00       		.sleb128 0
 3481 0250 0C       		.byte	0xc
 3482 0251 00380140 		.4byte	0x40013800
 3483 0255 29       		.byte	0x29
 3484 0256 28       		.byte	0x28
 3485 0257 0100     		.2byte	0x1
 3486 0259 16       		.byte	0x16
 3487 025a 13       		.byte	0x13
 3488 025b 9F       		.byte	0x9f
 3489 025c 3E010000 		.4byte	.LVL41-.Ltext0
 3490 0260 44010000 		.4byte	.LFE30-.Ltext0
 3491 0264 1500     		.2byte	0x15
 3492 0266 7D       		.byte	0x7d
 3493 0267 68       		.sleb128 -24
 3494 0268 06       		.byte	0x6
 3495 0269 7D       		.byte	0x7d
 3496 026a 64       		.sleb128 -28
 3497 026b 06       		.byte	0x6
 3498 026c F3       		.byte	0xf3
 3499 026d 01       		.uleb128 0x1
 3500 026e 50       		.byte	0x50
 3501 026f 0C       		.byte	0xc
 3502 0270 00380140 		.4byte	0x40013800
 3503 0274 29       		.byte	0x29
 3504 0275 28       		.byte	0x28
 3505 0276 0100     		.2byte	0x1
 3506 0278 16       		.byte	0x16
 3507 0279 13       		.byte	0x13
 3508 027a 9F       		.byte	0x9f
 3509 027b 00000000 		.4byte	0
 3510 027f 00000000 		.4byte	0
 3511              	.LLST7:
 3512 0283 9C000000 		.4byte	.LVL16-.Ltext0
 3513 0287 06010000 		.4byte	.LVL34-.Ltext0
 3514 028b 0200     		.2byte	0x2
 3515 028d 30       		.byte	0x30
 3516 028e 9F       		.byte	0x9f
 3517 028f 06010000 		.4byte	.LVL34-.Ltext0
 3518 0293 3E010000 		.4byte	.LVL41-.Ltext0
 3519 0297 0100     		.2byte	0x1
 3520 0299 55       		.byte	0x55
 3521 029a 00000000 		.4byte	0
 3522 029e 00000000 		.4byte	0
 3523              	.LLST8:
 3524 02a2 9C000000 		.4byte	.LVL16-.Ltext0
 3525 02a6 16010000 		.4byte	.LVL36-.Ltext0
 3526 02aa 0200     		.2byte	0x2
ARM GAS  /var/folders/lp/0dm50ddn51vc39svyzv_6fp00000gn/T//ccLUgEfv.s 			page 82


 3527 02ac 30       		.byte	0x30
 3528 02ad 9F       		.byte	0x9f
 3529 02ae 16010000 		.4byte	.LVL36-.Ltext0
 3530 02b2 30010000 		.4byte	.LVL38-.Ltext0
 3531 02b6 0100     		.2byte	0x1
 3532 02b8 53       		.byte	0x53
 3533 02b9 30010000 		.4byte	.LVL38-.Ltext0
 3534 02bd 36010000 		.4byte	.LVL39-.Ltext0
 3535 02c1 0900     		.2byte	0x9
 3536 02c3 75       		.byte	0x75
 3537 02c4 00       		.sleb128 0
 3538 02c5 76       		.byte	0x76
 3539 02c6 00       		.sleb128 0
 3540 02c7 71       		.byte	0x71
 3541 02c8 00       		.sleb128 0
 3542 02c9 1E       		.byte	0x1e
 3543 02ca 1C       		.byte	0x1c
 3544 02cb 9F       		.byte	0x9f
 3545 02cc 36010000 		.4byte	.LVL39-.Ltext0
 3546 02d0 3E010000 		.4byte	.LVL41-.Ltext0
 3547 02d4 1600     		.2byte	0x16
 3548 02d6 75       		.byte	0x75
 3549 02d7 00       		.sleb128 0
 3550 02d8 75       		.byte	0x75
 3551 02d9 00       		.sleb128 0
 3552 02da F7       		.byte	0xf7
 3553 02db 25       		.uleb128 0x25
 3554 02dc 76       		.byte	0x76
 3555 02dd 00       		.sleb128 0
 3556 02de F7       		.byte	0xf7
 3557 02df 25       		.uleb128 0x25
 3558 02e0 1B       		.byte	0x1b
 3559 02e1 F7       		.byte	0xf7
 3560 02e2 00       		.uleb128 0
 3561 02e3 34       		.byte	0x34
 3562 02e4 24       		.byte	0x24
 3563 02e5 34       		.byte	0x34
 3564 02e6 25       		.byte	0x25
 3565 02e7 76       		.byte	0x76
 3566 02e8 00       		.sleb128 0
 3567 02e9 1E       		.byte	0x1e
 3568 02ea 1C       		.byte	0x1c
 3569 02eb 9F       		.byte	0x9f
 3570 02ec 00000000 		.4byte	0
 3571 02f0 00000000 		.4byte	0
 3572              	.LLST9:
 3573 02f4 9C000000 		.4byte	.LVL16-.Ltext0
 3574 02f8 DE000000 		.4byte	.LVL29-.Ltext0
 3575 02fc 0100     		.2byte	0x1
 3576 02fe 50       		.byte	0x50
 3577 02ff DE000000 		.4byte	.LVL29-.Ltext0
 3578 0303 3E010000 		.4byte	.LVL41-.Ltext0
 3579 0307 0100     		.2byte	0x1
 3580 0309 54       		.byte	0x54
 3581 030a 3E010000 		.4byte	.LVL41-.Ltext0
 3582 030e 44010000 		.4byte	.LFE30-.Ltext0
 3583 0312 0400     		.2byte	0x4
ARM GAS  /var/folders/lp/0dm50ddn51vc39svyzv_6fp00000gn/T//ccLUgEfv.s 			page 83


 3584 0314 F3       		.byte	0xf3
 3585 0315 01       		.uleb128 0x1
 3586 0316 50       		.byte	0x50
 3587 0317 9F       		.byte	0x9f
 3588 0318 00000000 		.4byte	0
 3589 031c 00000000 		.4byte	0
 3590              	.LLST10:
 3591 0320 5A010000 		.4byte	.LFB32-.Ltext0
 3592 0324 5E010000 		.4byte	.LCFI8-.Ltext0
 3593 0328 0200     		.2byte	0x2
 3594 032a 7D       		.byte	0x7d
 3595 032b 00       		.sleb128 0
 3596 032c 5E010000 		.4byte	.LCFI8-.Ltext0
 3597 0330 7A010000 		.4byte	.LFE32-.Ltext0
 3598 0334 0200     		.2byte	0x2
 3599 0336 7D       		.byte	0x7d
 3600 0337 08       		.sleb128 8
 3601 0338 00000000 		.4byte	0
 3602 033c 00000000 		.4byte	0
 3603              	.LLST11:
 3604 0340 5A010000 		.4byte	.LVL43-.Ltext0
 3605 0344 68010000 		.4byte	.LVL44-.Ltext0
 3606 0348 0100     		.2byte	0x1
 3607 034a 51       		.byte	0x51
 3608 034b 68010000 		.4byte	.LVL44-.Ltext0
 3609 034f 7A010000 		.4byte	.LFE32-.Ltext0
 3610 0353 0400     		.2byte	0x4
 3611 0355 F3       		.byte	0xf3
 3612 0356 01       		.uleb128 0x1
 3613 0357 51       		.byte	0x51
 3614 0358 9F       		.byte	0x9f
 3615 0359 00000000 		.4byte	0
 3616 035d 00000000 		.4byte	0
 3617              	.LLST12:
 3618 0361 5A010000 		.4byte	.LVL43-.Ltext0
 3619 0365 6A010000 		.4byte	.LVL45-.Ltext0
 3620 0369 0200     		.2byte	0x2
 3621 036b 30       		.byte	0x30
 3622 036c 9F       		.byte	0x9f
 3623 036d 6A010000 		.4byte	.LVL45-.Ltext0
 3624 0371 72010000 		.4byte	.LVL46-.Ltext0
 3625 0375 0B00     		.2byte	0xb
 3626 0377 72       		.byte	0x72
 3627 0378 00       		.sleb128 0
 3628 0379 0B       		.byte	0xb
 3629 037a FFF0     		.2byte	0xf0ff
 3630 037c 1A       		.byte	0x1a
 3631 037d 0A       		.byte	0xa
 3632 037e FFFF     		.2byte	0xffff
 3633 0380 1A       		.byte	0x1a
 3634 0381 9F       		.byte	0x9f
 3635 0382 76010000 		.4byte	.LVL47-.Ltext0
 3636 0386 7A010000 		.4byte	.LFE32-.Ltext0
 3637 038a 0700     		.2byte	0x7
 3638 038c 73       		.byte	0x73
 3639 038d 00       		.sleb128 0
 3640 038e 0A       		.byte	0xa
ARM GAS  /var/folders/lp/0dm50ddn51vc39svyzv_6fp00000gn/T//ccLUgEfv.s 			page 84


 3641 038f FFFF     		.2byte	0xffff
 3642 0391 1A       		.byte	0x1a
 3643 0392 9F       		.byte	0x9f
 3644 0393 00000000 		.4byte	0
 3645 0397 00000000 		.4byte	0
 3646              	.LLST13:
 3647 039b 9E010000 		.4byte	.LFB35-.Ltext0
 3648 039f A2010000 		.4byte	.LCFI9-.Ltext0
 3649 03a3 0200     		.2byte	0x2
 3650 03a5 7D       		.byte	0x7d
 3651 03a6 00       		.sleb128 0
 3652 03a7 A2010000 		.4byte	.LCFI9-.Ltext0
 3653 03ab CE010000 		.4byte	.LFE35-.Ltext0
 3654 03af 0200     		.2byte	0x2
 3655 03b1 7D       		.byte	0x7d
 3656 03b2 08       		.sleb128 8
 3657 03b3 00000000 		.4byte	0
 3658 03b7 00000000 		.4byte	0
 3659              	.LLST14:
 3660 03bb 9E010000 		.4byte	.LVL50-.Ltext0
 3661 03bf B4010000 		.4byte	.LVL54-.Ltext0
 3662 03c3 0100     		.2byte	0x1
 3663 03c5 50       		.byte	0x50
 3664 03c6 B4010000 		.4byte	.LVL54-.Ltext0
 3665 03ca B6010000 		.4byte	.LVL55-.Ltext0
 3666 03ce 0300     		.2byte	0x3
 3667 03d0 70       		.byte	0x70
 3668 03d1 74       		.sleb128 -12
 3669 03d2 9F       		.byte	0x9f
 3670 03d3 B6010000 		.4byte	.LVL55-.Ltext0
 3671 03d7 BC010000 		.4byte	.LVL56-.Ltext0
 3672 03db 0100     		.2byte	0x1
 3673 03dd 50       		.byte	0x50
 3674 03de BC010000 		.4byte	.LVL56-.Ltext0
 3675 03e2 CE010000 		.4byte	.LFE35-.Ltext0
 3676 03e6 0400     		.2byte	0x4
 3677 03e8 F3       		.byte	0xf3
 3678 03e9 01       		.uleb128 0x1
 3679 03ea 50       		.byte	0x50
 3680 03eb 9F       		.byte	0x9f
 3681 03ec 00000000 		.4byte	0
 3682 03f0 00000000 		.4byte	0
 3683              	.LLST15:
 3684 03f4 9E010000 		.4byte	.LVL50-.Ltext0
 3685 03f8 AC010000 		.4byte	.LVL52-.Ltext0
 3686 03fc 0100     		.2byte	0x1
 3687 03fe 51       		.byte	0x51
 3688 03ff AC010000 		.4byte	.LVL52-.Ltext0
 3689 0403 CE010000 		.4byte	.LFE35-.Ltext0
 3690 0407 0400     		.2byte	0x4
 3691 0409 F3       		.byte	0xf3
 3692 040a 01       		.uleb128 0x1
 3693 040b 51       		.byte	0x51
 3694 040c 9F       		.byte	0x9f
 3695 040d 00000000 		.4byte	0
 3696 0411 00000000 		.4byte	0
 3697              	.LLST16:
ARM GAS  /var/folders/lp/0dm50ddn51vc39svyzv_6fp00000gn/T//ccLUgEfv.s 			page 85


 3698 0415 9E010000 		.4byte	.LVL50-.Ltext0
 3699 0419 A6010000 		.4byte	.LVL51-.Ltext0
 3700 041d 0200     		.2byte	0x2
 3701 041f 30       		.byte	0x30
 3702 0420 9F       		.byte	0x9f
 3703 0421 A6010000 		.4byte	.LVL51-.Ltext0
 3704 0425 CE010000 		.4byte	.LFE35-.Ltext0
 3705 0429 0600     		.2byte	0x6
 3706 042b 74       		.byte	0x74
 3707 042c 00       		.sleb128 0
 3708 042d 08       		.byte	0x8
 3709 042e FF       		.byte	0xff
 3710 042f 1A       		.byte	0x1a
 3711 0430 9F       		.byte	0x9f
 3712 0431 00000000 		.4byte	0
 3713 0435 00000000 		.4byte	0
 3714              	.LLST17:
 3715 0439 9E010000 		.4byte	.LVL50-.Ltext0
 3716 043d A6010000 		.4byte	.LVL51-.Ltext0
 3717 0441 0200     		.2byte	0x2
 3718 0443 30       		.byte	0x30
 3719 0444 9F       		.byte	0x9f
 3720 0445 A6010000 		.4byte	.LVL51-.Ltext0
 3721 0449 AC010000 		.4byte	.LVL52-.Ltext0
 3722 044d 0900     		.2byte	0x9
 3723 044f 71       		.byte	0x71
 3724 0450 00       		.sleb128 0
 3725 0451 4F       		.byte	0x4f
 3726 0452 1A       		.byte	0x1a
 3727 0453 0A       		.byte	0xa
 3728 0454 FFFF     		.2byte	0xffff
 3729 0456 1A       		.byte	0x1a
 3730 0457 9F       		.byte	0x9f
 3731 0458 AC010000 		.4byte	.LVL52-.Ltext0
 3732 045c CE010000 		.4byte	.LFE35-.Ltext0
 3733 0460 0A00     		.2byte	0xa
 3734 0462 F3       		.byte	0xf3
 3735 0463 01       		.uleb128 0x1
 3736 0464 51       		.byte	0x51
 3737 0465 4F       		.byte	0x4f
 3738 0466 1A       		.byte	0x1a
 3739 0467 0A       		.byte	0xa
 3740 0468 FFFF     		.2byte	0xffff
 3741 046a 1A       		.byte	0x1a
 3742 046b 9F       		.byte	0x9f
 3743 046c 00000000 		.4byte	0
 3744 0470 00000000 		.4byte	0
 3745              	.LLST18:
 3746 0474 9E010000 		.4byte	.LVL50-.Ltext0
 3747 0478 B0010000 		.4byte	.LVL53-.Ltext0
 3748 047c 0200     		.2byte	0x2
 3749 047e 30       		.byte	0x30
 3750 047f 9F       		.byte	0x9f
 3751 0480 B0010000 		.4byte	.LVL53-.Ltext0
 3752 0484 C4010000 		.4byte	.LVL58-.Ltext0
 3753 0488 0100     		.2byte	0x1
 3754 048a 51       		.byte	0x51
ARM GAS  /var/folders/lp/0dm50ddn51vc39svyzv_6fp00000gn/T//ccLUgEfv.s 			page 86


 3755 048b C6010000 		.4byte	.LVL59-.Ltext0
 3756 048f CA010000 		.4byte	.LVL60-.Ltext0
 3757 0493 0100     		.2byte	0x1
 3758 0495 51       		.byte	0x51
 3759 0496 00000000 		.4byte	0
 3760 049a 00000000 		.4byte	0
 3761              	.LLST19:
 3762 049e CE010000 		.4byte	.LVL61-.Ltext0
 3763 04a2 D6010000 		.4byte	.LVL62-.Ltext0
 3764 04a6 0100     		.2byte	0x1
 3765 04a8 51       		.byte	0x51
 3766 04a9 D6010000 		.4byte	.LVL62-.Ltext0
 3767 04ad D8010000 		.4byte	.LVL63-.Ltext0
 3768 04b1 0400     		.2byte	0x4
 3769 04b3 F3       		.byte	0xf3
 3770 04b4 01       		.uleb128 0x1
 3771 04b5 51       		.byte	0x51
 3772 04b6 9F       		.byte	0x9f
 3773 04b7 D8010000 		.4byte	.LVL63-.Ltext0
 3774 04bb DC010000 		.4byte	.LVL64-.Ltext0
 3775 04bf 0100     		.2byte	0x1
 3776 04c1 51       		.byte	0x51
 3777 04c2 DC010000 		.4byte	.LVL64-.Ltext0
 3778 04c6 E0010000 		.4byte	.LFE36-.Ltext0
 3779 04ca 0400     		.2byte	0x4
 3780 04cc F3       		.byte	0xf3
 3781 04cd 01       		.uleb128 0x1
 3782 04ce 51       		.byte	0x51
 3783 04cf 9F       		.byte	0x9f
 3784 04d0 00000000 		.4byte	0
 3785 04d4 00000000 		.4byte	0
 3786              	.LLST20:
 3787 04d8 E0010000 		.4byte	.LVL65-.Ltext0
 3788 04dc F2010000 		.4byte	.LVL66-.Ltext0
 3789 04e0 0100     		.2byte	0x1
 3790 04e2 51       		.byte	0x51
 3791 04e3 F2010000 		.4byte	.LVL66-.Ltext0
 3792 04e7 F6010000 		.4byte	.LFE37-.Ltext0
 3793 04eb 0400     		.2byte	0x4
 3794 04ed F3       		.byte	0xf3
 3795 04ee 01       		.uleb128 0x1
 3796 04ef 51       		.byte	0x51
 3797 04f0 9F       		.byte	0x9f
 3798 04f1 00000000 		.4byte	0
 3799 04f5 00000000 		.4byte	0
 3800              	.LLST21:
 3801 04f9 F6010000 		.4byte	.LVL67-.Ltext0
 3802 04fd 08020000 		.4byte	.LVL68-.Ltext0
 3803 0501 0100     		.2byte	0x1
 3804 0503 51       		.byte	0x51
 3805 0504 08020000 		.4byte	.LVL68-.Ltext0
 3806 0508 0C020000 		.4byte	.LFE38-.Ltext0
 3807 050c 0400     		.2byte	0x4
 3808 050e F3       		.byte	0xf3
 3809 050f 01       		.uleb128 0x1
 3810 0510 51       		.byte	0x51
 3811 0511 9F       		.byte	0x9f
ARM GAS  /var/folders/lp/0dm50ddn51vc39svyzv_6fp00000gn/T//ccLUgEfv.s 			page 87


 3812 0512 00000000 		.4byte	0
 3813 0516 00000000 		.4byte	0
 3814              	.LLST22:
 3815 051a 24020000 		.4byte	.LVL70-.Ltext0
 3816 051e 36020000 		.4byte	.LVL71-.Ltext0
 3817 0522 0100     		.2byte	0x1
 3818 0524 51       		.byte	0x51
 3819 0525 36020000 		.4byte	.LVL71-.Ltext0
 3820 0529 3A020000 		.4byte	.LFE40-.Ltext0
 3821 052d 0400     		.2byte	0x4
 3822 052f F3       		.byte	0xf3
 3823 0530 01       		.uleb128 0x1
 3824 0531 51       		.byte	0x51
 3825 0532 9F       		.byte	0x9f
 3826 0533 00000000 		.4byte	0
 3827 0537 00000000 		.4byte	0
 3828              	.LLST23:
 3829 053b 52020000 		.4byte	.LVL73-.Ltext0
 3830 053f 56020000 		.4byte	.LVL74-.Ltext0
 3831 0543 0100     		.2byte	0x1
 3832 0545 51       		.byte	0x51
 3833 0546 56020000 		.4byte	.LVL74-.Ltext0
 3834 054a 5A020000 		.4byte	.LFE42-.Ltext0
 3835 054e 0400     		.2byte	0x4
 3836 0550 F3       		.byte	0xf3
 3837 0551 01       		.uleb128 0x1
 3838 0552 51       		.byte	0x51
 3839 0553 9F       		.byte	0x9f
 3840 0554 00000000 		.4byte	0
 3841 0558 00000000 		.4byte	0
 3842              	.LLST24:
 3843 055c 5A020000 		.4byte	.LVL75-.Ltext0
 3844 0560 5C020000 		.4byte	.LVL76-.Ltext0
 3845 0564 0100     		.2byte	0x1
 3846 0566 50       		.byte	0x50
 3847 0567 5C020000 		.4byte	.LVL76-.Ltext0
 3848 056b 62020000 		.4byte	.LFE43-.Ltext0
 3849 056f 0400     		.2byte	0x4
 3850 0571 F3       		.byte	0xf3
 3851 0572 01       		.uleb128 0x1
 3852 0573 50       		.byte	0x50
 3853 0574 9F       		.byte	0x9f
 3854 0575 00000000 		.4byte	0
 3855 0579 00000000 		.4byte	0
 3856              	.LLST25:
 3857 057d 6E020000 		.4byte	.LVL78-.Ltext0
 3858 0581 7C020000 		.4byte	.LVL79-.Ltext0
 3859 0585 0100     		.2byte	0x1
 3860 0587 51       		.byte	0x51
 3861 0588 7C020000 		.4byte	.LVL79-.Ltext0
 3862 058c 80020000 		.4byte	.LFE45-.Ltext0
 3863 0590 0400     		.2byte	0x4
 3864 0592 F3       		.byte	0xf3
 3865 0593 01       		.uleb128 0x1
 3866 0594 51       		.byte	0x51
 3867 0595 9F       		.byte	0x9f
 3868 0596 00000000 		.4byte	0
ARM GAS  /var/folders/lp/0dm50ddn51vc39svyzv_6fp00000gn/T//ccLUgEfv.s 			page 88


 3869 059a 00000000 		.4byte	0
 3870              	.LLST26:
 3871 059e 80020000 		.4byte	.LVL80-.Ltext0
 3872 05a2 8E020000 		.4byte	.LVL81-.Ltext0
 3873 05a6 0100     		.2byte	0x1
 3874 05a8 51       		.byte	0x51
 3875 05a9 8E020000 		.4byte	.LVL81-.Ltext0
 3876 05ad 92020000 		.4byte	.LFE46-.Ltext0
 3877 05b1 0400     		.2byte	0x4
 3878 05b3 F3       		.byte	0xf3
 3879 05b4 01       		.uleb128 0x1
 3880 05b5 51       		.byte	0x51
 3881 05b6 9F       		.byte	0x9f
 3882 05b7 00000000 		.4byte	0
 3883 05bb 00000000 		.4byte	0
 3884              	.LLST27:
 3885 05bf 0A030000 		.4byte	.LVL87-.Ltext0
 3886 05c3 1C030000 		.4byte	.LVL88-.Ltext0
 3887 05c7 0100     		.2byte	0x1
 3888 05c9 51       		.byte	0x51
 3889 05ca 1C030000 		.4byte	.LVL88-.Ltext0
 3890 05ce 20030000 		.4byte	.LFE52-.Ltext0
 3891 05d2 0400     		.2byte	0x4
 3892 05d4 F3       		.byte	0xf3
 3893 05d5 01       		.uleb128 0x1
 3894 05d6 51       		.byte	0x51
 3895 05d7 9F       		.byte	0x9f
 3896 05d8 00000000 		.4byte	0
 3897 05dc 00000000 		.4byte	0
 3898              	.LLST28:
 3899 05e0 38030000 		.4byte	.LVL90-.Ltext0
 3900 05e4 40030000 		.4byte	.LVL92-.Ltext0
 3901 05e8 0100     		.2byte	0x1
 3902 05ea 50       		.byte	0x50
 3903 05eb 40030000 		.4byte	.LVL92-.Ltext0
 3904 05ef 44030000 		.4byte	.LFE54-.Ltext0
 3905 05f3 0400     		.2byte	0x4
 3906 05f5 F3       		.byte	0xf3
 3907 05f6 01       		.uleb128 0x1
 3908 05f7 50       		.byte	0x50
 3909 05f8 9F       		.byte	0x9f
 3910 05f9 00000000 		.4byte	0
 3911 05fd 00000000 		.4byte	0
 3912              	.LLST29:
 3913 0601 38030000 		.4byte	.LVL90-.Ltext0
 3914 0605 3A030000 		.4byte	.LVL91-.Ltext0
 3915 0609 0200     		.2byte	0x2
 3916 060b 30       		.byte	0x30
 3917 060c 9F       		.byte	0x9f
 3918 060d 3A030000 		.4byte	.LVL91-.Ltext0
 3919 0611 44030000 		.4byte	.LFE54-.Ltext0
 3920 0615 0A00     		.2byte	0xa
 3921 0617 71       		.byte	0x71
 3922 0618 00       		.sleb128 0
 3923 0619 73       		.byte	0x73
 3924 061a 00       		.sleb128 0
 3925 061b 1A       		.byte	0x1a
ARM GAS  /var/folders/lp/0dm50ddn51vc39svyzv_6fp00000gn/T//ccLUgEfv.s 			page 89


 3926 061c 40       		.byte	0x40
 3927 061d 24       		.byte	0x24
 3928 061e 30       		.byte	0x30
 3929 061f 2E       		.byte	0x2e
 3930 0620 9F       		.byte	0x9f
 3931 0621 00000000 		.4byte	0
 3932 0625 00000000 		.4byte	0
 3933              	.LLST30:
 3934 0629 44030000 		.4byte	.LVL93-.Ltext0
 3935 062d 46030000 		.4byte	.LVL94-.Ltext0
 3936 0631 0100     		.2byte	0x1
 3937 0633 51       		.byte	0x51
 3938 0634 46030000 		.4byte	.LVL94-.Ltext0
 3939 0638 4C030000 		.4byte	.LFE55-.Ltext0
 3940 063c 0400     		.2byte	0x4
 3941 063e F3       		.byte	0xf3
 3942 063f 01       		.uleb128 0x1
 3943 0640 51       		.byte	0x51
 3944 0641 9F       		.byte	0x9f
 3945 0642 00000000 		.4byte	0
 3946 0646 00000000 		.4byte	0
 3947              	.LLST31:
 3948 064a 4C030000 		.4byte	.LFB56-.Ltext0
 3949 064e 50030000 		.4byte	.LCFI10-.Ltext0
 3950 0652 0200     		.2byte	0x2
 3951 0654 7D       		.byte	0x7d
 3952 0655 00       		.sleb128 0
 3953 0656 50030000 		.4byte	.LCFI10-.Ltext0
 3954 065a 8C030000 		.4byte	.LFE56-.Ltext0
 3955 065e 0200     		.2byte	0x2
 3956 0660 7D       		.byte	0x7d
 3957 0661 08       		.sleb128 8
 3958 0662 00000000 		.4byte	0
 3959 0666 00000000 		.4byte	0
 3960              	.LLST32:
 3961 066a 4C030000 		.4byte	.LVL95-.Ltext0
 3962 066e 84030000 		.4byte	.LVL103-.Ltext0
 3963 0672 0100     		.2byte	0x1
 3964 0674 50       		.byte	0x50
 3965 0675 84030000 		.4byte	.LVL103-.Ltext0
 3966 0679 88030000 		.4byte	.LVL104-.Ltext0
 3967 067d 0400     		.2byte	0x4
 3968 067f F3       		.byte	0xf3
 3969 0680 01       		.uleb128 0x1
 3970 0681 50       		.byte	0x50
 3971 0682 9F       		.byte	0x9f
 3972 0683 88030000 		.4byte	.LVL104-.Ltext0
 3973 0687 8A030000 		.4byte	.LVL105-.Ltext0
 3974 068b 0100     		.2byte	0x1
 3975 068d 50       		.byte	0x50
 3976 068e 8A030000 		.4byte	.LVL105-.Ltext0
 3977 0692 8C030000 		.4byte	.LFE56-.Ltext0
 3978 0696 0400     		.2byte	0x4
 3979 0698 F3       		.byte	0xf3
 3980 0699 01       		.uleb128 0x1
 3981 069a 50       		.byte	0x50
 3982 069b 9F       		.byte	0x9f
ARM GAS  /var/folders/lp/0dm50ddn51vc39svyzv_6fp00000gn/T//ccLUgEfv.s 			page 90


 3983 069c 00000000 		.4byte	0
 3984 06a0 00000000 		.4byte	0
 3985              	.LLST33:
 3986 06a4 4C030000 		.4byte	.LVL95-.Ltext0
 3987 06a8 7A030000 		.4byte	.LVL102-.Ltext0
 3988 06ac 0100     		.2byte	0x1
 3989 06ae 51       		.byte	0x51
 3990 06af 7A030000 		.4byte	.LVL102-.Ltext0
 3991 06b3 88030000 		.4byte	.LVL104-.Ltext0
 3992 06b7 0400     		.2byte	0x4
 3993 06b9 F3       		.byte	0xf3
 3994 06ba 01       		.uleb128 0x1
 3995 06bb 51       		.byte	0x51
 3996 06bc 9F       		.byte	0x9f
 3997 06bd 88030000 		.4byte	.LVL104-.Ltext0
 3998 06c1 8C030000 		.4byte	.LFE56-.Ltext0
 3999 06c5 0100     		.2byte	0x1
 4000 06c7 51       		.byte	0x51
 4001 06c8 00000000 		.4byte	0
 4002 06cc 00000000 		.4byte	0
 4003              	.LLST34:
 4004 06d0 4C030000 		.4byte	.LVL95-.Ltext0
 4005 06d4 70030000 		.4byte	.LVL99-.Ltext0
 4006 06d8 0200     		.2byte	0x2
 4007 06da 30       		.byte	0x30
 4008 06db 9F       		.byte	0x9f
 4009 06dc 70030000 		.4byte	.LVL99-.Ltext0
 4010 06e0 74030000 		.4byte	.LVL100-.Ltext0
 4011 06e4 0B00     		.2byte	0xb
 4012 06e6 31       		.byte	0x31
 4013 06e7 71       		.byte	0x71
 4014 06e8 00       		.sleb128 0
 4015 06e9 38       		.byte	0x38
 4016 06ea 25       		.byte	0x25
 4017 06eb 0A       		.byte	0xa
 4018 06ec FFFF     		.2byte	0xffff
 4019 06ee 1A       		.byte	0x1a
 4020 06ef 24       		.byte	0x24
 4021 06f0 9F       		.byte	0x9f
 4022 06f1 74030000 		.4byte	.LVL100-.Ltext0
 4023 06f5 7A030000 		.4byte	.LVL102-.Ltext0
 4024 06f9 1200     		.2byte	0x12
 4025 06fb 31       		.byte	0x31
 4026 06fc 71       		.byte	0x71
 4027 06fd 00       		.sleb128 0
 4028 06fe 38       		.byte	0x38
 4029 06ff 25       		.byte	0x25
 4030 0700 0A       		.byte	0xa
 4031 0701 FFFF     		.2byte	0xffff
 4032 0703 1A       		.byte	0x1a
 4033 0704 24       		.byte	0x24
 4034 0705 72       		.byte	0x72
 4035 0706 00       		.sleb128 0
 4036 0707 0A       		.byte	0xa
 4037 0708 FFFF     		.2byte	0xffff
 4038 070a 1A       		.byte	0x1a
 4039 070b 1A       		.byte	0x1a
ARM GAS  /var/folders/lp/0dm50ddn51vc39svyzv_6fp00000gn/T//ccLUgEfv.s 			page 91


 4040 070c 9F       		.byte	0x9f
 4041 070d 7A030000 		.4byte	.LVL102-.Ltext0
 4042 0711 88030000 		.4byte	.LVL104-.Ltext0
 4043 0715 1300     		.2byte	0x13
 4044 0717 31       		.byte	0x31
 4045 0718 F3       		.byte	0xf3
 4046 0719 01       		.uleb128 0x1
 4047 071a 51       		.byte	0x51
 4048 071b 38       		.byte	0x38
 4049 071c 25       		.byte	0x25
 4050 071d 0A       		.byte	0xa
 4051 071e FFFF     		.2byte	0xffff
 4052 0720 1A       		.byte	0x1a
 4053 0721 24       		.byte	0x24
 4054 0722 72       		.byte	0x72
 4055 0723 00       		.sleb128 0
 4056 0724 0A       		.byte	0xa
 4057 0725 FFFF     		.2byte	0xffff
 4058 0727 1A       		.byte	0x1a
 4059 0728 1A       		.byte	0x1a
 4060 0729 9F       		.byte	0x9f
 4061 072a 88030000 		.4byte	.LVL104-.Ltext0
 4062 072e 8C030000 		.4byte	.LFE56-.Ltext0
 4063 0732 1200     		.2byte	0x12
 4064 0734 31       		.byte	0x31
 4065 0735 71       		.byte	0x71
 4066 0736 00       		.sleb128 0
 4067 0737 38       		.byte	0x38
 4068 0738 25       		.byte	0x25
 4069 0739 0A       		.byte	0xa
 4070 073a FFFF     		.2byte	0xffff
 4071 073c 1A       		.byte	0x1a
 4072 073d 24       		.byte	0x24
 4073 073e 72       		.byte	0x72
 4074 073f 00       		.sleb128 0
 4075 0740 0A       		.byte	0xa
 4076 0741 FFFF     		.2byte	0xffff
 4077 0743 1A       		.byte	0x1a
 4078 0744 1A       		.byte	0x1a
 4079 0745 9F       		.byte	0x9f
 4080 0746 00000000 		.4byte	0
 4081 074a 00000000 		.4byte	0
 4082              	.LLST35:
 4083 074e 4C030000 		.4byte	.LVL95-.Ltext0
 4084 0752 58030000 		.4byte	.LVL97-.Ltext0
 4085 0756 0200     		.2byte	0x2
 4086 0758 30       		.byte	0x30
 4087 0759 9F       		.byte	0x9f
 4088 075a 58030000 		.4byte	.LVL97-.Ltext0
 4089 075e 70030000 		.4byte	.LVL99-.Ltext0
 4090 0762 0100     		.2byte	0x1
 4091 0764 52       		.byte	0x52
 4092 0765 70030000 		.4byte	.LVL99-.Ltext0
 4093 0769 78030000 		.4byte	.LVL101-.Ltext0
 4094 076d 0100     		.2byte	0x1
 4095 076f 53       		.byte	0x53
 4096 0770 88030000 		.4byte	.LVL104-.Ltext0
ARM GAS  /var/folders/lp/0dm50ddn51vc39svyzv_6fp00000gn/T//ccLUgEfv.s 			page 92


 4097 0774 8C030000 		.4byte	.LFE56-.Ltext0
 4098 0778 0100     		.2byte	0x1
 4099 077a 53       		.byte	0x53
 4100 077b 00000000 		.4byte	0
 4101 077f 00000000 		.4byte	0
 4102              	.LLST36:
 4103 0783 4C030000 		.4byte	.LVL95-.Ltext0
 4104 0787 54030000 		.4byte	.LVL96-.Ltext0
 4105 078b 0200     		.2byte	0x2
 4106 078d 30       		.byte	0x30
 4107 078e 9F       		.byte	0x9f
 4108 078f 54030000 		.4byte	.LVL96-.Ltext0
 4109 0793 8C030000 		.4byte	.LFE56-.Ltext0
 4110 0797 0600     		.2byte	0x6
 4111 0799 74       		.byte	0x74
 4112 079a 00       		.sleb128 0
 4113 079b 08       		.byte	0x8
 4114 079c FF       		.byte	0xff
 4115 079d 1A       		.byte	0x1a
 4116 079e 9F       		.byte	0x9f
 4117 079f 00000000 		.4byte	0
 4118 07a3 00000000 		.4byte	0
 4119              	.LLST37:
 4120 07a7 4C030000 		.4byte	.LVL95-.Ltext0
 4121 07ab 8A030000 		.4byte	.LVL105-.Ltext0
 4122 07af 0200     		.2byte	0x2
 4123 07b1 30       		.byte	0x30
 4124 07b2 9F       		.byte	0x9f
 4125 07b3 8A030000 		.4byte	.LVL105-.Ltext0
 4126 07b7 8C030000 		.4byte	.LFE56-.Ltext0
 4127 07bb 0100     		.2byte	0x1
 4128 07bd 50       		.byte	0x50
 4129 07be 00000000 		.4byte	0
 4130 07c2 00000000 		.4byte	0
 4131              	.LLST38:
 4132 07c6 8C030000 		.4byte	.LVL106-.Ltext0
 4133 07ca 8E030000 		.4byte	.LVL107-.Ltext0
 4134 07ce 0100     		.2byte	0x1
 4135 07d0 51       		.byte	0x51
 4136 07d1 8E030000 		.4byte	.LVL107-.Ltext0
 4137 07d5 9C030000 		.4byte	.LFE57-.Ltext0
 4138 07d9 0400     		.2byte	0x4
 4139 07db F3       		.byte	0xf3
 4140 07dc 01       		.uleb128 0x1
 4141 07dd 51       		.byte	0x51
 4142 07de 9F       		.byte	0x9f
 4143 07df 00000000 		.4byte	0
 4144 07e3 00000000 		.4byte	0
 4145              	.LLST39:
 4146 07e7 8C030000 		.4byte	.LVL106-.Ltext0
 4147 07eb 8E030000 		.4byte	.LVL107-.Ltext0
 4148 07ef 0500     		.2byte	0x5
 4149 07f1 71       		.byte	0x71
 4150 07f2 00       		.sleb128 0
 4151 07f3 38       		.byte	0x38
 4152 07f4 25       		.byte	0x25
 4153 07f5 9F       		.byte	0x9f
ARM GAS  /var/folders/lp/0dm50ddn51vc39svyzv_6fp00000gn/T//ccLUgEfv.s 			page 93


 4154 07f6 8E030000 		.4byte	.LVL107-.Ltext0
 4155 07fa 9C030000 		.4byte	.LFE57-.Ltext0
 4156 07fe 0600     		.2byte	0x6
 4157 0800 F3       		.byte	0xf3
 4158 0801 01       		.uleb128 0x1
 4159 0802 51       		.byte	0x51
 4160 0803 38       		.byte	0x38
 4161 0804 25       		.byte	0x25
 4162 0805 9F       		.byte	0x9f
 4163 0806 00000000 		.4byte	0
 4164 080a 00000000 		.4byte	0
 4165              	.LLST40:
 4166 080e 8C030000 		.4byte	.LVL106-.Ltext0
 4167 0812 8E030000 		.4byte	.LVL107-.Ltext0
 4168 0816 0700     		.2byte	0x7
 4169 0818 31       		.byte	0x31
 4170 0819 71       		.byte	0x71
 4171 081a 00       		.sleb128 0
 4172 081b 38       		.byte	0x38
 4173 081c 25       		.byte	0x25
 4174 081d 24       		.byte	0x24
 4175 081e 9F       		.byte	0x9f
 4176 081f 8E030000 		.4byte	.LVL107-.Ltext0
 4177 0823 9C030000 		.4byte	.LFE57-.Ltext0
 4178 0827 0800     		.2byte	0x8
 4179 0829 31       		.byte	0x31
 4180 082a F3       		.byte	0xf3
 4181 082b 01       		.uleb128 0x1
 4182 082c 51       		.byte	0x51
 4183 082d 38       		.byte	0x38
 4184 082e 25       		.byte	0x25
 4185 082f 24       		.byte	0x24
 4186 0830 9F       		.byte	0x9f
 4187 0831 00000000 		.4byte	0
 4188 0835 00000000 		.4byte	0
 4189              		.section	.debug_aranges,"",%progbits
 4190 0000 1C000000 		.4byte	0x1c
 4191 0004 0200     		.2byte	0x2
 4192 0006 00000000 		.4byte	.Ldebug_info0
 4193 000a 04       		.byte	0x4
 4194 000b 00       		.byte	0
 4195 000c 0000     		.2byte	0
 4196 000e 0000     		.2byte	0
 4197 0010 00000000 		.4byte	.Ltext0
 4198 0014 9C030000 		.4byte	.Letext0-.Ltext0
 4199 0018 00000000 		.4byte	0
 4200 001c 00000000 		.4byte	0
 4201              		.section	.debug_line,"",%progbits
 4202              	.Ldebug_line0:
 4203 0000 06030000 		.section	.debug_str,"MS",%progbits,1
 4203      0200C901 
 4203      00000201 
 4203      FB0E0D00 
 4203      01010101 
 4204              	.LASF55:
 4205 0000 696E7465 		.ascii	"integerdivider\000"
 4205      67657264 
ARM GAS  /var/folders/lp/0dm50ddn51vc39svyzv_6fp00000gn/T//ccLUgEfv.s 			page 94


 4205      69766964 
 4205      657200
 4206              	.LASF14:
 4207 000f 75696E74 		.ascii	"uint32_t\000"
 4207      33325F74 
 4207      00
 4208              	.LASF46:
 4209 0018 55534152 		.ascii	"USART_CPHA\000"
 4209      545F4350 
 4209      484100
 4210              	.LASF28:
 4211 0023 47545052 		.ascii	"GTPR\000"
 4211      00
 4212              	.LASF68:
 4213 0028 6974706F 		.ascii	"itpos\000"
 4213      7300
 4214              	.LASF76:
 4215 002e 55534152 		.ascii	"USART_ReceiverWakeUpCmd\000"
 4215      545F5265 
 4215      63656976 
 4215      65725761 
 4215      6B655570 
 4216              	.LASF31:
 4217 0046 53595343 		.ascii	"SYSCLK_Frequency\000"
 4217      4C4B5F46 
 4217      72657175 
 4217      656E6379 
 4217      00
 4218              	.LASF85:
 4219 0057 55534152 		.ascii	"USART_SetPrescaler\000"
 4219      545F5365 
 4219      74507265 
 4219      7363616C 
 4219      657200
 4220              	.LASF50:
 4221 006a 55534152 		.ascii	"USART_Init\000"
 4221      545F496E 
 4221      697400
 4222              	.LASF15:
 4223 0075 73697A65 		.ascii	"sizetype\000"
 4223      74797065 
 4223      00
 4224              	.LASF32:
 4225 007e 48434C4B 		.ascii	"HCLK_Frequency\000"
 4225      5F467265 
 4225      7175656E 
 4225      637900
 4226              	.LASF78:
 4227 008d 55534152 		.ascii	"USART_LINBreakDetectLength\000"
 4227      545F4C49 
 4227      4E427265 
 4227      616B4465 
 4227      74656374 
 4228              	.LASF107:
 4229 00a8 4C696272 		.ascii	"Libraries/STM32F10x_StdPeriph_Driver/src/stm32f10x_"
 4229      61726965 
 4229      732F5354 
ARM GAS  /var/folders/lp/0dm50ddn51vc39svyzv_6fp00000gn/T//ccLUgEfv.s 			page 95


 4229      4D333246 
 4229      3130785F 
 4230 00db 75736172 		.ascii	"usart.c\000"
 4230      742E6300 
 4231              	.LASF8:
 4232 00e3 5F5F7569 		.ascii	"__uint32_t\000"
 4232      6E743332 
 4232      5F7400
 4233              	.LASF17:
 4234 00ee 466C6167 		.ascii	"FlagStatus\000"
 4234      53746174 
 4234      757300
 4235              	.LASF5:
 4236 00f9 5F5F7569 		.ascii	"__uint16_t\000"
 4236      6E743136 
 4236      5F7400
 4237              	.LASF30:
 4238 0104 55534152 		.ascii	"USART_TypeDef\000"
 4238      545F5479 
 4238      70654465 
 4238      6600
 4239              	.LASF39:
 4240 0112 55534152 		.ascii	"USART_StopBits\000"
 4240      545F5374 
 4240      6F704269 
 4240      747300
 4241              	.LASF98:
 4242 0121 62697473 		.ascii	"bitstatus\000"
 4242      74617475 
 4242      7300
 4243              	.LASF106:
 4244 012b 474E5520 		.ascii	"GNU C11 5.4.1 20160919 (release) [ARM/embedded-5-br"
 4244      43313120 
 4244      352E342E 
 4244      31203230 
 4244      31363039 
 4245 015e 616E6368 		.ascii	"anch revision 240496] -mcpu=cortex-m3 -mthumb -g -g"
 4245      20726576 
 4245      6973696F 
 4245      6E203234 
 4245      30343936 
 4246 0191 64776172 		.ascii	"dwarf-2 -Os -fomit-frame-pointer\000"
 4246      662D3220 
 4246      2D4F7320 
 4246      2D666F6D 
 4246      69742D66 
 4247              	.LASF48:
 4248 01b2 55534152 		.ascii	"USART_ClockInitTypeDef\000"
 4248      545F436C 
 4248      6F636B49 
 4248      6E697454 
 4248      79706544 
 4249              	.LASF63:
 4250 01c9 55534152 		.ascii	"USART_Cmd\000"
 4250      545F436D 
 4250      6400
 4251              	.LASF80:
ARM GAS  /var/folders/lp/0dm50ddn51vc39svyzv_6fp00000gn/T//ccLUgEfv.s 			page 96


 4252 01d3 55534152 		.ascii	"USART_SendData\000"
 4252      545F5365 
 4252      6E644461 
 4252      746100
 4253              	.LASF12:
 4254 01e2 75696E74 		.ascii	"uint8_t\000"
 4254      385F7400 
 4255              	.LASF66:
 4256 01ea 55534152 		.ascii	"USART_IT\000"
 4256      545F4954 
 4256      00
 4257              	.LASF75:
 4258 01f3 55534152 		.ascii	"USART_WakeUp\000"
 4258      545F5761 
 4258      6B655570 
 4258      00
 4259              	.LASF38:
 4260 0200 55534152 		.ascii	"USART_WordLength\000"
 4260      545F576F 
 4260      72644C65 
 4260      6E677468 
 4260      00
 4261              	.LASF64:
 4262 0211 4E657753 		.ascii	"NewState\000"
 4262      74617465 
 4262      00
 4263              	.LASF70:
 4264 021a 55534152 		.ascii	"USART_DMACmd\000"
 4264      545F444D 
 4264      41436D64 
 4264      00
 4265              	.LASF19:
 4266 0227 44495341 		.ascii	"DISABLE\000"
 4266      424C4500 
 4267              	.LASF1:
 4268 022f 7369676E 		.ascii	"signed char\000"
 4268      65642063 
 4268      68617200 
 4269              	.LASF47:
 4270 023b 55534152 		.ascii	"USART_LastBit\000"
 4270      545F4C61 
 4270      73744269 
 4270      7400
 4271              	.LASF37:
 4272 0249 55534152 		.ascii	"USART_BaudRate\000"
 4272      545F4261 
 4272      75645261 
 4272      746500
 4273              	.LASF93:
 4274 0258 55534152 		.ascii	"USART_IrDAMode\000"
 4274      545F4972 
 4274      44414D6F 
 4274      646500
 4275              	.LASF54:
 4276 0267 61706263 		.ascii	"apbclock\000"
 4276      6C6F636B 
 4276      00
ARM GAS  /var/folders/lp/0dm50ddn51vc39svyzv_6fp00000gn/T//ccLUgEfv.s 			page 97


 4277              	.LASF10:
 4278 0270 6C6F6E67 		.ascii	"long long int\000"
 4278      206C6F6E 
 4278      6720696E 
 4278      7400
 4279              	.LASF104:
 4280 027e 5243435F 		.ascii	"RCC_APB1PeriphResetCmd\000"
 4280      41504231 
 4280      50657269 
 4280      70685265 
 4280      73657443 
 4281              	.LASF18:
 4282 0295 49545374 		.ascii	"ITStatus\000"
 4282      61747573 
 4282      00
 4283              	.LASF7:
 4284 029e 6C6F6E67 		.ascii	"long int\000"
 4284      20696E74 
 4284      00
 4285              	.LASF102:
 4286 02a7 55534152 		.ascii	"USART_ClearITPendingBit\000"
 4286      545F436C 
 4286      65617249 
 4286      5450656E 
 4286      64696E67 
 4287              	.LASF84:
 4288 02bf 55534152 		.ascii	"USART_GuardTime\000"
 4288      545F4775 
 4288      61726454 
 4288      696D6500 
 4289              	.LASF3:
 4290 02cf 73686F72 		.ascii	"short int\000"
 4290      7420696E 
 4290      7400
 4291              	.LASF77:
 4292 02d9 55534152 		.ascii	"USART_LINBreakDetectLengthConfig\000"
 4292      545F4C49 
 4292      4E427265 
 4292      616B4465 
 4292      74656374 
 4293              	.LASF4:
 4294 02fa 5F5F7569 		.ascii	"__uint8_t\000"
 4294      6E74385F 
 4294      7400
 4295              	.LASF97:
 4296 0304 55534152 		.ascii	"USART_FLAG\000"
 4296      545F464C 
 4296      414700
 4297              	.LASF49:
 4298 030f 55534152 		.ascii	"USART_DeInit\000"
 4298      545F4465 
 4298      496E6974 
 4298      00
 4299              	.LASF61:
 4300 031c 55534152 		.ascii	"USART_ClockInitStruct\000"
 4300      545F436C 
 4300      6F636B49 
ARM GAS  /var/folders/lp/0dm50ddn51vc39svyzv_6fp00000gn/T//ccLUgEfv.s 			page 98


 4300      6E697453 
 4300      74727563 
 4301              	.LASF81:
 4302 0332 44617461 		.ascii	"Data\000"
 4302      00
 4303              	.LASF53:
 4304 0337 746D7072 		.ascii	"tmpreg\000"
 4304      656700
 4305              	.LASF40:
 4306 033e 55534152 		.ascii	"USART_Parity\000"
 4306      545F5061 
 4306      72697479 
 4306      00
 4307              	.LASF62:
 4308 034b 55534152 		.ascii	"USART_ClockStructInit\000"
 4308      545F436C 
 4308      6F636B53 
 4308      74727563 
 4308      74496E69 
 4309              	.LASF2:
 4310 0361 756E7369 		.ascii	"unsigned char\000"
 4310      676E6564 
 4310      20636861 
 4310      7200
 4311              	.LASF57:
 4312 036f 75736172 		.ascii	"usartxbase\000"
 4312      74786261 
 4312      736500
 4313              	.LASF99:
 4314 037a 55534152 		.ascii	"USART_ClearFlag\000"
 4314      545F436C 
 4314      65617246 
 4314      6C616700 
 4315              	.LASF72:
 4316 038a 55534152 		.ascii	"USART_SetAddress\000"
 4316      545F5365 
 4316      74416464 
 4316      72657373 
 4316      00
 4317              	.LASF11:
 4318 039b 6C6F6E67 		.ascii	"long long unsigned int\000"
 4318      206C6F6E 
 4318      6720756E 
 4318      7369676E 
 4318      65642069 
 4319              	.LASF35:
 4320 03b2 41444343 		.ascii	"ADCCLK_Frequency\000"
 4320      4C4B5F46 
 4320      72657175 
 4320      656E6379 
 4320      00
 4321              	.LASF83:
 4322 03c3 55534152 		.ascii	"USART_SetGuardTime\000"
 4322      545F5365 
 4322      74477561 
 4322      72645469 
 4322      6D6500
ARM GAS  /var/folders/lp/0dm50ddn51vc39svyzv_6fp00000gn/T//ccLUgEfv.s 			page 99


 4323              	.LASF0:
 4324 03d6 756E7369 		.ascii	"unsigned int\000"
 4324      676E6564 
 4324      20696E74 
 4324      00
 4325              	.LASF13:
 4326 03e3 75696E74 		.ascii	"uint16_t\000"
 4326      31365F74 
 4326      00
 4327              	.LASF9:
 4328 03ec 6C6F6E67 		.ascii	"long unsigned int\000"
 4328      20756E73 
 4328      69676E65 
 4328      6420696E 
 4328      7400
 4329              	.LASF82:
 4330 03fe 55534152 		.ascii	"USART_SendBreak\000"
 4330      545F5365 
 4330      6E644272 
 4330      65616B00 
 4331              	.LASF43:
 4332 040e 55534152 		.ascii	"USART_InitTypeDef\000"
 4332      545F496E 
 4332      69745479 
 4332      70654465 
 4332      6600
 4333              	.LASF103:
 4334 0420 5243435F 		.ascii	"RCC_APB2PeriphResetCmd\000"
 4334      41504232 
 4334      50657269 
 4334      70685265 
 4334      73657443 
 4335              	.LASF65:
 4336 0437 55534152 		.ascii	"USART_ITConfig\000"
 4336      545F4954 
 4336      436F6E66 
 4336      696700
 4337              	.LASF36:
 4338 0446 5243435F 		.ascii	"RCC_ClocksTypeDef\000"
 4338      436C6F63 
 4338      6B735479 
 4338      70654465 
 4338      6600
 4339              	.LASF71:
 4340 0458 55534152 		.ascii	"USART_DMAReq\000"
 4340      545F444D 
 4340      41526571 
 4340      00
 4341              	.LASF51:
 4342 0465 55534152 		.ascii	"USARTx\000"
 4342      547800
 4343              	.LASF91:
 4344 046c 55534152 		.ascii	"USART_OneBitMethodCmd\000"
 4344      545F4F6E 
 4344      65426974 
 4344      4D657468 
 4344      6F64436D 
ARM GAS  /var/folders/lp/0dm50ddn51vc39svyzv_6fp00000gn/T//ccLUgEfv.s 			page 100


 4345              	.LASF42:
 4346 0482 55534152 		.ascii	"USART_HardwareFlowControl\000"
 4346      545F4861 
 4346      72647761 
 4346      7265466C 
 4346      6F77436F 
 4347              	.LASF87:
 4348 049c 55534152 		.ascii	"USART_SmartCardCmd\000"
 4348      545F536D 
 4348      61727443 
 4348      61726443 
 4348      6D6400
 4349              	.LASF41:
 4350 04af 55534152 		.ascii	"USART_Mode\000"
 4350      545F4D6F 
 4350      646500
 4351              	.LASF73:
 4352 04ba 55534152 		.ascii	"USART_Address\000"
 4352      545F4164 
 4352      64726573 
 4352      7300
 4353              	.LASF101:
 4354 04c8 62697470 		.ascii	"bitpos\000"
 4354      6F7300
 4355              	.LASF90:
 4356 04cf 55534152 		.ascii	"USART_OverSampling8Cmd\000"
 4356      545F4F76 
 4356      65725361 
 4356      6D706C69 
 4356      6E673843 
 4357              	.LASF6:
 4358 04e6 73686F72 		.ascii	"short unsigned int\000"
 4358      7420756E 
 4358      7369676E 
 4358      65642069 
 4358      6E7400
 4359              	.LASF108:
 4360 04f9 2F557365 		.ascii	"/Users/yanbo/Projects/stm32f10x_makefile_template\000"
 4360      72732F79 
 4360      616E626F 
 4360      2F50726F 
 4360      6A656374 
 4361              	.LASF100:
 4362 052b 55534152 		.ascii	"USART_GetITStatus\000"
 4362      545F4765 
 4362      74495453 
 4362      74617475 
 4362      7300
 4363              	.LASF79:
 4364 053d 55534152 		.ascii	"USART_LINCmd\000"
 4364      545F4C49 
 4364      4E436D64 
 4364      00
 4365              	.LASF92:
 4366 054a 55534152 		.ascii	"USART_IrDAConfig\000"
 4366      545F4972 
 4366      4441436F 
ARM GAS  /var/folders/lp/0dm50ddn51vc39svyzv_6fp00000gn/T//ccLUgEfv.s 			page 101


 4366      6E666967 
 4366      00
 4367              	.LASF16:
 4368 055b 52455345 		.ascii	"RESET\000"
 4368      5400
 4369              	.LASF34:
 4370 0561 50434C4B 		.ascii	"PCLK2_Frequency\000"
 4370      325F4672 
 4370      65717565 
 4370      6E637900 
 4371              	.LASF44:
 4372 0571 55534152 		.ascii	"USART_Clock\000"
 4372      545F436C 
 4372      6F636B00 
 4373              	.LASF22:
 4374 057d 52455345 		.ascii	"RESERVED0\000"
 4374      52564544 
 4374      3000
 4375              	.LASF23:
 4376 0587 52455345 		.ascii	"RESERVED1\000"
 4376      52564544 
 4376      3100
 4377              	.LASF24:
 4378 0591 52455345 		.ascii	"RESERVED2\000"
 4378      52564544 
 4378      3200
 4379              	.LASF25:
 4380 059b 52455345 		.ascii	"RESERVED3\000"
 4380      52564544 
 4380      3300
 4381              	.LASF26:
 4382 05a5 52455345 		.ascii	"RESERVED4\000"
 4382      52564544 
 4382      3400
 4383              	.LASF27:
 4384 05af 52455345 		.ascii	"RESERVED5\000"
 4384      52564544 
 4384      3500
 4385              	.LASF29:
 4386 05b9 52455345 		.ascii	"RESERVED6\000"
 4386      52564544 
 4386      3600
 4387              	.LASF94:
 4388 05c3 55534152 		.ascii	"USART_IrDACmd\000"
 4388      545F4972 
 4388      4441436D 
 4388      6400
 4389              	.LASF56:
 4390 05d1 66726163 		.ascii	"fractionaldivider\000"
 4390      74696F6E 
 4390      616C6469 
 4390      76696465 
 4390      7200
 4391              	.LASF21:
 4392 05e3 46756E63 		.ascii	"FunctionalState\000"
 4392      74696F6E 
 4392      616C5374 
ARM GAS  /var/folders/lp/0dm50ddn51vc39svyzv_6fp00000gn/T//ccLUgEfv.s 			page 102


 4392      61746500 
 4393              	.LASF88:
 4394 05f3 55534152 		.ascii	"USART_SmartCardNACKCmd\000"
 4394      545F536D 
 4394      61727443 
 4394      6172644E 
 4394      41434B43 
 4395              	.LASF33:
 4396 060a 50434C4B 		.ascii	"PCLK1_Frequency\000"
 4396      315F4672 
 4396      65717565 
 4396      6E637900 
 4397              	.LASF96:
 4398 061a 55534152 		.ascii	"USART_GetFlagStatus\000"
 4398      545F4765 
 4398      74466C61 
 4398      67537461 
 4398      74757300 
 4399              	.LASF105:
 4400 062e 5243435F 		.ascii	"RCC_GetClocksFreq\000"
 4400      47657443 
 4400      6C6F636B 
 4400      73467265 
 4400      7100
 4401              	.LASF52:
 4402 0640 55534152 		.ascii	"USART_InitStruct\000"
 4402      545F496E 
 4402      69745374 
 4402      72756374 
 4402      00
 4403              	.LASF58:
 4404 0651 5243435F 		.ascii	"RCC_ClocksStatus\000"
 4404      436C6F63 
 4404      6B735374 
 4404      61747573 
 4404      00
 4405              	.LASF60:
 4406 0662 55534152 		.ascii	"USART_ClockInit\000"
 4406      545F436C 
 4406      6F636B49 
 4406      6E697400 
 4407              	.LASF74:
 4408 0672 55534152 		.ascii	"USART_WakeUpConfig\000"
 4408      545F5761 
 4408      6B655570 
 4408      436F6E66 
 4408      696700
 4409              	.LASF89:
 4410 0685 55534152 		.ascii	"USART_HalfDuplexCmd\000"
 4410      545F4861 
 4410      6C664475 
 4410      706C6578 
 4410      436D6400 
 4411              	.LASF59:
 4412 0699 55534152 		.ascii	"USART_StructInit\000"
 4412      545F5374 
 4412      72756374 
ARM GAS  /var/folders/lp/0dm50ddn51vc39svyzv_6fp00000gn/T//ccLUgEfv.s 			page 103


 4412      496E6974 
 4412      00
 4413              	.LASF86:
 4414 06aa 55534152 		.ascii	"USART_Prescaler\000"
 4414      545F5072 
 4414      65736361 
 4414      6C657200 
 4415              	.LASF45:
 4416 06ba 55534152 		.ascii	"USART_CPOL\000"
 4416      545F4350 
 4416      4F4C00
 4417              	.LASF69:
 4418 06c5 69746D61 		.ascii	"itmask\000"
 4418      736B00
 4419              	.LASF109:
 4420 06cc 49544D5F 		.ascii	"ITM_RxBuffer\000"
 4420      52784275 
 4420      66666572 
 4420      00
 4421              	.LASF95:
 4422 06d9 55534152 		.ascii	"USART_ReceiveData\000"
 4422      545F5265 
 4422      63656976 
 4422      65446174 
 4422      6100
 4423              	.LASF67:
 4424 06eb 75736172 		.ascii	"usartreg\000"
 4424      74726567 
 4424      00
 4425              	.LASF20:
 4426 06f4 454E4142 		.ascii	"ENABLE\000"
 4426      4C4500
 4427              		.ident	"GCC: (GNU Tools for ARM Embedded Processors) 5.4.1 20160919 (release) [ARM/embedded-5-bran
ARM GAS  /var/folders/lp/0dm50ddn51vc39svyzv_6fp00000gn/T//ccLUgEfv.s 			page 104


DEFINED SYMBOLS
                            *ABS*:0000000000000000 stm32f10x_usart.c
/var/folders/lp/0dm50ddn51vc39svyzv_6fp00000gn/T//ccLUgEfv.s:77     .text:0000000000000000 $t
/var/folders/lp/0dm50ddn51vc39svyzv_6fp00000gn/T//ccLUgEfv.s:82     .text:0000000000000000 USART_DeInit
/var/folders/lp/0dm50ddn51vc39svyzv_6fp00000gn/T//ccLUgEfv.s:199    .text:0000000000000088 $d
/var/folders/lp/0dm50ddn51vc39svyzv_6fp00000gn/T//ccLUgEfv.s:207    .text:000000000000009c $t
/var/folders/lp/0dm50ddn51vc39svyzv_6fp00000gn/T//ccLUgEfv.s:212    .text:000000000000009c USART_Init
/var/folders/lp/0dm50ddn51vc39svyzv_6fp00000gn/T//ccLUgEfv.s:356    .text:0000000000000140 $d
/var/folders/lp/0dm50ddn51vc39svyzv_6fp00000gn/T//ccLUgEfv.s:360    .text:0000000000000144 $t
/var/folders/lp/0dm50ddn51vc39svyzv_6fp00000gn/T//ccLUgEfv.s:365    .text:0000000000000144 USART_StructInit
/var/folders/lp/0dm50ddn51vc39svyzv_6fp00000gn/T//ccLUgEfv.s:398    .text:000000000000015a USART_ClockInit
/var/folders/lp/0dm50ddn51vc39svyzv_6fp00000gn/T//ccLUgEfv.s:438    .text:000000000000017a USART_ClockStructInit
/var/folders/lp/0dm50ddn51vc39svyzv_6fp00000gn/T//ccLUgEfv.s:464    .text:0000000000000186 USART_Cmd
/var/folders/lp/0dm50ddn51vc39svyzv_6fp00000gn/T//ccLUgEfv.s:496    .text:000000000000019e USART_ITConfig
/var/folders/lp/0dm50ddn51vc39svyzv_6fp00000gn/T//ccLUgEfv.s:563    .text:00000000000001ce USART_DMACmd
/var/folders/lp/0dm50ddn51vc39svyzv_6fp00000gn/T//ccLUgEfv.s:596    .text:00000000000001e0 USART_SetAddress
/var/folders/lp/0dm50ddn51vc39svyzv_6fp00000gn/T//ccLUgEfv.s:625    .text:00000000000001f6 USART_WakeUpConfig
/var/folders/lp/0dm50ddn51vc39svyzv_6fp00000gn/T//ccLUgEfv.s:654    .text:000000000000020c USART_ReceiverWakeUpCmd
/var/folders/lp/0dm50ddn51vc39svyzv_6fp00000gn/T//ccLUgEfv.s:686    .text:0000000000000224 USART_LINBreakDetectLengthConfig
/var/folders/lp/0dm50ddn51vc39svyzv_6fp00000gn/T//ccLUgEfv.s:715    .text:000000000000023a USART_LINCmd
/var/folders/lp/0dm50ddn51vc39svyzv_6fp00000gn/T//ccLUgEfv.s:747    .text:0000000000000252 USART_SendData
/var/folders/lp/0dm50ddn51vc39svyzv_6fp00000gn/T//ccLUgEfv.s:768    .text:000000000000025a USART_ReceiveData
/var/folders/lp/0dm50ddn51vc39svyzv_6fp00000gn/T//ccLUgEfv.s:790    .text:0000000000000262 USART_SendBreak
/var/folders/lp/0dm50ddn51vc39svyzv_6fp00000gn/T//ccLUgEfv.s:812    .text:000000000000026e USART_SetGuardTime
/var/folders/lp/0dm50ddn51vc39svyzv_6fp00000gn/T//ccLUgEfv.s:839    .text:0000000000000280 USART_SetPrescaler
/var/folders/lp/0dm50ddn51vc39svyzv_6fp00000gn/T//ccLUgEfv.s:866    .text:0000000000000292 USART_SmartCardCmd
/var/folders/lp/0dm50ddn51vc39svyzv_6fp00000gn/T//ccLUgEfv.s:898    .text:00000000000002aa USART_SmartCardNACKCmd
/var/folders/lp/0dm50ddn51vc39svyzv_6fp00000gn/T//ccLUgEfv.s:930    .text:00000000000002c2 USART_HalfDuplexCmd
/var/folders/lp/0dm50ddn51vc39svyzv_6fp00000gn/T//ccLUgEfv.s:962    .text:00000000000002da USART_OverSampling8Cmd
/var/folders/lp/0dm50ddn51vc39svyzv_6fp00000gn/T//ccLUgEfv.s:993    .text:00000000000002f2 USART_OneBitMethodCmd
/var/folders/lp/0dm50ddn51vc39svyzv_6fp00000gn/T//ccLUgEfv.s:1025   .text:000000000000030a USART_IrDAConfig
/var/folders/lp/0dm50ddn51vc39svyzv_6fp00000gn/T//ccLUgEfv.s:1054   .text:0000000000000320 USART_IrDACmd
/var/folders/lp/0dm50ddn51vc39svyzv_6fp00000gn/T//ccLUgEfv.s:1086   .text:0000000000000338 USART_GetFlagStatus
/var/folders/lp/0dm50ddn51vc39svyzv_6fp00000gn/T//ccLUgEfv.s:1113   .text:0000000000000344 USART_ClearFlag
/var/folders/lp/0dm50ddn51vc39svyzv_6fp00000gn/T//ccLUgEfv.s:1135   .text:000000000000034c USART_GetITStatus
/var/folders/lp/0dm50ddn51vc39svyzv_6fp00000gn/T//ccLUgEfv.s:1214   .text:000000000000038c USART_ClearITPendingBit
                     .debug_frame:0000000000000010 $d

UNDEFINED SYMBOLS
RCC_APB2PeriphResetCmd
RCC_APB1PeriphResetCmd
RCC_GetClocksFreq
