ARM GAS  /var/folders/lp/0dm50ddn51vc39svyzv_6fp00000gn/T//ccn8O2AG.s 			page 1


   1              		.syntax unified
   2              		.cpu cortex-m3
   3              		.fpu softvfp
   4              		.eabi_attribute 20, 1	@ Tag_ABI_FP_denormal
   5              		.eabi_attribute 21, 1	@ Tag_ABI_FP_exceptions
   6              		.eabi_attribute 23, 3	@ Tag_ABI_FP_number_model
   7              		.eabi_attribute 24, 1	@ Tag_ABI_align8_needed
   8              		.eabi_attribute 25, 1	@ Tag_ABI_align8_preserved
   9              		.eabi_attribute 26, 1	@ Tag_ABI_enum_size
  10              		.eabi_attribute 30, 4	@ Tag_ABI_optimization_goals
  11              		.eabi_attribute 34, 1	@ Tag_CPU_unaligned_access
  12              		.eabi_attribute 18, 4	@ Tag_ABI_PCS_wchar_t
  13              		.file	"main.c"
  14              	@ GNU C11 (GNU Tools for ARM Embedded Processors) version 5.4.1 20160919 (release) [ARM/embedded-5-
  15              	@	compiled by GNU C version 4.2.1 (Based on Apple Inc. build 5658) (LLVM build 2336.9.00), GMP vers
  16              	@ GGC heuristics: --param ggc-min-expand=100 --param ggc-min-heapsize=131072
  17              	@ options passed:  -I . -I ./user -I ./Libraries/CMSIS/CM3/CoreSupport
  18              	@ -I ./Libraries/CMSIS/CM3/DeviceSupport/ST/STM32F10x
  19              	@ -I ./Libraries/STM32F10x_StdPeriph_Driver/inc
  20              	@ -I ./Libraries/STM32F10x_StdPeriph_Driver -imultilib armv7-m
  21              	@ -iprefix /usr/local/share/gcc-arm-none-eabi-5_4-2016q3/bin/../lib/gcc/arm-none-eabi/5.4.1/
  22              	@ -isysroot /usr/local/share/gcc-arm-none-eabi-5_4-2016q3/bin/../arm-none-eabi
  23              	@ -D__USES_INITFINI__ -D STM32F10X_MD_VL -D USE_STDPERIPH_DRIVER
  24              	@ -D HSE_VALUE=8000000 -D RUN_FROM_FLASH=1 user/main.c -mcpu=cortex-m3
  25              	@ -mthumb -auxbase-strip user/main.o -g -gdwarf-2 -Os -Wall
  26              	@ -fomit-frame-pointer -fverbose-asm
  27              	@ options enabled:  -faggressive-loop-optimizations -falign-functions
  28              	@ -falign-jumps -falign-labels -falign-loops -fauto-inc-dec
  29              	@ -fbranch-count-reg -fcaller-saves -fchkp-check-incomplete-type
  30              	@ -fchkp-check-read -fchkp-check-write -fchkp-instrument-calls
  31              	@ -fchkp-narrow-bounds -fchkp-optimize -fchkp-store-bounds
  32              	@ -fchkp-use-static-bounds -fchkp-use-static-const-bounds
  33              	@ -fchkp-use-wrappers -fcombine-stack-adjustments -fcommon -fcompare-elim
  34              	@ -fcprop-registers -fcrossjumping -fcse-follow-jumps -fdefer-pop
  35              	@ -fdelete-null-pointer-checks -fdevirtualize -fdevirtualize-speculatively
  36              	@ -fdwarf2-cfi-asm -fearly-inlining -feliminate-unused-debug-types
  37              	@ -fexpensive-optimizations -fforward-propagate -ffunction-cse -fgcse
  38              	@ -fgcse-lm -fgnu-runtime -fgnu-unique -fguess-branch-probability
  39              	@ -fhoist-adjacent-loads -fident -fif-conversion -fif-conversion2
  40              	@ -findirect-inlining -finline -finline-atomics -finline-functions
  41              	@ -finline-functions-called-once -finline-small-functions -fipa-cp
  42              	@ -fipa-cp-alignment -fipa-icf -fipa-icf-functions -fipa-icf-variables
  43              	@ -fipa-profile -fipa-pure-const -fipa-ra -fipa-reference -fipa-sra
  44              	@ -fira-hoist-pressure -fira-share-save-slots -fira-share-spill-slots
  45              	@ -fisolate-erroneous-paths-dereference -fivopts -fkeep-static-consts
  46              	@ -fleading-underscore -flifetime-dse -flra-remat -flto-odr-type-merging
  47              	@ -fmath-errno -fmerge-constants -fmerge-debug-strings
  48              	@ -fmove-loop-invariants -fomit-frame-pointer -foptimize-sibling-calls
  49              	@ -fpartial-inlining -fpeephole -fpeephole2 -fprefetch-loop-arrays
  50              	@ -freg-struct-return -freorder-blocks -freorder-functions
  51              	@ -frerun-cse-after-loop -fsched-critical-path-heuristic
  52              	@ -fsched-dep-count-heuristic -fsched-group-heuristic -fsched-interblock
  53              	@ -fsched-last-insn-heuristic -fsched-pressure -fsched-rank-heuristic
  54              	@ -fsched-spec -fsched-spec-insn-heuristic -fsched-stalled-insns-dep
  55              	@ -fschedule-insns2 -fsection-anchors -fsemantic-interposition
  56              	@ -fshow-column -fsigned-zeros -fsplit-ivs-in-unroller -fsplit-wide-types
  57              	@ -fssa-phiopt -fstdarg-opt -fstrict-aliasing -fstrict-overflow
ARM GAS  /var/folders/lp/0dm50ddn51vc39svyzv_6fp00000gn/T//ccn8O2AG.s 			page 2


  58              	@ -fstrict-volatile-bitfields -fsync-libcalls -fthread-jumps
  59              	@ -ftoplevel-reorder -ftrapping-math -ftree-bit-ccp -ftree-builtin-call-dce
  60              	@ -ftree-ccp -ftree-ch -ftree-coalesce-vars -ftree-copy-prop
  61              	@ -ftree-copyrename -ftree-cselim -ftree-dce -ftree-dominator-opts
  62              	@ -ftree-dse -ftree-forwprop -ftree-fre -ftree-loop-if-convert
  63              	@ -ftree-loop-im -ftree-loop-ivcanon -ftree-loop-optimize
  64              	@ -ftree-parallelize-loops= -ftree-phiprop -ftree-pre -ftree-pta
  65              	@ -ftree-reassoc -ftree-scev-cprop -ftree-sink -ftree-slsr -ftree-sra
  66              	@ -ftree-switch-conversion -ftree-tail-merge -ftree-ter -ftree-vrp
  67              	@ -funit-at-a-time -fvar-tracking -fvar-tracking-assignments -fverbose-asm
  68              	@ -fzero-initialized-in-bss -masm-syntax-unified -mfix-cortex-m3-ldrd
  69              	@ -mlittle-endian -mpic-data-is-text-relative -msched-prolog -mthumb
  70              	@ -munaligned-access -mvectorize-with-neon-quad
  71              	
  72              		.text
  73              	.Ltext0:
  74              		.cfi_sections	.debug_frame
  75              		.align	1
  76              		.global	Delay
  77              		.thumb
  78              		.thumb_func
  79              		.type	Delay, %function
  80              	Delay:
  81              	.LFB29:
  82              		.file 1 "user/main.c"
   1:user/main.c   **** //
   2:user/main.c   **** // Created by YangYongbao on 2017/3/16.
   3:user/main.c   **** //
   4:user/main.c   **** 
   5:user/main.c   **** #include "stm32f10x.h"
   6:user/main.c   **** #include "stm32f10x_conf.h"
   7:user/main.c   **** 
   8:user/main.c   **** void Delay(__IO uint32_t nCount)
   9:user/main.c   **** {
  83              		.loc 1 9 0
  84              		.cfi_startproc
  85              		@ args = 0, pretend = 0, frame = 8
  86              		@ frame_needed = 0, uses_anonymous_args = 0
  87              		@ link register save eliminated.
  88              	.LVL0:
  89 0000 82B0     		sub	sp, sp, #8	@,,
  90              	.LCFI0:
  91              		.cfi_def_cfa_offset 8
  92 0002 0190     		str	r0, [sp, #4]	@ nCount, nCount
  93              	.L2:
  10:user/main.c   ****     for(; nCount != 0; nCount--);
  94              		.loc 1 10 0 discriminator 1
  95 0004 019B     		ldr	r3, [sp, #4]	@ D.6580, nCount
  96 0006 1BB1     		cbz	r3, .L5	@ D.6580,
  97              		.loc 1 10 0 is_stmt 0 discriminator 2
  98 0008 019B     		ldr	r3, [sp, #4]	@ D.6580, nCount
  99 000a 013B     		subs	r3, r3, #1	@ D.6580, D.6580,
 100 000c 0193     		str	r3, [sp, #4]	@ D.6580, nCount
 101 000e F9E7     		b	.L2	@
 102              	.L5:
  11:user/main.c   **** }
 103              		.loc 1 11 0 is_stmt 1
ARM GAS  /var/folders/lp/0dm50ddn51vc39svyzv_6fp00000gn/T//ccn8O2AG.s 			page 3


 104 0010 02B0     		add	sp, sp, #8	@,,
 105              	.LCFI1:
 106              		.cfi_def_cfa_offset 0
 107              		@ sp needed	@
 108 0012 7047     		bx	lr	@
 109              		.cfi_endproc
 110              	.LFE29:
 111              		.size	Delay, .-Delay
 112              		.align	1
 113              		.global	RCC_Configuration
 114              		.thumb
 115              		.thumb_func
 116              		.type	RCC_Configuration, %function
 117              	RCC_Configuration:
 118              	.LFB30:
  12:user/main.c   **** 
  13:user/main.c   **** void RCC_Configuration(void)
  14:user/main.c   **** {
 119              		.loc 1 14 0
 120              		.cfi_startproc
 121              		@ args = 0, pretend = 0, frame = 0
 122              		@ frame_needed = 0, uses_anonymous_args = 0
 123              		@ link register save eliminated.
  15:user/main.c   ****     /* GPIOA, GPIOB clock enable */
  16:user/main.c   ****     RCC_APB2PeriphClockCmd(RCC_APB2Periph_GPIOA | RCC_APB2Periph_GPIOB, ENABLE);
 124              		.loc 1 16 0
 125 0014 0121     		movs	r1, #1	@,
 126 0016 0C20     		movs	r0, #12	@,
 127 0018 FFF7FEBF 		b	RCC_APB2PeriphClockCmd	@
 128              	.LVL1:
 129              		.cfi_endproc
 130              	.LFE30:
 131              		.size	RCC_Configuration, .-RCC_Configuration
 132              		.align	1
 133              		.global	GPIO_Configuration
 134              		.thumb
 135              		.thumb_func
 136              		.type	GPIO_Configuration, %function
 137              	GPIO_Configuration:
 138              	.LFB31:
  17:user/main.c   **** }
  18:user/main.c   **** 
  19:user/main.c   **** void GPIO_Configuration(void)
  20:user/main.c   **** {
 139              		.loc 1 20 0
 140              		.cfi_startproc
 141              		@ args = 0, pretend = 0, frame = 8
 142              		@ frame_needed = 0, uses_anonymous_args = 0
 143 001c 07B5     		push	{r0, r1, r2, lr}	@
 144              	.LCFI2:
 145              		.cfi_def_cfa_offset 16
 146              		.cfi_offset 14, -4
  21:user/main.c   ****     GPIO_InitTypeDef GPIO_InitStructure;
  22:user/main.c   **** 
  23:user/main.c   ****     GPIO_InitStructure.GPIO_Pin =  GPIO_Pin_6;
 147              		.loc 1 23 0
 148 001e 4023     		movs	r3, #64	@ tmp111,
ARM GAS  /var/folders/lp/0dm50ddn51vc39svyzv_6fp00000gn/T//ccn8O2AG.s 			page 4


 149 0020 ADF80430 		strh	r3, [sp, #4]	@ movhi	@ tmp111, GPIO_InitStructure.GPIO_Pin
  24:user/main.c   ****     GPIO_InitStructure.GPIO_Mode = GPIO_Mode_Out_PP;
 150              		.loc 1 24 0
 151 0024 1023     		movs	r3, #16	@ tmp112,
 152 0026 8DF80730 		strb	r3, [sp, #7]	@ tmp112, GPIO_InitStructure.GPIO_Mode
  25:user/main.c   ****     GPIO_InitStructure.GPIO_Speed = GPIO_Speed_50MHz;
  26:user/main.c   ****     GPIO_Init(GPIOB, &GPIO_InitStructure);
 153              		.loc 1 26 0
 154 002a 01A9     		add	r1, sp, #4	@,,
  25:user/main.c   ****     GPIO_InitStructure.GPIO_Speed = GPIO_Speed_50MHz;
 155              		.loc 1 25 0
 156 002c 0323     		movs	r3, #3	@ tmp114,
 157              		.loc 1 26 0
 158 002e 0448     		ldr	r0, .L8	@,
  25:user/main.c   ****     GPIO_InitStructure.GPIO_Speed = GPIO_Speed_50MHz;
 159              		.loc 1 25 0
 160 0030 8DF80630 		strb	r3, [sp, #6]	@ tmp114, GPIO_InitStructure.GPIO_Speed
 161              		.loc 1 26 0
 162 0034 FFF7FEFF 		bl	GPIO_Init	@
 163              	.LVL2:
  27:user/main.c   **** }
 164              		.loc 1 27 0
 165 0038 03B0     		add	sp, sp, #12	@,,
 166              	.LCFI3:
 167              		.cfi_def_cfa_offset 4
 168              		@ sp needed	@
 169 003a 5DF804FB 		ldr	pc, [sp], #4	@
 170              	.L9:
 171 003e 00BF     		.align	2
 172              	.L8:
 173 0040 000C0140 		.word	1073810432
 174              		.cfi_endproc
 175              	.LFE31:
 176              		.size	GPIO_Configuration, .-GPIO_Configuration
 177              		.section	.text.startup,"ax",%progbits
 178              		.align	1
 179              		.global	main
 180              		.thumb
 181              		.thumb_func
 182              		.type	main, %function
 183              	main:
 184              	.LFB32:
  28:user/main.c   **** 
  29:user/main.c   **** int main() {
 185              		.loc 1 29 0
 186              		.cfi_startproc
 187              		@ Volatile: function does not return.
 188              		@ args = 0, pretend = 0, frame = 0
 189              		@ frame_needed = 0, uses_anonymous_args = 0
 190 0000 08B5     		push	{r3, lr}	@
 191              	.LCFI4:
 192              		.cfi_def_cfa_offset 8
 193              		.cfi_offset 3, -8
 194              		.cfi_offset 14, -4
  30:user/main.c   **** 
  31:user/main.c   ****     RCC_Configuration();
 195              		.loc 1 31 0
ARM GAS  /var/folders/lp/0dm50ddn51vc39svyzv_6fp00000gn/T//ccn8O2AG.s 			page 5


 196 0002 FFF7FEFF 		bl	RCC_Configuration	@
 197              	.LVL3:
  32:user/main.c   ****     GPIO_Configuration();
 198              		.loc 1 32 0
 199 0006 FFF7FEFF 		bl	GPIO_Configuration	@
 200              	.LVL4:
 201              	.L11:
  33:user/main.c   **** 
  34:user/main.c   ****     while(1) {
  35:user/main.c   ****         GPIO_ResetBits(GPIOB, GPIO_Pin_6);
 202              		.loc 1 35 0 discriminator 1
 203 000a 4021     		movs	r1, #64	@,
 204 000c 0648     		ldr	r0, .L12	@,
 205 000e FFF7FEFF 		bl	GPIO_ResetBits	@
 206              	.LVL5:
  36:user/main.c   ****         Delay(1000000);
 207              		.loc 1 36 0 discriminator 1
 208 0012 0648     		ldr	r0, .L12+4	@,
 209 0014 FFF7FEFF 		bl	Delay	@
 210              	.LVL6:
  37:user/main.c   ****         GPIO_SetBits(GPIOB, GPIO_Pin_6);
 211              		.loc 1 37 0 discriminator 1
 212 0018 4021     		movs	r1, #64	@,
 213 001a 0348     		ldr	r0, .L12	@,
 214 001c FFF7FEFF 		bl	GPIO_SetBits	@
 215              	.LVL7:
  38:user/main.c   ****         Delay(1000000);
 216              		.loc 1 38 0 discriminator 1
 217 0020 0248     		ldr	r0, .L12+4	@,
 218 0022 FFF7FEFF 		bl	Delay	@
 219              	.LVL8:
 220 0026 F0E7     		b	.L11	@
 221              	.L13:
 222              		.align	2
 223              	.L12:
 224 0028 000C0140 		.word	1073810432
 225 002c 40420F00 		.word	1000000
 226              		.cfi_endproc
 227              	.LFE32:
 228              		.size	main, .-main
 229              		.text
 230              	.Letext0:
 231              		.file 2 "/usr/local/share/gcc-arm-none-eabi-5_4-2016q3/arm-none-eabi/include/machine/_default_type
 232              		.file 3 "/usr/local/share/gcc-arm-none-eabi-5_4-2016q3/arm-none-eabi/include/sys/_stdint.h"
 233              		.file 4 "./Libraries/CMSIS/CM3/DeviceSupport/ST/STM32F10x/stm32f10x.h"
 234              		.file 5 "./Libraries/STM32F10x_StdPeriph_Driver/inc/stm32f10x_gpio.h"
 235              		.file 6 "./Libraries/STM32F10x_StdPeriph_Driver/inc/stm32f10x_rcc.h"
 236              		.file 7 "./Libraries/CMSIS/CM3/CoreSupport/core_cm3.h"
 237              		.section	.debug_info,"",%progbits
 238              	.Ldebug_info0:
 239 0000 66030000 		.4byte	0x366
 240 0004 0200     		.2byte	0x2
 241 0006 00000000 		.4byte	.Ldebug_abbrev0
 242 000a 04       		.byte	0x4
 243 000b 01       		.uleb128 0x1
 244 000c F1010000 		.4byte	.LASF43
 245 0010 0C       		.byte	0xc
ARM GAS  /var/folders/lp/0dm50ddn51vc39svyzv_6fp00000gn/T//ccn8O2AG.s 			page 6


 246 0011 CC000000 		.4byte	.LASF44
 247 0015 36000000 		.4byte	.LASF45
 248 0019 00000000 		.4byte	.Ldebug_ranges0+0
 249 001d 00000000 		.4byte	0
 250 0021 00000000 		.4byte	0
 251 0025 00000000 		.4byte	.Ldebug_line0
 252 0029 02       		.uleb128 0x2
 253 002a 01       		.byte	0x1
 254 002b 06       		.byte	0x6
 255 002c F5020000 		.4byte	.LASF0
 256 0030 02       		.uleb128 0x2
 257 0031 01       		.byte	0x1
 258 0032 08       		.byte	0x8
 259 0033 BE000000 		.4byte	.LASF1
 260 0037 02       		.uleb128 0x2
 261 0038 02       		.byte	0x2
 262 0039 05       		.byte	0x5
 263 003a 8B020000 		.4byte	.LASF2
 264 003e 03       		.uleb128 0x3
 265 003f 2D010000 		.4byte	.LASF5
 266 0043 02       		.byte	0x2
 267 0044 2B       		.byte	0x2b
 268 0045 49000000 		.4byte	0x49
 269 0049 02       		.uleb128 0x2
 270 004a 02       		.byte	0x2
 271 004b 07       		.byte	0x7
 272 004c EA000000 		.4byte	.LASF3
 273 0050 02       		.uleb128 0x2
 274 0051 04       		.byte	0x4
 275 0052 05       		.byte	0x5
 276 0053 DA020000 		.4byte	.LASF4
 277 0057 03       		.uleb128 0x3
 278 0058 15010000 		.4byte	.LASF6
 279 005c 02       		.byte	0x2
 280 005d 41       		.byte	0x41
 281 005e 62000000 		.4byte	0x62
 282 0062 02       		.uleb128 0x2
 283 0063 04       		.byte	0x4
 284 0064 07       		.byte	0x7
 285 0065 D8000000 		.4byte	.LASF7
 286 0069 02       		.uleb128 0x2
 287 006a 08       		.byte	0x8
 288 006b 05       		.byte	0x5
 289 006c C5010000 		.4byte	.LASF8
 290 0070 02       		.uleb128 0x2
 291 0071 08       		.byte	0x8
 292 0072 07       		.byte	0x7
 293 0073 01030000 		.4byte	.LASF9
 294 0077 04       		.uleb128 0x4
 295 0078 04       		.byte	0x4
 296 0079 05       		.byte	0x5
 297 007a 696E7400 		.ascii	"int\000"
 298 007e 02       		.uleb128 0x2
 299 007f 04       		.byte	0x4
 300 0080 07       		.byte	0x7
 301 0081 50010000 		.4byte	.LASF10
 302 0085 03       		.uleb128 0x3
ARM GAS  /var/folders/lp/0dm50ddn51vc39svyzv_6fp00000gn/T//ccn8O2AG.s 			page 7


 303 0086 B0020000 		.4byte	.LASF11
 304 008a 03       		.byte	0x3
 305 008b 24       		.byte	0x24
 306 008c 3E000000 		.4byte	0x3e
 307 0090 03       		.uleb128 0x3
 308 0091 D1020000 		.4byte	.LASF12
 309 0095 03       		.byte	0x3
 310 0096 30       		.byte	0x30
 311 0097 57000000 		.4byte	0x57
 312 009b 02       		.uleb128 0x2
 313 009c 04       		.byte	0x4
 314 009d 07       		.byte	0x7
 315 009e B3010000 		.4byte	.LASF13
 316 00a2 05       		.uleb128 0x5
 317 00a3 90000000 		.4byte	0x90
 318 00a7 06       		.uleb128 0x6
 319 00a8 01       		.byte	0x1
 320 00a9 30000000 		.4byte	0x30
 321 00ad 04       		.byte	0x4
 322 00ae 0902     		.2byte	0x209
 323 00b0 C1000000 		.4byte	0xc1
 324 00b4 07       		.uleb128 0x7
 325 00b5 0D010000 		.4byte	.LASF14
 326 00b9 00       		.byte	0
 327 00ba 07       		.uleb128 0x7
 328 00bb B7000000 		.4byte	.LASF15
 329 00bf 01       		.byte	0x1
 330 00c0 00       		.byte	0
 331 00c1 08       		.uleb128 0x8
 332 00c2 1C       		.byte	0x1c
 333 00c3 04       		.byte	0x4
 334 00c4 E903     		.2byte	0x3e9
 335 00c6 34010000 		.4byte	0x134
 336 00ca 09       		.uleb128 0x9
 337 00cb 43524C00 		.ascii	"CRL\000"
 338 00cf 04       		.byte	0x4
 339 00d0 EB03     		.2byte	0x3eb
 340 00d2 A2000000 		.4byte	0xa2
 341 00d6 02       		.byte	0x2
 342 00d7 23       		.byte	0x23
 343 00d8 00       		.uleb128 0
 344 00d9 09       		.uleb128 0x9
 345 00da 43524800 		.ascii	"CRH\000"
 346 00de 04       		.byte	0x4
 347 00df EC03     		.2byte	0x3ec
 348 00e1 A2000000 		.4byte	0xa2
 349 00e5 02       		.byte	0x2
 350 00e6 23       		.byte	0x23
 351 00e7 04       		.uleb128 0x4
 352 00e8 09       		.uleb128 0x9
 353 00e9 49445200 		.ascii	"IDR\000"
 354 00ed 04       		.byte	0x4
 355 00ee ED03     		.2byte	0x3ed
 356 00f0 A2000000 		.4byte	0xa2
 357 00f4 02       		.byte	0x2
 358 00f5 23       		.byte	0x23
 359 00f6 08       		.uleb128 0x8
ARM GAS  /var/folders/lp/0dm50ddn51vc39svyzv_6fp00000gn/T//ccn8O2AG.s 			page 8


 360 00f7 09       		.uleb128 0x9
 361 00f8 4F445200 		.ascii	"ODR\000"
 362 00fc 04       		.byte	0x4
 363 00fd EE03     		.2byte	0x3ee
 364 00ff A2000000 		.4byte	0xa2
 365 0103 02       		.byte	0x2
 366 0104 23       		.byte	0x23
 367 0105 0C       		.uleb128 0xc
 368 0106 0A       		.uleb128 0xa
 369 0107 76000000 		.4byte	.LASF16
 370 010b 04       		.byte	0x4
 371 010c EF03     		.2byte	0x3ef
 372 010e A2000000 		.4byte	0xa2
 373 0112 02       		.byte	0x2
 374 0113 23       		.byte	0x23
 375 0114 10       		.uleb128 0x10
 376 0115 09       		.uleb128 0x9
 377 0116 42525200 		.ascii	"BRR\000"
 378 011a 04       		.byte	0x4
 379 011b F003     		.2byte	0x3f0
 380 011d A2000000 		.4byte	0xa2
 381 0121 02       		.byte	0x2
 382 0122 23       		.byte	0x23
 383 0123 14       		.uleb128 0x14
 384 0124 0A       		.uleb128 0xa
 385 0125 0B000000 		.4byte	.LASF17
 386 0129 04       		.byte	0x4
 387 012a F103     		.2byte	0x3f1
 388 012c A2000000 		.4byte	0xa2
 389 0130 02       		.byte	0x2
 390 0131 23       		.byte	0x23
 391 0132 18       		.uleb128 0x18
 392 0133 00       		.byte	0
 393 0134 0B       		.uleb128 0xb
 394 0135 92000000 		.4byte	.LASF18
 395 0139 04       		.byte	0x4
 396 013a F203     		.2byte	0x3f2
 397 013c C1000000 		.4byte	0xc1
 398 0140 0C       		.uleb128 0xc
 399 0141 01       		.byte	0x1
 400 0142 30000000 		.4byte	0x30
 401 0146 05       		.byte	0x5
 402 0147 3B       		.byte	0x3b
 403 0148 5F010000 		.4byte	0x15f
 404 014c 07       		.uleb128 0x7
 405 014d 95020000 		.4byte	.LASF19
 406 0151 01       		.byte	0x1
 407 0152 07       		.uleb128 0x7
 408 0153 FD000000 		.4byte	.LASF20
 409 0157 02       		.byte	0x2
 410 0158 07       		.uleb128 0x7
 411 0159 A2010000 		.4byte	.LASF21
 412 015d 03       		.byte	0x3
 413 015e 00       		.byte	0
 414 015f 03       		.uleb128 0x3
 415 0160 E3020000 		.4byte	.LASF22
 416 0164 05       		.byte	0x5
ARM GAS  /var/folders/lp/0dm50ddn51vc39svyzv_6fp00000gn/T//ccn8O2AG.s 			page 9


 417 0165 3F       		.byte	0x3f
 418 0166 40010000 		.4byte	0x140
 419 016a 0C       		.uleb128 0xc
 420 016b 01       		.byte	0x1
 421 016c 30000000 		.4byte	0x30
 422 0170 05       		.byte	0x5
 423 0171 48       		.byte	0x48
 424 0172 A7010000 		.4byte	0x1a7
 425 0176 07       		.uleb128 0x7
 426 0177 D3010000 		.4byte	.LASF23
 427 017b 00       		.byte	0
 428 017c 07       		.uleb128 0x7
 429 017d 10000000 		.4byte	.LASF24
 430 0181 04       		.byte	0x4
 431 0182 07       		.uleb128 0x7
 432 0183 68000000 		.4byte	.LASF25
 433 0187 28       		.byte	0x28
 434 0188 07       		.uleb128 0x7
 435 0189 9F000000 		.4byte	.LASF26
 436 018d 48       		.byte	0x48
 437 018e 07       		.uleb128 0x7
 438 018f 18030000 		.4byte	.LASF27
 439 0193 14       		.byte	0x14
 440 0194 07       		.uleb128 0x7
 441 0195 6C010000 		.4byte	.LASF28
 442 0199 10       		.byte	0x10
 443 019a 07       		.uleb128 0x7
 444 019b 26000000 		.4byte	.LASF29
 445 019f 1C       		.byte	0x1c
 446 01a0 07       		.uleb128 0x7
 447 01a1 E1010000 		.4byte	.LASF30
 448 01a5 18       		.byte	0x18
 449 01a6 00       		.byte	0
 450 01a7 03       		.uleb128 0x3
 451 01a8 29030000 		.4byte	.LASF31
 452 01ac 05       		.byte	0x5
 453 01ad 50       		.byte	0x50
 454 01ae 6A010000 		.4byte	0x16a
 455 01b2 0D       		.uleb128 0xd
 456 01b3 04       		.byte	0x4
 457 01b4 05       		.byte	0x5
 458 01b5 5B       		.byte	0x5b
 459 01b6 E5010000 		.4byte	0x1e5
 460 01ba 0E       		.uleb128 0xe
 461 01bb BC010000 		.4byte	.LASF32
 462 01bf 05       		.byte	0x5
 463 01c0 5D       		.byte	0x5d
 464 01c1 85000000 		.4byte	0x85
 465 01c5 02       		.byte	0x2
 466 01c6 23       		.byte	0x23
 467 01c7 00       		.uleb128 0
 468 01c8 0E       		.uleb128 0xe
 469 01c9 00000000 		.4byte	.LASF33
 470 01cd 05       		.byte	0x5
 471 01ce 60       		.byte	0x60
 472 01cf 5F010000 		.4byte	0x15f
 473 01d3 02       		.byte	0x2
ARM GAS  /var/folders/lp/0dm50ddn51vc39svyzv_6fp00000gn/T//ccn8O2AG.s 			page 10


 474 01d4 23       		.byte	0x23
 475 01d5 02       		.uleb128 0x2
 476 01d6 0E       		.uleb128 0xe
 477 01d7 AD000000 		.4byte	.LASF34
 478 01db 05       		.byte	0x5
 479 01dc 63       		.byte	0x63
 480 01dd A7010000 		.4byte	0x1a7
 481 01e1 02       		.byte	0x2
 482 01e2 23       		.byte	0x23
 483 01e3 03       		.uleb128 0x3
 484 01e4 00       		.byte	0
 485 01e5 03       		.uleb128 0x3
 486 01e6 B9020000 		.4byte	.LASF35
 487 01ea 05       		.byte	0x5
 488 01eb 65       		.byte	0x65
 489 01ec B2010000 		.4byte	0x1b2
 490 01f0 0F       		.uleb128 0xf
 491 01f1 01       		.byte	0x1
 492 01f2 38010000 		.4byte	.LASF36
 493 01f6 01       		.byte	0x1
 494 01f7 08       		.byte	0x8
 495 01f8 01       		.byte	0x1
 496 01f9 00000000 		.4byte	.LFB29
 497 01fd 14000000 		.4byte	.LFE29
 498 0201 00000000 		.4byte	.LLST0
 499 0205 01       		.byte	0x1
 500 0206 18020000 		.4byte	0x218
 501 020a 10       		.uleb128 0x10
 502 020b CA020000 		.4byte	.LASF46
 503 020f 01       		.byte	0x1
 504 0210 08       		.byte	0x8
 505 0211 A2000000 		.4byte	0xa2
 506 0215 01       		.byte	0x1
 507 0216 50       		.byte	0x50
 508 0217 00       		.byte	0
 509 0218 11       		.uleb128 0x11
 510 0219 01       		.byte	0x1
 511 021a 90010000 		.4byte	.LASF37
 512 021e 01       		.byte	0x1
 513 021f 0D       		.byte	0xd
 514 0220 01       		.byte	0x1
 515 0221 14000000 		.4byte	.LFB30
 516 0225 1C000000 		.4byte	.LFE30
 517 0229 02       		.byte	0x2
 518 022a 7D       		.byte	0x7d
 519 022b 00       		.sleb128 0
 520 022c 01       		.byte	0x1
 521 022d 47020000 		.4byte	0x247
 522 0231 12       		.uleb128 0x12
 523 0232 1C000000 		.4byte	.LVL1
 524 0236 01       		.byte	0x1
 525 0237 31030000 		.4byte	0x331
 526 023b 13       		.uleb128 0x13
 527 023c 01       		.byte	0x1
 528 023d 50       		.byte	0x50
 529 023e 01       		.byte	0x1
 530 023f 3C       		.byte	0x3c
ARM GAS  /var/folders/lp/0dm50ddn51vc39svyzv_6fp00000gn/T//ccn8O2AG.s 			page 11


 531 0240 13       		.uleb128 0x13
 532 0241 01       		.byte	0x1
 533 0242 51       		.byte	0x51
 534 0243 01       		.byte	0x1
 535 0244 31       		.byte	0x31
 536 0245 00       		.byte	0
 537 0246 00       		.byte	0
 538 0247 0F       		.uleb128 0xf
 539 0248 01       		.byte	0x1
 540 0249 7D010000 		.4byte	.LASF38
 541 024d 01       		.byte	0x1
 542 024e 13       		.byte	0x13
 543 024f 01       		.byte	0x1
 544 0250 1C000000 		.4byte	.LFB31
 545 0254 44000000 		.4byte	.LFE31
 546 0258 2C000000 		.4byte	.LLST1
 547 025c 01       		.byte	0x1
 548 025d 89020000 		.4byte	0x289
 549 0261 14       		.uleb128 0x14
 550 0262 78020000 		.4byte	.LASF47
 551 0266 01       		.byte	0x1
 552 0267 15       		.byte	0x15
 553 0268 E5010000 		.4byte	0x1e5
 554 026c 02       		.byte	0x2
 555 026d 91       		.byte	0x91
 556 026e 74       		.sleb128 -12
 557 026f 15       		.uleb128 0x15
 558 0270 38000000 		.4byte	.LVL2
 559 0274 3F030000 		.4byte	0x33f
 560 0278 13       		.uleb128 0x13
 561 0279 01       		.byte	0x1
 562 027a 50       		.byte	0x50
 563 027b 05       		.byte	0x5
 564 027c 0C       		.byte	0xc
 565 027d 000C0140 		.4byte	0x40010c00
 566 0281 13       		.uleb128 0x13
 567 0282 01       		.byte	0x1
 568 0283 51       		.byte	0x51
 569 0284 02       		.byte	0x2
 570 0285 91       		.byte	0x91
 571 0286 74       		.sleb128 -12
 572 0287 00       		.byte	0
 573 0288 00       		.byte	0
 574 0289 16       		.uleb128 0x16
 575 028a 01       		.byte	0x1
 576 028b 3E010000 		.4byte	.LASF48
 577 028f 01       		.byte	0x1
 578 0290 1D       		.byte	0x1d
 579 0291 77000000 		.4byte	0x77
 580 0295 01       		.byte	0x1
 581 0296 00000000 		.4byte	.LFB32
 582 029a 30000000 		.4byte	.LFE32
 583 029e 58000000 		.4byte	.LLST2
 584 02a2 01       		.byte	0x1
 585 02a3 1E030000 		.4byte	0x31e
 586 02a7 17       		.uleb128 0x17
 587 02a8 06000000 		.4byte	.LVL3
ARM GAS  /var/folders/lp/0dm50ddn51vc39svyzv_6fp00000gn/T//ccn8O2AG.s 			page 12


 588 02ac 18020000 		.4byte	0x218
 589 02b0 17       		.uleb128 0x17
 590 02b1 0A000000 		.4byte	.LVL4
 591 02b5 47020000 		.4byte	0x247
 592 02b9 18       		.uleb128 0x18
 593 02ba 12000000 		.4byte	.LVL5
 594 02be 4D030000 		.4byte	0x34d
 595 02c2 D6020000 		.4byte	0x2d6
 596 02c6 13       		.uleb128 0x13
 597 02c7 01       		.byte	0x1
 598 02c8 50       		.byte	0x50
 599 02c9 05       		.byte	0x5
 600 02ca 0C       		.byte	0xc
 601 02cb 000C0140 		.4byte	0x40010c00
 602 02cf 13       		.uleb128 0x13
 603 02d0 01       		.byte	0x1
 604 02d1 51       		.byte	0x51
 605 02d2 02       		.byte	0x2
 606 02d3 08       		.byte	0x8
 607 02d4 40       		.byte	0x40
 608 02d5 00       		.byte	0
 609 02d6 18       		.uleb128 0x18
 610 02d7 18000000 		.4byte	.LVL6
 611 02db F0010000 		.4byte	0x1f0
 612 02df ED020000 		.4byte	0x2ed
 613 02e3 13       		.uleb128 0x13
 614 02e4 01       		.byte	0x1
 615 02e5 50       		.byte	0x50
 616 02e6 05       		.byte	0x5
 617 02e7 0C       		.byte	0xc
 618 02e8 40420F00 		.4byte	0xf4240
 619 02ec 00       		.byte	0
 620 02ed 18       		.uleb128 0x18
 621 02ee 20000000 		.4byte	.LVL7
 622 02f2 5B030000 		.4byte	0x35b
 623 02f6 0A030000 		.4byte	0x30a
 624 02fa 13       		.uleb128 0x13
 625 02fb 01       		.byte	0x1
 626 02fc 50       		.byte	0x50
 627 02fd 05       		.byte	0x5
 628 02fe 0C       		.byte	0xc
 629 02ff 000C0140 		.4byte	0x40010c00
 630 0303 13       		.uleb128 0x13
 631 0304 01       		.byte	0x1
 632 0305 51       		.byte	0x51
 633 0306 02       		.byte	0x2
 634 0307 08       		.byte	0x8
 635 0308 40       		.byte	0x40
 636 0309 00       		.byte	0
 637 030a 15       		.uleb128 0x15
 638 030b 26000000 		.4byte	.LVL8
 639 030f F0010000 		.4byte	0x1f0
 640 0313 13       		.uleb128 0x13
 641 0314 01       		.byte	0x1
 642 0315 50       		.byte	0x50
 643 0316 05       		.byte	0x5
 644 0317 0C       		.byte	0xc
ARM GAS  /var/folders/lp/0dm50ddn51vc39svyzv_6fp00000gn/T//ccn8O2AG.s 			page 13


 645 0318 40420F00 		.4byte	0xf4240
 646 031c 00       		.byte	0
 647 031d 00       		.byte	0
 648 031e 19       		.uleb128 0x19
 649 031f 43010000 		.4byte	.LASF49
 650 0323 07       		.byte	0x7
 651 0324 CE06     		.2byte	0x6ce
 652 0326 2C030000 		.4byte	0x32c
 653 032a 01       		.byte	0x1
 654 032b 01       		.byte	0x1
 655 032c 05       		.uleb128 0x5
 656 032d 77000000 		.4byte	0x77
 657 0331 1A       		.uleb128 0x1a
 658 0332 01       		.byte	0x1
 659 0333 01       		.byte	0x1
 660 0334 7B000000 		.4byte	.LASF39
 661 0338 7B000000 		.4byte	.LASF39
 662 033c 06       		.byte	0x6
 663 033d B502     		.2byte	0x2b5
 664 033f 1A       		.uleb128 0x1a
 665 0340 01       		.byte	0x1
 666 0341 01       		.byte	0x1
 667 0342 A6020000 		.4byte	.LASF40
 668 0346 A6020000 		.4byte	.LASF40
 669 034a 05       		.byte	0x5
 670 034b 5F01     		.2byte	0x15f
 671 034d 1A       		.uleb128 0x1a
 672 034e 01       		.byte	0x1
 673 034f 01       		.byte	0x1
 674 0350 5D010000 		.4byte	.LASF41
 675 0354 5D010000 		.4byte	.LASF41
 676 0358 05       		.byte	0x5
 677 0359 6601     		.2byte	0x166
 678 035b 1A       		.uleb128 0x1a
 679 035c 01       		.byte	0x1
 680 035d 01       		.byte	0x1
 681 035e 20010000 		.4byte	.LASF42
 682 0362 20010000 		.4byte	.LASF42
 683 0366 05       		.byte	0x5
 684 0367 6501     		.2byte	0x165
 685 0369 00       		.byte	0
 686              		.section	.debug_abbrev,"",%progbits
 687              	.Ldebug_abbrev0:
 688 0000 01       		.uleb128 0x1
 689 0001 11       		.uleb128 0x11
 690 0002 01       		.byte	0x1
 691 0003 25       		.uleb128 0x25
 692 0004 0E       		.uleb128 0xe
 693 0005 13       		.uleb128 0x13
 694 0006 0B       		.uleb128 0xb
 695 0007 03       		.uleb128 0x3
 696 0008 0E       		.uleb128 0xe
 697 0009 1B       		.uleb128 0x1b
 698 000a 0E       		.uleb128 0xe
 699 000b 55       		.uleb128 0x55
 700 000c 06       		.uleb128 0x6
 701 000d 11       		.uleb128 0x11
ARM GAS  /var/folders/lp/0dm50ddn51vc39svyzv_6fp00000gn/T//ccn8O2AG.s 			page 14


 702 000e 01       		.uleb128 0x1
 703 000f 52       		.uleb128 0x52
 704 0010 01       		.uleb128 0x1
 705 0011 10       		.uleb128 0x10
 706 0012 06       		.uleb128 0x6
 707 0013 00       		.byte	0
 708 0014 00       		.byte	0
 709 0015 02       		.uleb128 0x2
 710 0016 24       		.uleb128 0x24
 711 0017 00       		.byte	0
 712 0018 0B       		.uleb128 0xb
 713 0019 0B       		.uleb128 0xb
 714 001a 3E       		.uleb128 0x3e
 715 001b 0B       		.uleb128 0xb
 716 001c 03       		.uleb128 0x3
 717 001d 0E       		.uleb128 0xe
 718 001e 00       		.byte	0
 719 001f 00       		.byte	0
 720 0020 03       		.uleb128 0x3
 721 0021 16       		.uleb128 0x16
 722 0022 00       		.byte	0
 723 0023 03       		.uleb128 0x3
 724 0024 0E       		.uleb128 0xe
 725 0025 3A       		.uleb128 0x3a
 726 0026 0B       		.uleb128 0xb
 727 0027 3B       		.uleb128 0x3b
 728 0028 0B       		.uleb128 0xb
 729 0029 49       		.uleb128 0x49
 730 002a 13       		.uleb128 0x13
 731 002b 00       		.byte	0
 732 002c 00       		.byte	0
 733 002d 04       		.uleb128 0x4
 734 002e 24       		.uleb128 0x24
 735 002f 00       		.byte	0
 736 0030 0B       		.uleb128 0xb
 737 0031 0B       		.uleb128 0xb
 738 0032 3E       		.uleb128 0x3e
 739 0033 0B       		.uleb128 0xb
 740 0034 03       		.uleb128 0x3
 741 0035 08       		.uleb128 0x8
 742 0036 00       		.byte	0
 743 0037 00       		.byte	0
 744 0038 05       		.uleb128 0x5
 745 0039 35       		.uleb128 0x35
 746 003a 00       		.byte	0
 747 003b 49       		.uleb128 0x49
 748 003c 13       		.uleb128 0x13
 749 003d 00       		.byte	0
 750 003e 00       		.byte	0
 751 003f 06       		.uleb128 0x6
 752 0040 04       		.uleb128 0x4
 753 0041 01       		.byte	0x1
 754 0042 0B       		.uleb128 0xb
 755 0043 0B       		.uleb128 0xb
 756 0044 49       		.uleb128 0x49
 757 0045 13       		.uleb128 0x13
 758 0046 3A       		.uleb128 0x3a
ARM GAS  /var/folders/lp/0dm50ddn51vc39svyzv_6fp00000gn/T//ccn8O2AG.s 			page 15


 759 0047 0B       		.uleb128 0xb
 760 0048 3B       		.uleb128 0x3b
 761 0049 05       		.uleb128 0x5
 762 004a 01       		.uleb128 0x1
 763 004b 13       		.uleb128 0x13
 764 004c 00       		.byte	0
 765 004d 00       		.byte	0
 766 004e 07       		.uleb128 0x7
 767 004f 28       		.uleb128 0x28
 768 0050 00       		.byte	0
 769 0051 03       		.uleb128 0x3
 770 0052 0E       		.uleb128 0xe
 771 0053 1C       		.uleb128 0x1c
 772 0054 0B       		.uleb128 0xb
 773 0055 00       		.byte	0
 774 0056 00       		.byte	0
 775 0057 08       		.uleb128 0x8
 776 0058 13       		.uleb128 0x13
 777 0059 01       		.byte	0x1
 778 005a 0B       		.uleb128 0xb
 779 005b 0B       		.uleb128 0xb
 780 005c 3A       		.uleb128 0x3a
 781 005d 0B       		.uleb128 0xb
 782 005e 3B       		.uleb128 0x3b
 783 005f 05       		.uleb128 0x5
 784 0060 01       		.uleb128 0x1
 785 0061 13       		.uleb128 0x13
 786 0062 00       		.byte	0
 787 0063 00       		.byte	0
 788 0064 09       		.uleb128 0x9
 789 0065 0D       		.uleb128 0xd
 790 0066 00       		.byte	0
 791 0067 03       		.uleb128 0x3
 792 0068 08       		.uleb128 0x8
 793 0069 3A       		.uleb128 0x3a
 794 006a 0B       		.uleb128 0xb
 795 006b 3B       		.uleb128 0x3b
 796 006c 05       		.uleb128 0x5
 797 006d 49       		.uleb128 0x49
 798 006e 13       		.uleb128 0x13
 799 006f 38       		.uleb128 0x38
 800 0070 0A       		.uleb128 0xa
 801 0071 00       		.byte	0
 802 0072 00       		.byte	0
 803 0073 0A       		.uleb128 0xa
 804 0074 0D       		.uleb128 0xd
 805 0075 00       		.byte	0
 806 0076 03       		.uleb128 0x3
 807 0077 0E       		.uleb128 0xe
 808 0078 3A       		.uleb128 0x3a
 809 0079 0B       		.uleb128 0xb
 810 007a 3B       		.uleb128 0x3b
 811 007b 05       		.uleb128 0x5
 812 007c 49       		.uleb128 0x49
 813 007d 13       		.uleb128 0x13
 814 007e 38       		.uleb128 0x38
 815 007f 0A       		.uleb128 0xa
ARM GAS  /var/folders/lp/0dm50ddn51vc39svyzv_6fp00000gn/T//ccn8O2AG.s 			page 16


 816 0080 00       		.byte	0
 817 0081 00       		.byte	0
 818 0082 0B       		.uleb128 0xb
 819 0083 16       		.uleb128 0x16
 820 0084 00       		.byte	0
 821 0085 03       		.uleb128 0x3
 822 0086 0E       		.uleb128 0xe
 823 0087 3A       		.uleb128 0x3a
 824 0088 0B       		.uleb128 0xb
 825 0089 3B       		.uleb128 0x3b
 826 008a 05       		.uleb128 0x5
 827 008b 49       		.uleb128 0x49
 828 008c 13       		.uleb128 0x13
 829 008d 00       		.byte	0
 830 008e 00       		.byte	0
 831 008f 0C       		.uleb128 0xc
 832 0090 04       		.uleb128 0x4
 833 0091 01       		.byte	0x1
 834 0092 0B       		.uleb128 0xb
 835 0093 0B       		.uleb128 0xb
 836 0094 49       		.uleb128 0x49
 837 0095 13       		.uleb128 0x13
 838 0096 3A       		.uleb128 0x3a
 839 0097 0B       		.uleb128 0xb
 840 0098 3B       		.uleb128 0x3b
 841 0099 0B       		.uleb128 0xb
 842 009a 01       		.uleb128 0x1
 843 009b 13       		.uleb128 0x13
 844 009c 00       		.byte	0
 845 009d 00       		.byte	0
 846 009e 0D       		.uleb128 0xd
 847 009f 13       		.uleb128 0x13
 848 00a0 01       		.byte	0x1
 849 00a1 0B       		.uleb128 0xb
 850 00a2 0B       		.uleb128 0xb
 851 00a3 3A       		.uleb128 0x3a
 852 00a4 0B       		.uleb128 0xb
 853 00a5 3B       		.uleb128 0x3b
 854 00a6 0B       		.uleb128 0xb
 855 00a7 01       		.uleb128 0x1
 856 00a8 13       		.uleb128 0x13
 857 00a9 00       		.byte	0
 858 00aa 00       		.byte	0
 859 00ab 0E       		.uleb128 0xe
 860 00ac 0D       		.uleb128 0xd
 861 00ad 00       		.byte	0
 862 00ae 03       		.uleb128 0x3
 863 00af 0E       		.uleb128 0xe
 864 00b0 3A       		.uleb128 0x3a
 865 00b1 0B       		.uleb128 0xb
 866 00b2 3B       		.uleb128 0x3b
 867 00b3 0B       		.uleb128 0xb
 868 00b4 49       		.uleb128 0x49
 869 00b5 13       		.uleb128 0x13
 870 00b6 38       		.uleb128 0x38
 871 00b7 0A       		.uleb128 0xa
 872 00b8 00       		.byte	0
ARM GAS  /var/folders/lp/0dm50ddn51vc39svyzv_6fp00000gn/T//ccn8O2AG.s 			page 17


 873 00b9 00       		.byte	0
 874 00ba 0F       		.uleb128 0xf
 875 00bb 2E       		.uleb128 0x2e
 876 00bc 01       		.byte	0x1
 877 00bd 3F       		.uleb128 0x3f
 878 00be 0C       		.uleb128 0xc
 879 00bf 03       		.uleb128 0x3
 880 00c0 0E       		.uleb128 0xe
 881 00c1 3A       		.uleb128 0x3a
 882 00c2 0B       		.uleb128 0xb
 883 00c3 3B       		.uleb128 0x3b
 884 00c4 0B       		.uleb128 0xb
 885 00c5 27       		.uleb128 0x27
 886 00c6 0C       		.uleb128 0xc
 887 00c7 11       		.uleb128 0x11
 888 00c8 01       		.uleb128 0x1
 889 00c9 12       		.uleb128 0x12
 890 00ca 01       		.uleb128 0x1
 891 00cb 40       		.uleb128 0x40
 892 00cc 06       		.uleb128 0x6
 893 00cd 9742     		.uleb128 0x2117
 894 00cf 0C       		.uleb128 0xc
 895 00d0 01       		.uleb128 0x1
 896 00d1 13       		.uleb128 0x13
 897 00d2 00       		.byte	0
 898 00d3 00       		.byte	0
 899 00d4 10       		.uleb128 0x10
 900 00d5 05       		.uleb128 0x5
 901 00d6 00       		.byte	0
 902 00d7 03       		.uleb128 0x3
 903 00d8 0E       		.uleb128 0xe
 904 00d9 3A       		.uleb128 0x3a
 905 00da 0B       		.uleb128 0xb
 906 00db 3B       		.uleb128 0x3b
 907 00dc 0B       		.uleb128 0xb
 908 00dd 49       		.uleb128 0x49
 909 00de 13       		.uleb128 0x13
 910 00df 02       		.uleb128 0x2
 911 00e0 0A       		.uleb128 0xa
 912 00e1 00       		.byte	0
 913 00e2 00       		.byte	0
 914 00e3 11       		.uleb128 0x11
 915 00e4 2E       		.uleb128 0x2e
 916 00e5 01       		.byte	0x1
 917 00e6 3F       		.uleb128 0x3f
 918 00e7 0C       		.uleb128 0xc
 919 00e8 03       		.uleb128 0x3
 920 00e9 0E       		.uleb128 0xe
 921 00ea 3A       		.uleb128 0x3a
 922 00eb 0B       		.uleb128 0xb
 923 00ec 3B       		.uleb128 0x3b
 924 00ed 0B       		.uleb128 0xb
 925 00ee 27       		.uleb128 0x27
 926 00ef 0C       		.uleb128 0xc
 927 00f0 11       		.uleb128 0x11
 928 00f1 01       		.uleb128 0x1
 929 00f2 12       		.uleb128 0x12
ARM GAS  /var/folders/lp/0dm50ddn51vc39svyzv_6fp00000gn/T//ccn8O2AG.s 			page 18


 930 00f3 01       		.uleb128 0x1
 931 00f4 40       		.uleb128 0x40
 932 00f5 0A       		.uleb128 0xa
 933 00f6 9742     		.uleb128 0x2117
 934 00f8 0C       		.uleb128 0xc
 935 00f9 01       		.uleb128 0x1
 936 00fa 13       		.uleb128 0x13
 937 00fb 00       		.byte	0
 938 00fc 00       		.byte	0
 939 00fd 12       		.uleb128 0x12
 940 00fe 898201   		.uleb128 0x4109
 941 0101 01       		.byte	0x1
 942 0102 11       		.uleb128 0x11
 943 0103 01       		.uleb128 0x1
 944 0104 9542     		.uleb128 0x2115
 945 0106 0C       		.uleb128 0xc
 946 0107 31       		.uleb128 0x31
 947 0108 13       		.uleb128 0x13
 948 0109 00       		.byte	0
 949 010a 00       		.byte	0
 950 010b 13       		.uleb128 0x13
 951 010c 8A8201   		.uleb128 0x410a
 952 010f 00       		.byte	0
 953 0110 02       		.uleb128 0x2
 954 0111 0A       		.uleb128 0xa
 955 0112 9142     		.uleb128 0x2111
 956 0114 0A       		.uleb128 0xa
 957 0115 00       		.byte	0
 958 0116 00       		.byte	0
 959 0117 14       		.uleb128 0x14
 960 0118 34       		.uleb128 0x34
 961 0119 00       		.byte	0
 962 011a 03       		.uleb128 0x3
 963 011b 0E       		.uleb128 0xe
 964 011c 3A       		.uleb128 0x3a
 965 011d 0B       		.uleb128 0xb
 966 011e 3B       		.uleb128 0x3b
 967 011f 0B       		.uleb128 0xb
 968 0120 49       		.uleb128 0x49
 969 0121 13       		.uleb128 0x13
 970 0122 02       		.uleb128 0x2
 971 0123 0A       		.uleb128 0xa
 972 0124 00       		.byte	0
 973 0125 00       		.byte	0
 974 0126 15       		.uleb128 0x15
 975 0127 898201   		.uleb128 0x4109
 976 012a 01       		.byte	0x1
 977 012b 11       		.uleb128 0x11
 978 012c 01       		.uleb128 0x1
 979 012d 31       		.uleb128 0x31
 980 012e 13       		.uleb128 0x13
 981 012f 00       		.byte	0
 982 0130 00       		.byte	0
 983 0131 16       		.uleb128 0x16
 984 0132 2E       		.uleb128 0x2e
 985 0133 01       		.byte	0x1
 986 0134 3F       		.uleb128 0x3f
ARM GAS  /var/folders/lp/0dm50ddn51vc39svyzv_6fp00000gn/T//ccn8O2AG.s 			page 19


 987 0135 0C       		.uleb128 0xc
 988 0136 03       		.uleb128 0x3
 989 0137 0E       		.uleb128 0xe
 990 0138 3A       		.uleb128 0x3a
 991 0139 0B       		.uleb128 0xb
 992 013a 3B       		.uleb128 0x3b
 993 013b 0B       		.uleb128 0xb
 994 013c 49       		.uleb128 0x49
 995 013d 13       		.uleb128 0x13
 996 013e 8701     		.uleb128 0x87
 997 0140 0C       		.uleb128 0xc
 998 0141 11       		.uleb128 0x11
 999 0142 01       		.uleb128 0x1
 1000 0143 12       		.uleb128 0x12
 1001 0144 01       		.uleb128 0x1
 1002 0145 40       		.uleb128 0x40
 1003 0146 06       		.uleb128 0x6
 1004 0147 9742     		.uleb128 0x2117
 1005 0149 0C       		.uleb128 0xc
 1006 014a 01       		.uleb128 0x1
 1007 014b 13       		.uleb128 0x13
 1008 014c 00       		.byte	0
 1009 014d 00       		.byte	0
 1010 014e 17       		.uleb128 0x17
 1011 014f 898201   		.uleb128 0x4109
 1012 0152 00       		.byte	0
 1013 0153 11       		.uleb128 0x11
 1014 0154 01       		.uleb128 0x1
 1015 0155 31       		.uleb128 0x31
 1016 0156 13       		.uleb128 0x13
 1017 0157 00       		.byte	0
 1018 0158 00       		.byte	0
 1019 0159 18       		.uleb128 0x18
 1020 015a 898201   		.uleb128 0x4109
 1021 015d 01       		.byte	0x1
 1022 015e 11       		.uleb128 0x11
 1023 015f 01       		.uleb128 0x1
 1024 0160 31       		.uleb128 0x31
 1025 0161 13       		.uleb128 0x13
 1026 0162 01       		.uleb128 0x1
 1027 0163 13       		.uleb128 0x13
 1028 0164 00       		.byte	0
 1029 0165 00       		.byte	0
 1030 0166 19       		.uleb128 0x19
 1031 0167 34       		.uleb128 0x34
 1032 0168 00       		.byte	0
 1033 0169 03       		.uleb128 0x3
 1034 016a 0E       		.uleb128 0xe
 1035 016b 3A       		.uleb128 0x3a
 1036 016c 0B       		.uleb128 0xb
 1037 016d 3B       		.uleb128 0x3b
 1038 016e 05       		.uleb128 0x5
 1039 016f 49       		.uleb128 0x49
 1040 0170 13       		.uleb128 0x13
 1041 0171 3F       		.uleb128 0x3f
 1042 0172 0C       		.uleb128 0xc
 1043 0173 3C       		.uleb128 0x3c
ARM GAS  /var/folders/lp/0dm50ddn51vc39svyzv_6fp00000gn/T//ccn8O2AG.s 			page 20


 1044 0174 0C       		.uleb128 0xc
 1045 0175 00       		.byte	0
 1046 0176 00       		.byte	0
 1047 0177 1A       		.uleb128 0x1a
 1048 0178 2E       		.uleb128 0x2e
 1049 0179 00       		.byte	0
 1050 017a 3F       		.uleb128 0x3f
 1051 017b 0C       		.uleb128 0xc
 1052 017c 3C       		.uleb128 0x3c
 1053 017d 0C       		.uleb128 0xc
 1054 017e 8740     		.uleb128 0x2007
 1055 0180 0E       		.uleb128 0xe
 1056 0181 03       		.uleb128 0x3
 1057 0182 0E       		.uleb128 0xe
 1058 0183 3A       		.uleb128 0x3a
 1059 0184 0B       		.uleb128 0xb
 1060 0185 3B       		.uleb128 0x3b
 1061 0186 05       		.uleb128 0x5
 1062 0187 00       		.byte	0
 1063 0188 00       		.byte	0
 1064 0189 00       		.byte	0
 1065              		.section	.debug_loc,"",%progbits
 1066              	.Ldebug_loc0:
 1067              	.LLST0:
 1068 0000 00000000 		.4byte	.LFB29
 1069 0004 02000000 		.4byte	.LCFI0
 1070 0008 0200     		.2byte	0x2
 1071 000a 7D       		.byte	0x7d
 1072 000b 00       		.sleb128 0
 1073 000c 02000000 		.4byte	.LCFI0
 1074 0010 12000000 		.4byte	.LCFI1
 1075 0014 0200     		.2byte	0x2
 1076 0016 7D       		.byte	0x7d
 1077 0017 08       		.sleb128 8
 1078 0018 12000000 		.4byte	.LCFI1
 1079 001c 14000000 		.4byte	.LFE29
 1080 0020 0200     		.2byte	0x2
 1081 0022 7D       		.byte	0x7d
 1082 0023 00       		.sleb128 0
 1083 0024 00000000 		.4byte	0
 1084 0028 00000000 		.4byte	0
 1085              	.LLST1:
 1086 002c 1C000000 		.4byte	.LFB31
 1087 0030 1E000000 		.4byte	.LCFI2
 1088 0034 0200     		.2byte	0x2
 1089 0036 7D       		.byte	0x7d
 1090 0037 00       		.sleb128 0
 1091 0038 1E000000 		.4byte	.LCFI2
 1092 003c 3A000000 		.4byte	.LCFI3
 1093 0040 0200     		.2byte	0x2
 1094 0042 7D       		.byte	0x7d
 1095 0043 10       		.sleb128 16
 1096 0044 3A000000 		.4byte	.LCFI3
 1097 0048 44000000 		.4byte	.LFE31
 1098 004c 0200     		.2byte	0x2
 1099 004e 7D       		.byte	0x7d
 1100 004f 04       		.sleb128 4
ARM GAS  /var/folders/lp/0dm50ddn51vc39svyzv_6fp00000gn/T//ccn8O2AG.s 			page 21


 1101 0050 00000000 		.4byte	0
 1102 0054 00000000 		.4byte	0
 1103              	.LLST2:
 1104 0058 00000000 		.4byte	.LFB32
 1105 005c 02000000 		.4byte	.LCFI4
 1106 0060 0200     		.2byte	0x2
 1107 0062 7D       		.byte	0x7d
 1108 0063 00       		.sleb128 0
 1109 0064 02000000 		.4byte	.LCFI4
 1110 0068 30000000 		.4byte	.LFE32
 1111 006c 0200     		.2byte	0x2
 1112 006e 7D       		.byte	0x7d
 1113 006f 08       		.sleb128 8
 1114 0070 00000000 		.4byte	0
 1115 0074 00000000 		.4byte	0
 1116              		.section	.debug_aranges,"",%progbits
 1117 0000 24000000 		.4byte	0x24
 1118 0004 0200     		.2byte	0x2
 1119 0006 00000000 		.4byte	.Ldebug_info0
 1120 000a 04       		.byte	0x4
 1121 000b 00       		.byte	0
 1122 000c 0000     		.2byte	0
 1123 000e 0000     		.2byte	0
 1124 0010 00000000 		.4byte	.Ltext0
 1125 0014 44000000 		.4byte	.Letext0-.Ltext0
 1126 0018 00000000 		.4byte	.LFB32
 1127 001c 30000000 		.4byte	.LFE32-.LFB32
 1128 0020 00000000 		.4byte	0
 1129 0024 00000000 		.4byte	0
 1130              		.section	.debug_ranges,"",%progbits
 1131              	.Ldebug_ranges0:
 1132 0000 00000000 		.4byte	.Ltext0
 1133 0004 44000000 		.4byte	.Letext0
 1134 0008 00000000 		.4byte	.LFB32
 1135 000c 30000000 		.4byte	.LFE32
 1136 0010 00000000 		.4byte	0
 1137 0014 00000000 		.4byte	0
 1138              		.section	.debug_line,"",%progbits
 1139              	.Ldebug_line0:
 1140 0000 E9010000 		.section	.debug_str,"MS",%progbits,1
 1140      02009901 
 1140      00000201 
 1140      FB0E0D00 
 1140      01010101 
 1141              	.LASF33:
 1142 0000 4750494F 		.ascii	"GPIO_Speed\000"
 1142      5F537065 
 1142      656400
 1143              	.LASF17:
 1144 000b 4C434B52 		.ascii	"LCKR\000"
 1144      00
 1145              	.LASF24:
 1146 0010 4750494F 		.ascii	"GPIO_Mode_IN_FLOATING\000"
 1146      5F4D6F64 
 1146      655F494E 
 1146      5F464C4F 
 1146      4154494E 
ARM GAS  /var/folders/lp/0dm50ddn51vc39svyzv_6fp00000gn/T//ccn8O2AG.s 			page 22


 1147              	.LASF29:
 1148 0026 4750494F 		.ascii	"GPIO_Mode_AF_OD\000"
 1148      5F4D6F64 
 1148      655F4146 
 1148      5F4F4400 
 1149              	.LASF45:
 1150 0036 2F557365 		.ascii	"/Users/yanbo/Projects/stm32f10x_makefile_template\000"
 1150      72732F79 
 1150      616E626F 
 1150      2F50726F 
 1150      6A656374 
 1151              	.LASF25:
 1152 0068 4750494F 		.ascii	"GPIO_Mode_IPD\000"
 1152      5F4D6F64 
 1152      655F4950 
 1152      4400
 1153              	.LASF16:
 1154 0076 42535252 		.ascii	"BSRR\000"
 1154      00
 1155              	.LASF39:
 1156 007b 5243435F 		.ascii	"RCC_APB2PeriphClockCmd\000"
 1156      41504232 
 1156      50657269 
 1156      7068436C 
 1156      6F636B43 
 1157              	.LASF18:
 1158 0092 4750494F 		.ascii	"GPIO_TypeDef\000"
 1158      5F547970 
 1158      65446566 
 1158      00
 1159              	.LASF26:
 1160 009f 4750494F 		.ascii	"GPIO_Mode_IPU\000"
 1160      5F4D6F64 
 1160      655F4950 
 1160      5500
 1161              	.LASF34:
 1162 00ad 4750494F 		.ascii	"GPIO_Mode\000"
 1162      5F4D6F64 
 1162      6500
 1163              	.LASF15:
 1164 00b7 454E4142 		.ascii	"ENABLE\000"
 1164      4C4500
 1165              	.LASF1:
 1166 00be 756E7369 		.ascii	"unsigned char\000"
 1166      676E6564 
 1166      20636861 
 1166      7200
 1167              	.LASF44:
 1168 00cc 75736572 		.ascii	"user/main.c\000"
 1168      2F6D6169 
 1168      6E2E6300 
 1169              	.LASF7:
 1170 00d8 6C6F6E67 		.ascii	"long unsigned int\000"
 1170      20756E73 
 1170      69676E65 
 1170      6420696E 
 1170      7400
ARM GAS  /var/folders/lp/0dm50ddn51vc39svyzv_6fp00000gn/T//ccn8O2AG.s 			page 23


 1171              	.LASF3:
 1172 00ea 73686F72 		.ascii	"short unsigned int\000"
 1172      7420756E 
 1172      7369676E 
 1172      65642069 
 1172      6E7400
 1173              	.LASF20:
 1174 00fd 4750494F 		.ascii	"GPIO_Speed_2MHz\000"
 1174      5F537065 
 1174      65645F32 
 1174      4D487A00 
 1175              	.LASF14:
 1176 010d 44495341 		.ascii	"DISABLE\000"
 1176      424C4500 
 1177              	.LASF6:
 1178 0115 5F5F7569 		.ascii	"__uint32_t\000"
 1178      6E743332 
 1178      5F7400
 1179              	.LASF42:
 1180 0120 4750494F 		.ascii	"GPIO_SetBits\000"
 1180      5F536574 
 1180      42697473 
 1180      00
 1181              	.LASF5:
 1182 012d 5F5F7569 		.ascii	"__uint16_t\000"
 1182      6E743136 
 1182      5F7400
 1183              	.LASF36:
 1184 0138 44656C61 		.ascii	"Delay\000"
 1184      7900
 1185              	.LASF48:
 1186 013e 6D61696E 		.ascii	"main\000"
 1186      00
 1187              	.LASF49:
 1188 0143 49544D5F 		.ascii	"ITM_RxBuffer\000"
 1188      52784275 
 1188      66666572 
 1188      00
 1189              	.LASF10:
 1190 0150 756E7369 		.ascii	"unsigned int\000"
 1190      676E6564 
 1190      20696E74 
 1190      00
 1191              	.LASF41:
 1192 015d 4750494F 		.ascii	"GPIO_ResetBits\000"
 1192      5F526573 
 1192      65744269 
 1192      747300
 1193              	.LASF28:
 1194 016c 4750494F 		.ascii	"GPIO_Mode_Out_PP\000"
 1194      5F4D6F64 
 1194      655F4F75 
 1194      745F5050 
 1194      00
 1195              	.LASF38:
 1196 017d 4750494F 		.ascii	"GPIO_Configuration\000"
 1196      5F436F6E 
ARM GAS  /var/folders/lp/0dm50ddn51vc39svyzv_6fp00000gn/T//ccn8O2AG.s 			page 24


 1196      66696775 
 1196      72617469 
 1196      6F6E00
 1197              	.LASF37:
 1198 0190 5243435F 		.ascii	"RCC_Configuration\000"
 1198      436F6E66 
 1198      69677572 
 1198      6174696F 
 1198      6E00
 1199              	.LASF21:
 1200 01a2 4750494F 		.ascii	"GPIO_Speed_50MHz\000"
 1200      5F537065 
 1200      65645F35 
 1200      304D487A 
 1200      00
 1201              	.LASF13:
 1202 01b3 73697A65 		.ascii	"sizetype\000"
 1202      74797065 
 1202      00
 1203              	.LASF32:
 1204 01bc 4750494F 		.ascii	"GPIO_Pin\000"
 1204      5F50696E 
 1204      00
 1205              	.LASF8:
 1206 01c5 6C6F6E67 		.ascii	"long long int\000"
 1206      206C6F6E 
 1206      6720696E 
 1206      7400
 1207              	.LASF23:
 1208 01d3 4750494F 		.ascii	"GPIO_Mode_AIN\000"
 1208      5F4D6F64 
 1208      655F4149 
 1208      4E00
 1209              	.LASF30:
 1210 01e1 4750494F 		.ascii	"GPIO_Mode_AF_PP\000"
 1210      5F4D6F64 
 1210      655F4146 
 1210      5F505000 
 1211              	.LASF43:
 1212 01f1 474E5520 		.ascii	"GNU C11 5.4.1 20160919 (release) [ARM/embedded-5-br"
 1212      43313120 
 1212      352E342E 
 1212      31203230 
 1212      31363039 
 1213 0224 616E6368 		.ascii	"anch revision 240496] -mcpu=cortex-m3 -mthumb -g -g"
 1213      20726576 
 1213      6973696F 
 1213      6E203234 
 1213      30343936 
 1214 0257 64776172 		.ascii	"dwarf-2 -Os -fomit-frame-pointer\000"
 1214      662D3220 
 1214      2D4F7320 
 1214      2D666F6D 
 1214      69742D66 
 1215              	.LASF47:
 1216 0278 4750494F 		.ascii	"GPIO_InitStructure\000"
 1216      5F496E69 
ARM GAS  /var/folders/lp/0dm50ddn51vc39svyzv_6fp00000gn/T//ccn8O2AG.s 			page 25


 1216      74537472 
 1216      75637475 
 1216      726500
 1217              	.LASF2:
 1218 028b 73686F72 		.ascii	"short int\000"
 1218      7420696E 
 1218      7400
 1219              	.LASF19:
 1220 0295 4750494F 		.ascii	"GPIO_Speed_10MHz\000"
 1220      5F537065 
 1220      65645F31 
 1220      304D487A 
 1220      00
 1221              	.LASF40:
 1222 02a6 4750494F 		.ascii	"GPIO_Init\000"
 1222      5F496E69 
 1222      7400
 1223              	.LASF11:
 1224 02b0 75696E74 		.ascii	"uint16_t\000"
 1224      31365F74 
 1224      00
 1225              	.LASF35:
 1226 02b9 4750494F 		.ascii	"GPIO_InitTypeDef\000"
 1226      5F496E69 
 1226      74547970 
 1226      65446566 
 1226      00
 1227              	.LASF46:
 1228 02ca 6E436F75 		.ascii	"nCount\000"
 1228      6E7400
 1229              	.LASF12:
 1230 02d1 75696E74 		.ascii	"uint32_t\000"
 1230      33325F74 
 1230      00
 1231              	.LASF4:
 1232 02da 6C6F6E67 		.ascii	"long int\000"
 1232      20696E74 
 1232      00
 1233              	.LASF22:
 1234 02e3 4750494F 		.ascii	"GPIOSpeed_TypeDef\000"
 1234      53706565 
 1234      645F5479 
 1234      70654465 
 1234      6600
 1235              	.LASF0:
 1236 02f5 7369676E 		.ascii	"signed char\000"
 1236      65642063 
 1236      68617200 
 1237              	.LASF9:
 1238 0301 6C6F6E67 		.ascii	"long long unsigned int\000"
 1238      206C6F6E 
 1238      6720756E 
 1238      7369676E 
 1238      65642069 
 1239              	.LASF27:
 1240 0318 4750494F 		.ascii	"GPIO_Mode_Out_OD\000"
 1240      5F4D6F64 
ARM GAS  /var/folders/lp/0dm50ddn51vc39svyzv_6fp00000gn/T//ccn8O2AG.s 			page 26


 1240      655F4F75 
 1240      745F4F44 
 1240      00
 1241              	.LASF31:
 1242 0329 4750494F 		.ascii	"GPIOMode_TypeDef\000"
 1242      4D6F6465 
 1242      5F547970 
 1242      65446566 
 1242      00
 1243              		.ident	"GCC: (GNU Tools for ARM Embedded Processors) 5.4.1 20160919 (release) [ARM/embedded-5-bran
ARM GAS  /var/folders/lp/0dm50ddn51vc39svyzv_6fp00000gn/T//ccn8O2AG.s 			page 27


DEFINED SYMBOLS
                            *ABS*:0000000000000000 main.c
/var/folders/lp/0dm50ddn51vc39svyzv_6fp00000gn/T//ccn8O2AG.s:75     .text:0000000000000000 $t
/var/folders/lp/0dm50ddn51vc39svyzv_6fp00000gn/T//ccn8O2AG.s:80     .text:0000000000000000 Delay
/var/folders/lp/0dm50ddn51vc39svyzv_6fp00000gn/T//ccn8O2AG.s:117    .text:0000000000000014 RCC_Configuration
/var/folders/lp/0dm50ddn51vc39svyzv_6fp00000gn/T//ccn8O2AG.s:137    .text:000000000000001c GPIO_Configuration
/var/folders/lp/0dm50ddn51vc39svyzv_6fp00000gn/T//ccn8O2AG.s:173    .text:0000000000000040 $d
/var/folders/lp/0dm50ddn51vc39svyzv_6fp00000gn/T//ccn8O2AG.s:178    .text.startup:0000000000000000 $t
/var/folders/lp/0dm50ddn51vc39svyzv_6fp00000gn/T//ccn8O2AG.s:183    .text.startup:0000000000000000 main
/var/folders/lp/0dm50ddn51vc39svyzv_6fp00000gn/T//ccn8O2AG.s:224    .text.startup:0000000000000028 $d
                     .debug_frame:0000000000000010 $d

UNDEFINED SYMBOLS
RCC_APB2PeriphClockCmd
GPIO_Init
GPIO_ResetBits
GPIO_SetBits
