ARM GAS  /var/folders/lp/0dm50ddn51vc39svyzv_6fp00000gn/T//ccn8O2AG.s 			page 1


   1              		.syntax unified
   2              		.cpu cortex-m3
   3              		.fpu softvfp
   4              		.eabi_attribute 20, 1	@ Tag_ABI_FP_denormal
   5              		.eabi_attribute 21, 1	@ Tag_ABI_FP_exceptions
   6              		.eabi_attribute 23, 3	@ Tag_ABI_FP_number_model
   7              		.eabi_attribute 24, 1	@ Tag_ABI_align8_needed
   8              		.eabi_attribute 25, 1	@ Tag_ABI_align8_preserved
   9              		.eabi_attribute 26, 1	@ Tag_ABI_enum_size
  10              		.eabi_attribute 30, 4	@ Tag_ABI_optimization_goals
  11              		.eabi_attribute 34, 1	@ Tag_CPU_unaligned_access
  12              		.eabi_attribute 18, 4	@ Tag_ABI_PCS_wchar_t
  13              		.file	"main.c"
  14              	@ GNU C11 (GNU Tools for ARM Embedded Processors) version 5.4.1 20160919 (release) [ARM/embedded-5-
  15              	@	compiled by GNU C version 4.2.1 (Based on Apple Inc. build 5658) (LLVM build 2336.9.00), GMP vers
  16              	@ GGC heuristics: --param ggc-min-expand=100 --param ggc-min-heapsize=131072
  17              	@ options passed:  -I . -I ./user -I ./Libraries/CMSIS/CM3/CoreSupport
  18              	@ -I ./Libraries/CMSIS/CM3/DeviceSupport/ST/STM32F10x
  19              	@ -I ./Libraries/STM32F10x_StdPeriph_Driver/inc
  20              	@ -I ./Libraries/STM32F10x_StdPeriph_Driver -imultilib armv7-m
  21              	@ -iprefix /usr/local/share/gcc-arm-none-eabi-5_4-2016q3/bin/../lib/gcc/arm-none-eabi/5.4.1/
  22              	@ -isysroot /usr/local/share/gcc-arm-none-eabi-5_4-2016q3/bin/../arm-none-eabi
  23              	@ -D__USES_INITFINI__ -D STM32F10X_MD_VL -D USE_STDPERIPH_DRIVER
  24              	@ -D HSE_VALUE=8000000 -D RUN_FROM_FLASH=1 user/main.c -mcpu=cortex-m3
  25              	@ -mthumb -auxbase-strip user/main.o -g -gdwarf-2 -Os -Wall
  26              	@ -fomit-frame-pointer -fverbose-asm
  27              	@ options enabled:  -faggressive-loop-optimizations -falign-functions
  28              	@ -falign-jumps -falign-labels -falign-loops -fauto-inc-dec
  29              	@ -fbranch-count-reg -fcaller-saves -fchkp-check-incomplete-type
  30              	@ -fchkp-check-read -fchkp-check-write -fchkp-instrument-calls
  31              	@ -fchkp-narrow-bounds -fchkp-optimize -fchkp-store-bounds
  32              	@ -fchkp-use-static-bounds -fchkp-use-static-const-bounds
  33              	@ -fchkp-use-wrappers -fcombine-stack-adjustments -fcommon -fcompare-elim
  34              	@ -fcprop-registers -fcrossjumping -fcse-follow-jumps -fdefer-pop
  35              	@ -fdelete-null-pointer-checks -fdevirtualize -fdevirtualize-speculatively
  36              	@ -fdwarf2-cfi-asm -fearly-inlining -feliminate-unused-debug-types
  37              	@ -fexpensive-optimizations -fforward-propagate -ffunction-cse -fgcse
  38              	@ -fgcse-lm -fgnu-runtime -fgnu-unique -fguess-branch-probability
  39              	@ -fhoist-adjacent-loads -fident -fif-conversion -fif-conversion2
  40              	@ -findirect-inlining -finline -finline-atomics -finline-functions
  41              	@ -finline-functions-called-once -finline-small-functions -fipa-cp
  42              	@ -fipa-cp-alignment -fipa-icf -fipa-icf-functions -fipa-icf-variables
  43              	@ -fipa-profile -fipa-pure-const -fipa-ra -fipa-reference -fipa-sra
  44              	@ -fira-hoist-pressure -fira-share-save-slots -fira-share-spill-slots
  45              	@ -fisolate-erroneous-paths-dereference -fivopts -fkeep-static-consts
  46              	@ -fleading-underscore -flifetime-dse -flra-remat -flto-odr-type-merging
  47              	@ -fmath-errno -fmerge-constants -fmerge-debug-strings
  48              	@ -fmove-loop-invariants -fomit-frame-pointer -foptimize-sibling-calls
  49              	@ -fpartial-inlining -fpeephole -fpeephole2 -fprefetch-loop-arrays
  50              	@ -freg-struct-return -freorder-blocks -freorder-functions
  51              	@ -frerun-cse-after-loop -fsched-critical-path-heuristic
  52              	@ -fsched-dep-count-heuristic -fsched-group-heuristic -fsched-interblock
  53              	@ -fsched-last-insn-heuristic -fsched-pressure -fsched-rank-heuristic
  54              	@ -fsched-spec -fsched-spec-insn-heuristic -fsched-stalled-insns-dep
  55              	@ -fschedule-insns2 -fsection-anchors -fsemantic-interposition
  56              	@ -fshow-column -fsigned-zeros -fsplit-ivs-in-unroller -fsplit-wide-types
  57              	@ -fssa-phiopt -fstdarg-opt -fstrict-aliasing -fstrict-overflow
ARM GAS  /var/folders/lp/0dm50ddn51vc39svyzv_6fp00000gn/T//ccn8O2AG.s 			page 2


  58              	@ -fstrict-volatile-bitfields -fsync-libcalls -fthread-jumps
  59              	@ -ftoplevel-reorder -ftrapping-math -ftree-bit-ccp -ftree-builtin-call-dce
  60              	@ -ftree-ccp -ftree-ch -ftree-coalesce-vars -ftree-copy-prop
  61              	@ -ftree-copyrename -ftree-cselim -ftree-dce -ftree-dominator-opts
  62              	@ -ftree-dse -ftree-forwprop -ftree-fre -ftree-loop-if-convert
  63              	@ -ftree-loop-im -ftree-loop-ivcanon -ftree-loop-optimize
  64              	@ -ftree-parallelize-loops= -ftree-phiprop -ftree-pre -ftree-pta
  65              	@ -ftree-reassoc -ftree-scev-cprop -ftree-sink -ftree-slsr -ftree-sra
  66              	@ -ftree-switch-conversion -ftree-tail-merge -ftree-ter -ftree-vrp
  67              	@ -funit-at-a-time -fvar-tracking -fvar-tracking-assignments -fverbose-asm
  68              	@ -fzero-initialized-in-bss -masm-syntax-unified -mfix-cortex-m3-ldrd
  69              	@ -mlittle-endian -mpic-data-is-text-relative -msched-prolog -mthumb
  70              	@ -munaligned-access -mvectorize-with-neon-quad
  71              	
  72              		.text
  73              	.Ltext0:
  74              		.cfi_sections	.debug_frame
  75              		.align	1
  76              		.global	Delay
  77              		.thumb
  78              		.thumb_func
  79              		.type	Delay, %function
  80              	Delay:
  81              	.LFB29:
  82              		.file 1 "user/main.c"
   1:user/main.c   **** //
   2:user/main.c   **** // Created by YangYongbao on 2017/3/16.
   3:user/main.c   **** //
   4:user/main.c   **** 
   5:user/main.c   **** #include "stm32f10x.h"
   6:user/main.c   **** #include "stm32f10x_conf.h"
   7:user/main.c   **** 
   8:user/main.c   **** void Delay(__IO uint32_t nCount)
   9:user/main.c   **** {
  83              		.loc 1 9 0
  84              		.cfi_startproc
  85              		@ args = 0, pretend = 0, frame = 8
  86              		@ frame_needed = 0, uses_anonymous_args = 0
  87              		@ link register save eliminated.
  88              	.LVL0:
  89 0000 82B0     		sub	sp, sp, #8	@,,
  90              	.LCFI0:
  91              		.cfi_def_cfa_offset 8
  92 0002 0190     		str	r0, [sp, #4]	@ nCount, nCount
  93              	.L2:
  10:user/main.c   ****     for(; nCount != 0; nCount--);
  94              		.loc 1 10 0 discriminator 1
  95 0004 019B     		ldr	r3, [sp, #4]	@ D.6580, nCount
  96 0006 1BB1     		cbz	r3, .L5	@ D.6580,
  97              		.loc 1 10 0 is_stmt 0 discriminator 2
  98 0008 019B     		ldr	r3, [sp, #4]	@ D.6580, nCount
  99 000a 013B     		subs	r3, r3, #1	@ D.6580, D.6580,
 100 000c 0193     		str	r3, [sp, #4]	@ D.6580, nCount
 101 000e F9E7     		b	.L2	@
 102              	.L5:
  11:user/main.c   **** }
 103              		.loc 1 11 0 is_stmt 1
ARM GAS  /var/folders/lp/0dm50ddn51vc39svyzv_6fp00000gn/T//ccn8O2AG.s 			page 3


 104 0010 02B0     		add	sp, sp, #8	@,,
 105              	.LCFI1:
 106              		.cfi_def_cfa_offset 0
 107              		@ sp needed	@
 108 0012 7047     		bx	lr	@
 109              		.cfi_endproc
 110              	.LFE29:
 111              		.size	Delay, .-Delay
 112              		.align	1
 113              		.global	RCC_Configuration
 114              		.thumb
 115              		.thumb_func
 116              		.type	RCC_Configuration, %function
 117              	RCC_Configuration:
 118              	.LFB30:
  12:user/main.c   **** 
  13:user/main.c   **** void RCC_Configuration(void)
  14:user/main.c   **** {
 119              		.loc 1 14 0
 120              		.cfi_startproc
 121              		@ args = 0, pretend = 0, frame = 0
 122              		@ frame_needed = 0, uses_anonymous_args = 0
 123              		@ link register save eliminated.
  15:user/main.c   ****     /* GPIOA, GPIOB clock enable */
  16:user/main.c   ****     RCC_APB2PeriphClockCmd(RCC_APB2Periph_GPIOA | RCC_APB2Periph_GPIOB, ENABLE);
 124              		.loc 1 16 0
 125 0014 0121     		movs	r1, #1	@,
 126 0016 0C20     		movs	r0, #12	@,
 127 0018 FFF7FEBF 		b	RCC_APB2PeriphClockCmd	@
 128              	.LVL1:
 129              		.cfi_endproc
 130              	.LFE30:
 131              		.size	RCC_Configuration, .-RCC_Configuration
 132              		.align	1
 133              		.global	GPIO_Configuration
 134              		.thumb
 135              		.thumb_func
 136              		.type	GPIO_Configuration, %function
 137              	GPIO_Configuration:
 138              	.LFB31:
  17:user/main.c   **** }
  18:user/main.c   **** 
  19:user/main.c   **** void GPIO_Configuration(void)
  20:user/main.c   **** {
 139              		.loc 1 20 0
 140              		.cfi_startproc
 141              		@ args = 0, pretend = 0, frame = 8
 142              		@ frame_needed = 0, uses_anonymous_args = 0
 143 001c 07B5     		push	{r0, r1, r2, lr}	@
 144              	.LCFI2:
 145              		.cfi_def_cfa_offset 16
 146              		.cfi_offset 14, -4
  21:user/main.c   ****     GPIO_InitTypeDef GPIO_InitStructure;
  22:user/main.c   **** 
  23:user/main.c   ****     GPIO_InitStructure.GPIO_Pin =  GPIO_Pin_6;
 147              		.loc 1 23 0
 148 001e 4023     		movs	r3, #64	@ tmp111,
ARM GAS  /var/folders/lp/0dm50ddn51vc39svyzv_6fp00000gn/T//ccn8O2AG.s 			page 4


 149 0020 ADF80430 		strh	r3, [sp, #4]	@ movhi	@ tmp111, GPIO_InitStructure.GPIO_Pin
  24:user/main.c   ****     GPIO_InitStructure.GPIO_Mode = GPIO_Mode_Out_PP;
 150              		.loc 1 24 0
 151 0024 1023     		movs	r3, #16	@ tmp112,
 152 0026 8DF80730 		strb	r3, [sp, #7]	@ tmp112, GPIO_InitStructure.GPIO_Mode
  25:user/main.c   ****     GPIO_InitStructure.GPIO_Speed = GPIO_Speed_50MHz;
  26:user/main.c   ****     GPIO_Init(GPIOB, &GPIO_InitStructure);
 153              		.loc 1 26 0
 154 002a 01A9     		add	r1, sp, #4	@,,
  25:user/main.c   ****     GPIO_InitStructure.GPIO_Speed = GPIO_Speed_50MHz;
 155              		.loc 1 25 0
 156 002c 0323     		movs	r3, #3	@ tmp114,
 157              		.loc 1 26 0
 158 002e 0448     		ldr	r0, .L8	@,
  25:user/main.c   ****     GPIO_InitStructure.GPIO_Speed = GPIO_Speed_50MHz;
 159              		.loc 1 25 0
 160 0030 8DF80630 		strb	r3, [sp, #6]	@ tmp114, GPIO_InitStructure.GPIO_Speed
 161              		.loc 1 26 0
 162 0034 FFF7FEFF 		bl	GPIO_Init	@
 163              	.LVL2:
  27:user/main.c   **** }
 164              		.loc 1 27 0
 165 0038 03B0     		add	sp, sp, #12	@,,
 166              	.LCFI3:
 167              		.cfi_def_cfa_offset 4
 168              		@ sp needed	@
 169 003a 5DF804FB 		ldr	pc, [sp], #4	@
 170              	.L9:
 171 003e 00BF     		.align	2
 172              	.L8:
 173 0040 000C0140 		.word	1073810432
 174              		.cfi_endproc
 175              	.LFE31:
 176              		.size	GPIO_Configuration, .-GPIO_Configuration
 177              		.section	.text.startup,"ax",%progbits
 178              		.align	1
 179              		.global	main
 180              		.thumb
 181              		.thumb_func
 182              		.type	main, %function
 183              	main:
 184              	.LFB32:
  28:user/main.c   **** 
  29:user/main.c   **** int main() {
 185              		.loc 1 29 0
 186              		.cfi_startproc
 187              		@ Volatile: function does not return.
 188              		@ args = 0, pretend = 0, frame = 0
 189              		@ frame_needed = 0, uses_anonymous_args = 0
 190 0000 08B5     		push	{r3, lr}	@
 191              	.LCFI4:
 192              		.cfi_def_cfa_offset 8
 193              		.cfi_offset 3, -8
 194              		.cfi_offset 14, -4
  30:user/main.c   **** 
  31:user/main.c   ****     RCC_Configuration();
 195              		.loc 1 31 0
ARM GAS  /var/folders/lp/0dm50ddn51vc39svyzv_6fp00000gn/T//ccn8O2AG.s 			page 5


 196 0002 FFF7FEFF 		bl	RCC_Configuration	@
 197              	.LVL3:
  32:user/main.c   ****     GPIO_Configuration();
 198              		.loc 1 32 0
 199 0006 FFF7FEFF 		bl	GPIO_Configuration	@
 200              	.LVL4:
 201              	.L11:
  33:user/main.c   **** 
  34:user/main.c   ****     while(1) {
  35:user/main.c   ****         GPIO_ResetBits(GPIOB, GPIO_Pin_6);
 202              		.loc 1 35 0 discriminator 1
 203 000a 4021     		movs	r1, #64	@,
 204 000c 0648     		ldr	r0, .L12	@,
 205 000e FFF7FEFF 		bl	GPIO_ResetBits	@
 206              	.LVL5:
  36:user/main.c   ****         Delay(1000000);
 207              		.loc 1 36 0 discriminator 1
 208 0012 0648     		ldr	r0, .L12+4	@,
 209 0014 FFF7FEFF 		bl	Delay	@
 210              	.LVL6:
  37:user/main.c   ****         GPIO_SetBits(GPIOB, GPIO_Pin_6);
 211              		.loc 1 37 0 discriminator 1
 212 0018 4021     		movs	r1, #64	@,
 213 001a 0348     		ldr	r0, .L12	@,
 214 001c FFF7FEFF 		bl	GPIO_SetBits	@
 215              	.LVL7:
  38:user/main.c   ****         Delay(1000000);
 216              		.loc 1 38 0 discriminator 1
 217 0020 0248     		ldr	r0, .L12+4	@,
 218 0022 FFF7FEFF 		bl	Delay	@
 219              	.LVL8:
 220 0026 F0E7     		b	.L11	@
 221              	.L13:
 222              		.align	2
 223              	.L12:
 224 0028 000C0140 		.word	1073810432
 225 002c 40420F00 		.word	1000000
 226              		.cfi_endproc
 227              	.LFE32:
 228              		.size	main, .-main
 229              		.text
 230              	.Letext0:
 231              		.file 2 "/usr/local/share/gcc-arm-none-eabi-5_4-2016q3/arm-none-eabi/include/machine/_default_type
 232              		.file 3 "/usr/local/share/gcc-arm-none-eabi-5_4-2016q3/arm-none-eabi/include/sys/_stdint.h"
 233              		.file 4 "./Libraries/CMSIS/CM3/DeviceSupport/ST/STM32F10x/stm32f10x.h"
 234              		.file 5 "./Libraries/STM32F10x_StdPeriph_Driver/inc/stm32f10x_gpio.h"
 235              		.file 6 "./Libraries/STM32F10x_StdPeriph_Driver/inc/stm32f10x_rcc.h"
 236              		.file 7 "./Libraries/CMSIS/CM3/CoreSupport/core_cm3.h"